---
triple:          'x86_64-apple-darwin'
binary-path:     '../../../../Binaries/ThirdParty/ShaderConductor/Mac/libShaderConductor.dylib'
relocations:
  - { offset: 0x44, size: 0x8, addend: 0x0, symName: __ZN4llvm30VerifyDisableABIBreakingChecksE, symObjAddr: 0x14140, symBinAddr: 0x21A6B8, symSize: 0x0 }
  - { offset: 0x78A9C, size: 0x8, addend: 0x0, symName: __ZNSt3__17getlineB8ne180100IcNS_11char_traitsIcEENS_9allocatorIcEEEERNS_13basic_istreamIT_T0_EES9_RNS_12basic_stringIS6_S7_T1_EES6_, symObjAddr: 0xADA0, symBinAddr: 0xD0F0, symSize: 0x150 }
  - { offset: 0x7BBF7, size: 0x8, addend: 0x0, symName: __ZNSt3__112__destroy_atB8ne180100INS_4pairIKN11spirv_cross7TypedIDILNS2_5TypesE4EEENS2_14SPIREntryPointEEELi0EEEvPT_, symObjAddr: 0xCF60, symBinAddr: 0xF100, symSize: 0x90 }
  - { offset: 0x7C2A5, size: 0x8, addend: 0x0, symName: __ZNSt3__112__destroy_atB8ne180100INS_4pairIKN11spirv_cross7TypedIDILNS2_5TypesE0EEENS2_4MetaEEELi0EEEvPT_, symObjAddr: 0xCFF0, symBinAddr: 0xF190, symSize: 0xC0 }
  - { offset: 0x7C750, size: 0x8, addend: 0x0, symName: __ZNSt3__120__throw_length_errorB8ne180100EPKc, symObjAddr: 0xD390, symBinAddr: 0xF4A0, symSize: 0x50 }
  - { offset: 0x7C94C, size: 0x8, addend: 0x0, symName: __ZNSt3__120__throw_out_of_rangeB8ne180100EPKc, symObjAddr: 0xDAC0, symBinAddr: 0xFBD0, symSize: 0x50 }
  - { offset: 0x7D484, size: 0x8, addend: 0x0, symName: __ZNSt3__125__throw_bad_function_callB8ne180100Ev, symObjAddr: 0xF700, symBinAddr: 0x11810, symSize: 0x40 }
  - { offset: 0x7D5C9, size: 0x8, addend: 0x0, symName: __ZNSt3__127__tree_balance_after_insertB8ne180100IPNS_16__tree_node_baseIPvEEEEvT_S5_, symObjAddr: 0xF9D0, symBinAddr: 0x11AE0, symSize: 0x160 }
  - { offset: 0x7DC13, size: 0x8, addend: 0x0, symName: __ZNSt3__116__throw_bad_castB8ne180100Ev, symObjAddr: 0x11950, symBinAddr: 0x13A60, symSize: 0x40 }
  - { offset: 0x813FD, size: 0x8, addend: 0x0, symName: __ZSt28__throw_bad_array_new_lengthB8ne180100v, symObjAddr: 0xD410, symBinAddr: 0xF520, symSize: 0x40 }
  - { offset: 0x81609, size: 0x8, addend: 0x0, symName: __ZN12_GLOBAL__N_112CrossCompileERKN15ShaderConductor8Compiler10ResultDescERKNS1_10SourceDescERKNS1_7OptionsERKNS1_10TargetDescE, symObjAddr: 0x300, symBinAddr: 0x2730, symSize: 0x44D0 }
  - { offset: 0x92941, size: 0x8, addend: 0x0, symName: __ZN12_GLOBAL__N_111AppendErrorERN15ShaderConductor8Compiler10ResultDescERKNSt3__112basic_stringIcNS4_11char_traitsIcEENS4_9allocatorIcEEEE, symObjAddr: 0xAB30, symBinAddr: 0xCE80, symSize: 0xF0 }
  - { offset: 0x92EA3, size: 0x8, addend: 0x0, symName: __ZN12_GLOBAL__N_115CompileToBinaryERKN15ShaderConductor8Compiler10SourceDescERKNS1_7OptionsENS0_15ShadingLanguageEb, symObjAddr: 0x5F80, symBinAddr: 0x83B0, symSize: 0x2010 }
  - { offset: 0x9E974, size: 0x8, addend: 0x0, symName: __ZN12_GLOBAL__N_119DefaultLoadCallbackEPKc, symObjAddr: 0x5B50, symBinAddr: 0x7F80, symSize: 0x430 }
  - { offset: 0x9F6A5, size: 0x8, addend: 0x0, symName: __ZN12_GLOBAL__N_117ShaderProfileNameEN15ShaderConductor11ShaderStageENS0_8Compiler11ShaderModelE, symObjAddr: 0xA630, symBinAddr: 0xC980, symSize: 0x170 }
  - { offset: 0x9F924, size: 0x8, addend: 0x0, symName: __ZN12_GLOBAL__N_116ConvertDxcResultERN15ShaderConductor8Compiler10ResultDescEP19IDxcOperationResultNS0_15ShadingLanguageEbb, symObjAddr: 0xA7A0, symBinAddr: 0xCAF0, symSize: 0x290 }
  - { offset: 0xA22A9, size: 0x8, addend: 0x0, symName: __ZL16CLSID_DxcLibrary, symObjAddr: 0x15000, symBinAddr: 0x1EAFE8, symSize: 0x0 }
  - { offset: 0xA22C4, size: 0x8, addend: 0x0, symName: __ZL17CLSID_DxcCompiler, symObjAddr: 0x15010, symBinAddr: 0x1EAFF8, symSize: 0x0 }
  - { offset: 0xA22E3, size: 0x8, addend: 0x0, symName: __ZL17CLSID_DxcRewriter, symObjAddr: 0x15020, symBinAddr: 0x1EB008, symSize: 0x0 }
  - { offset: 0xA22FE, size: 0x8, addend: 0x0, symName: __ZL15CLSID_DxcLinker, symObjAddr: 0x15030, symBinAddr: 0x1EB018, symSize: 0x0 }
  - { offset: 0xC3EFC, size: 0x8, addend: 0x0, symName: __ZN15ShaderConductor8Compiler8OptimizeERKNS0_10ResultDescEPKPKcj, symObjAddr: 0x9520, symBinAddr: 0xB870, symSize: 0x570 }
  - { offset: 0xC686E, size: 0x8, addend: 0x0, symName: __Z14FindVariableIDRKNSt3__112basic_stringIcNS_11char_traitsIcEENS_9allocatorIcEEEERN11spirv_cross7TypedIDILNS8_5TypesE0EEERNS8_11SmallVectorINS8_8ResourceELm8EEEPKSF_, symObjAddr: 0x0, symBinAddr: 0x2430, symSize: 0x1B0 }
  - { offset: 0xC6BA2, size: 0x8, addend: 0x0, symName: __ZN15ShaderConductor8Compiler13ConvertBinaryERKNS0_10ResultDescERKNS0_10SourceDescERKNS0_7OptionsERKNS0_10TargetDescE, symObjAddr: 0x1B0, symBinAddr: 0x25E0, symSize: 0x60 }
  - { offset: 0xC6C27, size: 0x8, addend: 0x0, symName: __ZN15ShaderConductor8Compiler10ResultDescC1ERKS1_, symObjAddr: 0x210, symBinAddr: 0x2640, symSize: 0xF0 }
  - { offset: 0xC7549, size: 0x8, addend: 0x0, symName: __ZN15ShaderConductor4Blob5ResetEPKvj, symObjAddr: 0x4810, symBinAddr: 0x6C40, symSize: 0xB0 }
  - { offset: 0xC7B9E, size: 0x8, addend: 0x0, symName: __ZN15ShaderConductor8Compiler10ResultDescC1ERKS1_.cold.1, symObjAddr: 0x130C0, symBinAddr: 0x1D0230, symSize: 0x30 }
  - { offset: 0xCB614, size: 0x8, addend: 0x0, symName: __ZN11spirv_cross12CompilerGLSLC2EPKjm, symObjAddr: 0xB640, symBinAddr: 0xD920, symSize: 0x870 }
  - { offset: 0xCE300, size: 0x8, addend: 0x0, symName: __ZNSt3__13mapIjiNS_4lessIjEENS_9allocatorINS_4pairIKjiEEEEE6insertB8ne180100INS_20__map_const_iteratorINS_21__tree_const_iteratorINS_12__value_typeIjiEEPNS_11__tree_nodeISD_PvEElEEEEEEvT_SK_, symObjAddr: 0xF770, symBinAddr: 0x11880, symSize: 0xF0 }
  - { offset: 0xCE348, size: 0x8, addend: 0x0, symName: __ZNSt3__13mapIjiNS_4lessIjEENS_9allocatorINS_4pairIKjiEEEEE6insertB8ne180100INS_20__map_const_iteratorINS_21__tree_const_iteratorINS_12__value_typeIjiEEPNS_11__tree_nodeISD_PvEElEEEEEEvT_SK_, symObjAddr: 0xF770, symBinAddr: 0x11880, symSize: 0xF0 }
  - { offset: 0xCE6D8, size: 0x8, addend: 0x0, symName: __ZNSt3__16__treeINS_12basic_stringIcNS_11char_traitsIcEENS_9allocatorIcEEEENS_4lessIS6_EENS4_IS6_EEE30__emplace_hint_unique_key_argsIS6_JRKS6_EEENS_4pairINS_15__tree_iteratorIS6_PNS_11__tree_nodeIS6_PvEElEEbEENS_21__tree_const_iteratorIS6_SJ_lEERKT_DpOT0_, symObjAddr: 0xFB70, symBinAddr: 0x11C80, symSize: 0xD0 }
  - { offset: 0xCEB22, size: 0x8, addend: 0x0, symName: __ZL21ParseSpirvCrossOptionRKN15ShaderConductor11MacroDefineEPKcRb, symObjAddr: 0xD450, symBinAddr: 0xF560, symSize: 0x110 }
  - { offset: 0xCF2A8, size: 0x8, addend: 0x0, symName: __ZL21ParseSpirvCrossOptionRKN15ShaderConductor11MacroDefineEPKcRj, symObjAddr: 0xD560, symBinAddr: 0xF670, symSize: 0x110 }
  - { offset: 0xCFD02, size: 0x8, addend: 0x0, symName: __ZNKSt3__112basic_stringIcNS_11char_traitsIcEENS_9allocatorIcEEE6substrB8ne180100Emm, symObjAddr: 0xD7E0, symBinAddr: 0xF8F0, symSize: 0xF0 }
  - { offset: 0xD029E, size: 0x8, addend: 0x0, symName: __ZNSt3__13setINS_12basic_stringIcNS_11char_traitsIcEENS_9allocatorIcEEEENS_4lessIS6_EENS4_IS6_EEE6insertB8ne180100EOS6_, symObjAddr: 0x10060, symBinAddr: 0x12170, symSize: 0xB0 }
  - { offset: 0xD0553, size: 0x8, addend: 0x0, symName: __ZNSt3__13mapIjiNS_4lessIjEENS_9allocatorINS_4pairIKjiEEEEEixEOj, symObjAddr: 0x10110, symBinAddr: 0x12220, symSize: 0xC0 }
  - { offset: 0xD080F, size: 0x8, addend: 0x0, symName: __ZNSt3__16__treeINS_12__value_typeIjiEENS_19__map_value_compareIjS2_NS_4lessIjEELb1EEENS_9allocatorIS2_EEE14__assign_multiINS_21__tree_const_iteratorIS2_PNS_11__tree_nodeIS2_PvEElEEEEvT_SH_, symObjAddr: 0x101D0, symBinAddr: 0x122E0, symSize: 0x340 }
  - { offset: 0xD0F76, size: 0x8, addend: 0x0, symName: __ZNSt3__16__treeINS_12basic_stringIcNS_11char_traitsIcEENS_9allocatorIcEEEENS_4lessIS6_EENS4_IS6_EEE14__assign_multiINS_21__tree_const_iteratorIS6_PNS_11__tree_nodeIS6_PvEElEEEEvT_SI_, symObjAddr: 0x10510, symBinAddr: 0x12620, symSize: 0x280 }
  - { offset: 0xD13A7, size: 0x8, addend: 0x0, symName: __ZNSt3__16__treeINS_12basic_stringIcNS_11char_traitsIcEENS_9allocatorIcEEEENS_4lessIS6_EENS4_IS6_EEE7destroyEPNS_11__tree_nodeIS6_PvEE, symObjAddr: 0x10010, symBinAddr: 0x12120, symSize: 0x50 }
  - { offset: 0xD1659, size: 0x8, addend: 0x0, symName: __ZNSt3__16__treeINS_12__value_typeIjiEENS_19__map_value_compareIjS2_NS_4lessIjEELb1EEENS_9allocatorIS2_EEE7destroyEPNS_11__tree_nodeIS2_PvEE, symObjAddr: 0xFB30, symBinAddr: 0x11C40, symSize: 0x40 }
  - { offset: 0xD17BB, size: 0x8, addend: 0x0, symName: __ZNSt3__118basic_stringstreamIcNS_11char_traitsIcEENS_9allocatorIcEEEC1B8ne180100ERKNS_12basic_stringIcS2_S4_EEj, symObjAddr: 0xAC70, symBinAddr: 0xCFC0, symSize: 0x130 }
  - { offset: 0xD1A2B, size: 0x8, addend: 0x0, symName: __ZNSt3__16vectorINS_12basic_stringIcNS_11char_traitsIcEENS_9allocatorIcEEEENS4_IS6_EEE21__push_back_slow_pathIRKS6_EEPS6_OT_, symObjAddr: 0xE510, symBinAddr: 0x10620, symSize: 0x1F0 }
  - { offset: 0xD21E9, size: 0x8, addend: 0x0, symName: __ZL10pls_formatPKc, symObjAddr: 0xD670, symBinAddr: 0xF780, symSize: 0x170 }
  - { offset: 0xD2321, size: 0x8, addend: 0x0, symName: __ZNSt3__16vectorI6PLSArgNS_9allocatorIS1_EEE21__push_back_slow_pathIS1_EEPS1_OT_, symObjAddr: 0xD910, symBinAddr: 0xFA20, symSize: 0x190 }
  - { offset: 0xD2A7A, size: 0x8, addend: 0x0, symName: __ZNSt3__16vectorI11PLSInOutArgNS_9allocatorIS1_EEE21__push_back_slow_pathIS1_EEPS1_OT_, symObjAddr: 0xDB40, symBinAddr: 0xFC50, symSize: 0x1E0 }
  - { offset: 0xD33C7, size: 0x8, addend: 0x0, symName: __ZNSt3__16vectorI5RemapNS_9allocatorIS1_EEE21__push_back_slow_pathIS1_EEPS1_OT_, symObjAddr: 0xE770, symBinAddr: 0x10880, symSize: 0x1E0 }
  - { offset: 0xD3CC7, size: 0x8, addend: 0x0, symName: __ZL13remap_genericRN11spirv_cross8CompilerERKNS_11SmallVectorINS_8ResourceELm8EEERK5Remap, symObjAddr: 0xE960, symBinAddr: 0x10A70, symSize: 0x110 }
  - { offset: 0xD3FE4, size: 0x8, addend: 0x0, symName: __ZN11spirv_cross15ShaderResourcesD2Ev, symObjAddr: 0xEA70, symBinAddr: 0x10B80, symSize: 0x710 }
  - { offset: 0xD627C, size: 0x8, addend: 0x0, symName: __ZL9remap_plsRKNSt3__16vectorI6PLSArgNS_9allocatorIS1_EEEERN11spirv_cross11SmallVectorINS7_8ResourceELm8EEEPKSA_, symObjAddr: 0xB030, symBinAddr: 0xD310, symSize: 0x160 }
  - { offset: 0xD6951, size: 0x8, addend: 0x0, symName: __ZNSt3__16vectorIN11spirv_cross13PlsInOutRemapENS_9allocatorIS2_EEE21__push_back_slow_pathIS2_EEPS2_OT_, symObjAddr: 0xF370, symBinAddr: 0x11480, symSize: 0x200 }
  - { offset: 0xD72A7, size: 0x8, addend: 0x0, symName: __ZN11spirv_cross12CompilerGLSL25remap_pixel_local_storageENSt3__16vectorINS_8PlsRemapENS1_9allocatorIS3_EEEES6_NS2_INS_13PlsInOutRemapENS4_IS7_EEEE, symObjAddr: 0xB190, symBinAddr: 0xD470, symSize: 0x200 }
  - { offset: 0xD7E16, size: 0x8, addend: 0x0, symName: __ZNKSt3__112basic_stringIcNS_11char_traitsIcEENS_9allocatorIcEEE20__throw_length_errorB8ne180100Ev, symObjAddr: 0xD380, symBinAddr: 0xF490, symSize: 0x10 }
  - { offset: 0xD7E40, size: 0x8, addend: 0x0, symName: __ZNSt3__120__throw_length_errorB8ne180100EPKc, symObjAddr: 0xD390, symBinAddr: 0xF4A0, symSize: 0x50 }
  - { offset: 0xD7E4B, size: 0x8, addend: 0x0, symName: __ZNKSt3__112basic_stringIcNS_11char_traitsIcEENS_9allocatorIcEEE20__throw_out_of_rangeB8ne180100Ev, symObjAddr: 0xDAB0, symBinAddr: 0xFBC0, symSize: 0x10 }
  - { offset: 0xD7E75, size: 0x8, addend: 0x0, symName: __ZNSt3__120__throw_out_of_rangeB8ne180100EPKc, symObjAddr: 0xDAC0, symBinAddr: 0xFBD0, symSize: 0x50 }
  - { offset: 0xD7E80, size: 0x8, addend: 0x0, symName: __ZNKSt3__16vectorI6FBFArgNS_9allocatorIS1_EEE20__throw_length_errorB8ne180100Ev, symObjAddr: 0xDD30, symBinAddr: 0xFE40, symSize: 0x10 }
  - { offset: 0xD7EAA, size: 0x8, addend: 0x0, symName: __ZNSt3__118basic_stringstreamIcNS_11char_traitsIcEENS_9allocatorIcEEED0Ev, symObjAddr: 0xDD40, symBinAddr: 0xFE50, symSize: 0x90 }
  - { offset: 0xD7EB5, size: 0x8, addend: 0x0, symName: __ZN5RemapD1Ev, symObjAddr: 0xAEF0, symBinAddr: 0xD240, symSize: 0x40 }
  - { offset: 0xD8125, size: 0x8, addend: 0x0, symName: __ZN11PLSInOutArgD1Ev, symObjAddr: 0xD8D0, symBinAddr: 0xF9E0, symSize: 0x40 }
  - { offset: 0xD838E, size: 0x8, addend: 0x0, symName: __ZNSt3__118basic_stringstreamIcNS_11char_traitsIcEENS_9allocatorIcEEED1Ev, symObjAddr: 0xAF30, symBinAddr: 0xD280, symSize: 0x90 }
  - { offset: 0xD86A2, size: 0x8, addend: 0x0, symName: __ZNSt3__16vectorIN11spirv_cross13PlsInOutRemapENS_9allocatorIS2_EEED1B8ne180100Ev, symObjAddr: 0xB390, symBinAddr: 0xD670, symSize: 0x80 }
  - { offset: 0xD8ABC, size: 0x8, addend: 0x0, symName: __ZNSt3__16vectorIN11spirv_cross8PlsRemapENS_9allocatorIS2_EEED1B8ne180100Ev, symObjAddr: 0xB410, symBinAddr: 0xD6F0, symSize: 0x70 }
  - { offset: 0xD8D9E, size: 0x8, addend: 0x0, symName: __ZNSt3__16vectorI5RemapNS_9allocatorIS1_EEED1B8ne180100Ev, symObjAddr: 0xB5C0, symBinAddr: 0xD8A0, symSize: 0x80 }
  - { offset: 0xD9193, size: 0x8, addend: 0x0, symName: __ZN11spirv_cross13PlsInOutRemapD1Ev, symObjAddr: 0xF330, symBinAddr: 0x11440, symSize: 0x40 }
  - { offset: 0xD93FC, size: 0x8, addend: 0x0, symName: __ZNSt3__113unordered_setIN11spirv_cross7TypedIDILNS1_5TypesE2EEENS_4hashIS4_EENS_8equal_toIS4_EENS_9allocatorIS4_EEED1B8ne180100Ev, symObjAddr: 0xAC20, symBinAddr: 0xCF70, symSize: 0x50 }
  - { offset: 0xD96EF, size: 0x8, addend: 0x0, symName: __ZN11spirv_cross11CompilerMSL7OptionsD1Ev, symObjAddr: 0xB570, symBinAddr: 0xD850, symSize: 0x40 }
  - { offset: 0xD9864, size: 0x8, addend: 0x0, symName: __ZNSt3__16vectorI11PLSInOutArgNS_9allocatorIS1_EEED1B8ne180100Ev, symObjAddr: 0xB480, symBinAddr: 0xD760, symSize: 0x80 }
  - { offset: 0xD9C7E, size: 0x8, addend: 0x0, symName: __ZNSt3__16vectorI6PLSArgNS_9allocatorIS1_EEED1B8ne180100Ev, symObjAddr: 0xB500, symBinAddr: 0xD7E0, symSize: 0x70 }
  - { offset: 0xD9F60, size: 0x8, addend: 0x0, symName: __ZN15ShaderConductor8Compiler10ResultDescD1Ev, symObjAddr: 0x5AD0, symBinAddr: 0x7F00, symSize: 0x80 }
  - { offset: 0xDA550, size: 0x8, addend: 0x0, symName: __ZN15ShaderConductor4BlobC2Ev, symObjAddr: 0x47D0, symBinAddr: 0x6C00, symSize: 0x10 }
  - { offset: 0xDA571, size: 0x8, addend: 0x0, symName: __ZN15ShaderConductor4BlobC1Ev, symObjAddr: 0x47E0, symBinAddr: 0x6C10, symSize: 0x10 }
  - { offset: 0xDA5B1, size: 0x8, addend: 0x0, symName: __ZN15ShaderConductor4BlobC2EPKvj, symObjAddr: 0x47F0, symBinAddr: 0x6C20, symSize: 0x20 }
  - { offset: 0xDA945, size: 0x8, addend: 0x0, symName: __ZN15ShaderConductor4BlobC1EPKvj, symObjAddr: 0x48C0, symBinAddr: 0x6CF0, symSize: 0x20 }
  - { offset: 0xDA9CC, size: 0x8, addend: 0x0, symName: __ZN15ShaderConductor4BlobC2ERKS0_, symObjAddr: 0x48E0, symBinAddr: 0x6D10, symSize: 0x30 }
  - { offset: 0xDAAD2, size: 0x8, addend: 0x0, symName: __ZNK15ShaderConductor4Blob4DataEv, symObjAddr: 0x4910, symBinAddr: 0x6D40, symSize: 0x20 }
  - { offset: 0xDAB31, size: 0x8, addend: 0x0, symName: __ZNK15ShaderConductor4Blob4SizeEv, symObjAddr: 0x4930, symBinAddr: 0x6D60, symSize: 0x20 }
  - { offset: 0xDAB90, size: 0x8, addend: 0x0, symName: __ZN15ShaderConductor4BlobC1ERKS0_, symObjAddr: 0x4950, symBinAddr: 0x6D80, symSize: 0x30 }
  - { offset: 0xDACBF, size: 0x8, addend: 0x0, symName: __ZN15ShaderConductor4BlobC2EOS0_, symObjAddr: 0x4980, symBinAddr: 0x6DB0, symSize: 0x20 }
  - { offset: 0xDAD12, size: 0x8, addend: 0x0, symName: __ZN15ShaderConductor4BlobC1EOS0_, symObjAddr: 0x49A0, symBinAddr: 0x6DD0, symSize: 0x20 }
  - { offset: 0xDAD74, size: 0x8, addend: 0x0, symName: __ZN15ShaderConductor4BlobD2Ev, symObjAddr: 0x49C0, symBinAddr: 0x6DF0, symSize: 0x40 }
  - { offset: 0xDAF25, size: 0x8, addend: 0x0, symName: __ZN15ShaderConductor4BlobD1Ev, symObjAddr: 0x4A00, symBinAddr: 0x6E30, symSize: 0x40 }
  - { offset: 0xDB0F7, size: 0x8, addend: 0x0, symName: __ZN15ShaderConductor4BlobaSERKS0_, symObjAddr: 0x4A40, symBinAddr: 0x6E70, symSize: 0x40 }
  - { offset: 0xDB1EC, size: 0x8, addend: 0x0, symName: __ZN15ShaderConductor4BlobaSEOS0_, symObjAddr: 0x4A80, symBinAddr: 0x6EB0, symSize: 0x20 }
  - { offset: 0xDB217, size: 0x8, addend: 0x0, symName: __ZN15ShaderConductor4Blob5ResetEv, symObjAddr: 0x4AA0, symBinAddr: 0x6ED0, symSize: 0x40 }
  - { offset: 0xDB3C8, size: 0x8, addend: 0x0, symName: __ZN15ShaderConductor8Compiler7CompileERKNS0_10SourceDescERKNS0_7OptionsERKNS0_10TargetDescE, symObjAddr: 0x4AE0, symBinAddr: 0x6F10, symSize: 0x60 }
  - { offset: 0xDB569, size: 0x8, addend: 0x0, symName: __ZN15ShaderConductor8Compiler7CompileERKNS0_10SourceDescERKNS0_7OptionsEPKNS0_10TargetDescEjPNS0_10ResultDescE, symObjAddr: 0x4B40, symBinAddr: 0x6F70, symSize: 0xF90 }
  - { offset: 0xE1AD0, size: 0x8, addend: 0x0, symName: __ZNSt3__110__function12__value_funcIFN15ShaderConductor4BlobEPKcEE4swapB8ne180100ERS7_, symObjAddr: 0x12EB0, symBinAddr: 0x14D70, symSize: 0x120 }
  - { offset: 0xE1FB4, size: 0x8, addend: 0x0, symName: __ZNSt3__113basic_filebufIcNS_11char_traitsIcEEEC2Ev, symObjAddr: 0x10BF0, symBinAddr: 0x12D00, symSize: 0x100 }
  - { offset: 0xE20C0, size: 0x8, addend: 0x0, symName: __ZNSt3__16vectorIcNS_9allocatorIcEEE8__appendEm, symObjAddr: 0x11A40, symBinAddr: 0x13B50, symSize: 0x270 }
  - { offset: 0xE2739, size: 0x8, addend: 0x0, symName: __ZNSt3__113basic_filebufIcNS_11char_traitsIcEEED2Ev, symObjAddr: 0x11990, symBinAddr: 0x13AA0, symSize: 0xB0 }
  - { offset: 0xE2856, size: 0x8, addend: 0x0, symName: __ZNSt3__114basic_ifstreamIcNS_11char_traitsIcEEED1Ev, symObjAddr: 0x10A40, symBinAddr: 0x12B50, symSize: 0x60 }
  - { offset: 0xE4904, size: 0x8, addend: 0x0, symName: __ZNSt3__16vectorINS_12basic_stringIwNS_11char_traitsIwEENS_9allocatorIwEEEENS4_IS6_EEE7reserveEm, symObjAddr: 0x11CC0, symBinAddr: 0x13DD0, symSize: 0x150 }
  - { offset: 0xE4E99, size: 0x8, addend: 0x0, symName: __ZNSt3__16vectorINS_12basic_stringIwNS_11char_traitsIwEENS_9allocatorIwEEEENS4_IS6_EEE24__emplace_back_slow_pathIJS6_EEEPS6_DpOT_, symObjAddr: 0x11E80, symBinAddr: 0x13F30, symSize: 0x190 }
  - { offset: 0xE58DB, size: 0x8, addend: 0x0, symName: __ZNSt3__112basic_stringIwNS_11char_traitsIwEENS_9allocatorIwEEE25__init_copy_ctor_externalEPKwm, symObjAddr: 0x123B0, symBinAddr: 0x142D0, symSize: 0xB0 }
  - { offset: 0xE5D0B, size: 0x8, addend: 0x0, symName: __ZNSt3__16vectorINS_12basic_stringIwNS_11char_traitsIwEENS_9allocatorIwEEEENS4_IS6_EEE21__push_back_slow_pathIRKS6_EEPS6_OT_, symObjAddr: 0x121C0, symBinAddr: 0x140E0, symSize: 0x1F0 }
  - { offset: 0xE64C9, size: 0x8, addend: 0x0, symName: __ZNKSt3__16vectorI9DxcDefineNS_9allocatorIS1_EEE20__throw_length_errorB8ne180100Ev, symObjAddr: 0x12010, symBinAddr: 0x140C0, symSize: 0x10 }
  - { offset: 0xE64FE, size: 0x8, addend: 0x0, symName: __ZNKSt3__16vectorIPKwNS_9allocatorIS2_EEE20__throw_length_errorB8ne180100Ev, symObjAddr: 0x12460, symBinAddr: 0x14380, symSize: 0x10 }
  - { offset: 0xE6528, size: 0x8, addend: 0x0, symName: __ZN12_GLOBAL__N_116ScIncludeHandler14QueryInterfaceERK4GUIDPPv, symObjAddr: 0x12470, symBinAddr: 0x14390, symSize: 0xA0 }
  - { offset: 0xE6533, size: 0x8, addend: 0x0, symName: __ZN12_GLOBAL__N_110DxcompilerC1Ev, symObjAddr: 0x12740, symBinAddr: 0x14660, symSize: 0x500 }
  - { offset: 0xE77C5, size: 0x8, addend: 0x0, symName: __ZNSt3__16vectorINS_12basic_stringIwNS_11char_traitsIwEENS_9allocatorIwEEEENS4_IS6_EEED1B8ne180100Ev, symObjAddr: 0xAAB0, symBinAddr: 0xCE00, symSize: 0x70 }
  - { offset: 0xE7AE3, size: 0x8, addend: 0x0, symName: __ZN15ShaderConductor8Compiler11DisassembleERKNS0_15DisassembleDescE, symObjAddr: 0x7F90, symBinAddr: 0xA3C0, symSize: 0x410 }
  - { offset: 0xE8CB9, size: 0x8, addend: 0x0, symName: __ZN15ShaderConductor8Compiler7RewriteENS0_10SourceDescERKNS0_7OptionsE, symObjAddr: 0x8480, symBinAddr: 0xA7D0, symSize: 0x10A0 }
  - { offset: 0xEE40B, size: 0x8, addend: 0x0, symName: __ZN15ShaderConductor8Compiler11LinkSupportEv, symObjAddr: 0x9A90, symBinAddr: 0xBDE0, symSize: 0x80 }
  - { offset: 0xEE88D, size: 0x8, addend: 0x0, symName: __ZN15ShaderConductor8Compiler4LinkERKNS0_8LinkDescERKNS0_7OptionsERKNS0_10TargetDescE, symObjAddr: 0x9B10, symBinAddr: 0xBE60, symSize: 0x980 }
  - { offset: 0xF0E44, size: 0x8, addend: 0x0, symName: __ZNSt3__16vectorINS_12basic_stringIwNS_11char_traitsIwEENS_9allocatorIwEEEENS4_IS6_EEEC1Em, symObjAddr: 0xA490, symBinAddr: 0xC7E0, symSize: 0xD0 }
  - { offset: 0xF1110, size: 0x8, addend: 0x0, symName: __ZNSt3__16vectorI7CComPtrI16IDxcBlobEncodingENS_9allocatorIS3_EEEC1Em, symObjAddr: 0xA560, symBinAddr: 0xC8B0, symSize: 0xD0 }
  - { offset: 0xF14CD, size: 0x8, addend: 0x0, symName: __ZNSt3__16vectorI7CComPtrI16IDxcBlobEncodingENS_9allocatorIS3_EEED1B8ne180100Ev, symObjAddr: 0xAA30, symBinAddr: 0xCD80, symSize: 0x80 }
  - { offset: 0xF17DC, size: 0x8, addend: 0x0, symName: __ZNKSt3__16vectorINS_12basic_stringIwNS_11char_traitsIwEENS_9allocatorIwEEEENS4_IS6_EEE20__throw_length_errorB8ne180100Ev, symObjAddr: 0x11E10, symBinAddr: 0x13F20, symSize: 0x10 }
  - { offset: 0xF1811, size: 0x8, addend: 0x0, symName: __ZNSt3__16vectorINS_12basic_stringIwNS_11char_traitsIwEENS_9allocatorIwEEEENS4_IS6_EEEC1Em.cold.1, symObjAddr: 0x130F0, symBinAddr: 0x1D0260, symSize: 0x50 }
  - { offset: 0xF1C27, size: 0x8, addend: 0x0, symName: __ZNKSt3__16vectorI7CComPtrI16IDxcBlobEncodingENS_9allocatorIS3_EEE20__throw_length_errorB8ne180100Ev, symObjAddr: 0x130B0, symBinAddr: 0x14F70, symSize: 0x10 }
  - { offset: 0xF1C51, size: 0x8, addend: 0x0, symName: __ZN15ShaderConductor8Compiler10ResultDescC1ERKS1_.cold.1, symObjAddr: 0x130C0, symBinAddr: 0x1D0230, symSize: 0x30 }
  - { offset: 0xF2083, size: 0x8, addend: 0x0, symName: __ZN15ShaderConductor8Compiler8ShutdownEv, symObjAddr: 0xAB20, symBinAddr: 0xCE70, symSize: 0x10 }
  - { offset: 0xF21B7, size: 0x8, addend: 0x0, symName: __ZNSt3__115basic_stringbufIcNS_11char_traitsIcEENS_9allocatorIcEEE15__init_buf_ptrsB8ne180100Ev, symObjAddr: 0xE400, symBinAddr: 0x10510, symSize: 0x110 }
  - { offset: 0xF276B, size: 0x8, addend: 0x0, symName: __ZNSt3__16vectorIN11spirv_cross8PlsRemapENS_9allocatorIS2_EEE21__push_back_slow_pathIS2_EEPS2_OT_, symObjAddr: 0xF180, symBinAddr: 0x11290, symSize: 0x1A0 }
  - { offset: 0xF42EB, size: 0x8, addend: 0x0, symName: __ZNSt3__113unordered_mapIjN11spirv_cross11SmallVectorINS1_7TypedIDILNS1_5TypesE3EEELm8EEENS_4hashIjEENS_8equal_toIjEENS_9allocatorINS_4pairIKjS6_EEEEED1B8ne180100Ev, symObjAddr: 0xBEB0, symBinAddr: 0xE190, symSize: 0x80 }
  - { offset: 0xF4B88, size: 0x8, addend: 0x0, symName: __ZN11spirv_cross11SmallVectorINSt3__112basic_stringIcNS1_11char_traitsIcEENS1_9allocatorIcEEEELm8EED1Ev, symObjAddr: 0xC020, symBinAddr: 0xE210, symSize: 0x80 }
  - { offset: 0xF4EF0, size: 0x8, addend: 0x0, symName: __ZN11spirv_cross12CompilerGLSL17BackendVariationsD1Ev, symObjAddr: 0xC0F0, symBinAddr: 0xE290, symSize: 0x50 }
  - { offset: 0xF524E, size: 0x8, addend: 0x0, symName: __ZNSt3__113unordered_mapIjNS_12basic_stringIcNS_11char_traitsIcEENS_9allocatorIcEEEENS_4hashIjEENS_8equal_toIjEENS4_INS_4pairIKjS6_EEEEED1B8ne180100Ev, symObjAddr: 0xC140, symBinAddr: 0xE2E0, symSize: 0x70 }
  - { offset: 0xF56BE, size: 0x8, addend: 0x0, symName: __ZNSt3__112__hash_tableINS_17__hash_value_typeINS_12basic_stringIcNS_11char_traitsIcEENS_9allocatorIcEEEENS_13unordered_setIyNS_4hashIyEENS_8equal_toIyEENS5_IyEEEEEENS_22__unordered_map_hasherIS7_SF_NS9_IS7_EENSB_IS7_EELb1EEENS_21__unordered_map_equalIS7_SF_SI_SH_Lb1EEENS5_ISF_EEED2Ev, symObjAddr: 0xC7E0, symBinAddr: 0xE980, symSize: 0xB0 }
  - { offset: 0xF5E2C, size: 0x8, addend: 0x0, symName: __ZNSt3__113unordered_setINS_12basic_stringIcNS_11char_traitsIcEENS_9allocatorIcEEEENS_4hashIS6_EENS_8equal_toIS6_EENS4_IS6_EEED1B8ne180100Ev, symObjAddr: 0xC1B0, symBinAddr: 0xE350, symSize: 0x70 }
  - { offset: 0xF6264, size: 0x8, addend: 0x0, symName: __ZN11spirv_cross12StringStreamILm4096ELm4096EED1Ev, symObjAddr: 0xC220, symBinAddr: 0xE3C0, symSize: 0xC0 }
  - { offset: 0xF63AF, size: 0x8, addend: 0x0, symName: __ZN11spirv_cross8CompilerD2Ev, symObjAddr: 0xC2E0, symBinAddr: 0xE480, symSize: 0x500 }
  - { offset: 0xFAD5A, size: 0x8, addend: 0x0, symName: __ZN11spirv_cross3CFGD2Ev, symObjAddr: 0xC890, symBinAddr: 0xEA30, symSize: 0x180 }
  - { offset: 0xFBC29, size: 0x8, addend: 0x0, symName: __ZN11spirv_cross8ParsedIRD2Ev, symObjAddr: 0xCA10, symBinAddr: 0xEBB0, symSize: 0x550 }
  - { offset: 0xFED3A, size: 0x8, addend: 0x0, symName: __ZN11spirv_cross15ObjectPoolGroupD2Ev, symObjAddr: 0xD190, symBinAddr: 0xF330, symSize: 0x160 }
  - { offset: 0xFF06F, size: 0x8, addend: 0x0, symName: __ZN11spirv_cross4Meta10DecorationD2Ev, symObjAddr: 0xD0B0, symBinAddr: 0xF250, symSize: 0xE0 }
  - { offset: 0xFFCA4, size: 0x8, addend: 0x0, symName: __ZNSt12length_errorC1B8ne180100EPKc, symObjAddr: 0xD3E0, symBinAddr: 0xF4F0, symSize: 0x30 }
  - { offset: 0xFFF71, size: 0x8, addend: 0x0, symName: __ZNKSt3__16vectorI6PLSArgNS_9allocatorIS1_EEE20__throw_length_errorB8ne180100Ev, symObjAddr: 0xDAA0, symBinAddr: 0xFBB0, symSize: 0x10 }
  - { offset: 0xFFF9B, size: 0x8, addend: 0x0, symName: __ZNKSt3__112basic_stringIcNS_11char_traitsIcEENS_9allocatorIcEEE20__throw_out_of_rangeB8ne180100Ev, symObjAddr: 0xDAB0, symBinAddr: 0xFBC0, symSize: 0x10 }
  - { offset: 0xFFFA6, size: 0x8, addend: 0x0, symName: __ZNSt12out_of_rangeC1B8ne180100EPKc, symObjAddr: 0xDB10, symBinAddr: 0xFC20, symSize: 0x30 }
  - { offset: 0x100273, size: 0x8, addend: 0x0, symName: __ZNKSt3__16vectorI11PLSInOutArgNS_9allocatorIS1_EEE20__throw_length_errorB8ne180100Ev, symObjAddr: 0xDD20, symBinAddr: 0xFE30, symSize: 0x10 }
  - { offset: 0x10029D, size: 0x8, addend: 0x0, symName: __ZNKSt3__16vectorI6FBFArgNS_9allocatorIS1_EEE20__throw_length_errorB8ne180100Ev, symObjAddr: 0xDD30, symBinAddr: 0xFE40, symSize: 0x10 }
  - { offset: 0x1002A8, size: 0x8, addend: 0x0, symName: __ZNSt3__118basic_stringstreamIcNS_11char_traitsIcEENS_9allocatorIcEEED0Ev, symObjAddr: 0xDD40, symBinAddr: 0xFE50, symSize: 0x90 }
  - { offset: 0x10046B, size: 0x8, addend: 0x0, symName: __ZThn16_NSt3__118basic_stringstreamIcNS_11char_traitsIcEENS_9allocatorIcEEED1Ev, symObjAddr: 0xDDD0, symBinAddr: 0xFEE0, symSize: 0x80 }
  - { offset: 0x100631, size: 0x8, addend: 0x0, symName: __ZThn16_NSt3__118basic_stringstreamIcNS_11char_traitsIcEENS_9allocatorIcEEED0Ev, symObjAddr: 0xDE50, symBinAddr: 0xFF60, symSize: 0x90 }
  - { offset: 0x1007F9, size: 0x8, addend: 0x0, symName: __ZTv0_n24_NSt3__118basic_stringstreamIcNS_11char_traitsIcEENS_9allocatorIcEEED1Ev, symObjAddr: 0xDEE0, symBinAddr: 0xFFF0, symSize: 0xA0 }
  - { offset: 0x1009B1, size: 0x8, addend: 0x0, symName: __ZTv0_n24_NSt3__118basic_stringstreamIcNS_11char_traitsIcEENS_9allocatorIcEEED0Ev, symObjAddr: 0xDF80, symBinAddr: 0x10090, symSize: 0xB0 }
  - { offset: 0x100B87, size: 0x8, addend: 0x0, symName: __ZNSt3__115basic_stringbufIcNS_11char_traitsIcEENS_9allocatorIcEEED1Ev, symObjAddr: 0xE030, symBinAddr: 0x10140, symSize: 0x40 }
  - { offset: 0x100CF2, size: 0x8, addend: 0x0, symName: __ZNSt3__115basic_stringbufIcNS_11char_traitsIcEENS_9allocatorIcEEED0Ev, symObjAddr: 0xE070, symBinAddr: 0x10180, symSize: 0x40 }
  - { offset: 0x100F61, size: 0x8, addend: 0x0, symName: __ZNSt3__115basic_stringbufIcNS_11char_traitsIcEENS_9allocatorIcEEE7seekoffExNS_8ios_base7seekdirEj, symObjAddr: 0xE0B0, symBinAddr: 0x101C0, symSize: 0x120 }
  - { offset: 0x10112B, size: 0x8, addend: 0x0, symName: __ZNSt3__115basic_stringbufIcNS_11char_traitsIcEENS_9allocatorIcEEE7seekposENS_4fposI11__mbstate_tEEj, symObjAddr: 0xE1D0, symBinAddr: 0x102E0, symSize: 0x30 }
  - { offset: 0x1011D4, size: 0x8, addend: 0x0, symName: __ZNSt3__115basic_stringbufIcNS_11char_traitsIcEENS_9allocatorIcEEE9underflowEv, symObjAddr: 0xE200, symBinAddr: 0x10310, symSize: 0x50 }
  - { offset: 0x10127F, size: 0x8, addend: 0x0, symName: __ZNSt3__115basic_stringbufIcNS_11char_traitsIcEENS_9allocatorIcEEE9pbackfailEi, symObjAddr: 0xE250, symBinAddr: 0x10360, symSize: 0x60 }
  - { offset: 0x1014C5, size: 0x8, addend: 0x0, symName: __ZNSt3__115basic_stringbufIcNS_11char_traitsIcEENS_9allocatorIcEEE8overflowEi, symObjAddr: 0xE2B0, symBinAddr: 0x103C0, symSize: 0x150 }
  - { offset: 0x101CD9, size: 0x8, addend: 0x0, symName: __ZNKSt3__16vectorINS_12basic_stringIcNS_11char_traitsIcEENS_9allocatorIcEEEENS4_IS6_EEE20__throw_length_errorB8ne180100Ev, symObjAddr: 0xE760, symBinAddr: 0x10870, symSize: 0x10 }
  - { offset: 0x101D03, size: 0x8, addend: 0x0, symName: __ZNSt3__16vectorI5RemapNS_9allocatorIS1_EEE21__push_back_slow_pathIS1_EEPS1_OT_, symObjAddr: 0xE770, symBinAddr: 0x10880, symSize: 0x1E0 }
  - { offset: 0x101D0E, size: 0x8, addend: 0x0, symName: __ZNSt3__114__split_bufferINS_12basic_stringIcNS_11char_traitsIcEENS_9allocatorIcEEEERNS4_IS6_EEED1Ev, symObjAddr: 0xE700, symBinAddr: 0x10810, symSize: 0x60 }
  - { offset: 0x1021E0, size: 0x8, addend: 0x0, symName: __ZNKSt3__16vectorI5RemapNS_9allocatorIS1_EEE20__throw_length_errorB8ne180100Ev, symObjAddr: 0xE950, symBinAddr: 0x10A60, symSize: 0x10 }
  - { offset: 0x10220A, size: 0x8, addend: 0x0, symName: __ZL13remap_genericRN11spirv_cross8CompilerERKNS_11SmallVectorINS_8ResourceELm8EEERK5Remap, symObjAddr: 0xE960, symBinAddr: 0x10A70, symSize: 0x110 }
  - { offset: 0x10262F, size: 0x8, addend: 0x0, symName: __ZNKSt3__16vectorIN11spirv_cross8PlsRemapENS_9allocatorIS2_EEE20__throw_length_errorB8ne180100Ev, symObjAddr: 0xF320, symBinAddr: 0x11430, symSize: 0x10 }
  - { offset: 0x102659, size: 0x8, addend: 0x0, symName: __ZN11spirv_cross13PlsInOutRemapD1Ev, symObjAddr: 0xF330, symBinAddr: 0x11440, symSize: 0x40 }
  - { offset: 0x10288D, size: 0x8, addend: 0x0, symName: __ZNKSt3__16vectorIN11spirv_cross13PlsInOutRemapENS_9allocatorIS2_EEE20__throw_length_errorB8ne180100Ev, symObjAddr: 0xF570, symBinAddr: 0x11680, symSize: 0x10 }
  - { offset: 0x1028B7, size: 0x8, addend: 0x0, symName: '__ZNSt3__110__function6__funcIZN12_GLOBAL__N_112CrossCompileERKN15ShaderConductor8Compiler10ResultDescERKNS4_10SourceDescERKNS4_7OptionsERKNS4_10TargetDescEE3$_0NS_9allocatorISH_EEFvRKN11spirv_cross8SPIRTypeERKNS_12basic_stringIcNS_11char_traitsIcEENSI_IcEEEERSS_EED1Ev', symObjAddr: 0xF580, symBinAddr: 0x11690, symSize: 0x10 }
  - { offset: 0x1028C2, size: 0x8, addend: 0x0, symName: '__ZNSt3__110__function6__funcIZN12_GLOBAL__N_112CrossCompileERKN15ShaderConductor8Compiler10ResultDescERKNS4_10SourceDescERKNS4_7OptionsERKNS4_10TargetDescEE3$_0NS_9allocatorISH_EEFvRKN11spirv_cross8SPIRTypeERKNS_12basic_stringIcNS_11char_traitsIcEENSI_IcEEEERSS_EED1Ev', symObjAddr: 0xF580, symBinAddr: 0x11690, symSize: 0x10 }
  - { offset: 0x1028EB, size: 0x8, addend: 0x0, symName: '__ZNSt3__110__function6__funcIZN12_GLOBAL__N_112CrossCompileERKN15ShaderConductor8Compiler10ResultDescERKNS4_10SourceDescERKNS4_7OptionsERKNS4_10TargetDescEE3$_0NS_9allocatorISH_EEFvRKN11spirv_cross8SPIRTypeERKNS_12basic_stringIcNS_11char_traitsIcEENSI_IcEEEERSS_EED0Ev', symObjAddr: 0xF590, symBinAddr: 0x116A0, symSize: 0x10 }
  - { offset: 0x102AFE, size: 0x8, addend: 0x0, symName: '__ZNKSt3__110__function6__funcIZN12_GLOBAL__N_112CrossCompileERKN15ShaderConductor8Compiler10ResultDescERKNS4_10SourceDescERKNS4_7OptionsERKNS4_10TargetDescEE3$_0NS_9allocatorISH_EEFvRKN11spirv_cross8SPIRTypeERKNS_12basic_stringIcNS_11char_traitsIcEENSI_IcEEEERSS_EE7__cloneEv', symObjAddr: 0xF5A0, symBinAddr: 0x116B0, symSize: 0x30 }
  - { offset: 0x102E4A, size: 0x8, addend: 0x0, symName: '__ZNKSt3__110__function6__funcIZN12_GLOBAL__N_112CrossCompileERKN15ShaderConductor8Compiler10ResultDescERKNS4_10SourceDescERKNS4_7OptionsERKNS4_10TargetDescEE3$_0NS_9allocatorISH_EEFvRKN11spirv_cross8SPIRTypeERKNS_12basic_stringIcNS_11char_traitsIcEENSI_IcEEEERSS_EE7__cloneEPNS0_6__baseISW_EE', symObjAddr: 0xF5D0, symBinAddr: 0x116E0, symSize: 0x20 }
  - { offset: 0x102FE1, size: 0x8, addend: 0x0, symName: '__ZNSt3__110__function6__funcIZN12_GLOBAL__N_112CrossCompileERKN15ShaderConductor8Compiler10ResultDescERKNS4_10SourceDescERKNS4_7OptionsERKNS4_10TargetDescEE3$_0NS_9allocatorISH_EEFvRKN11spirv_cross8SPIRTypeERKNS_12basic_stringIcNS_11char_traitsIcEENSI_IcEEEERSS_EE7destroyEv', symObjAddr: 0xF5F0, symBinAddr: 0x11700, symSize: 0x10 }
  - { offset: 0x103034, size: 0x8, addend: 0x0, symName: '__ZNSt3__110__function6__funcIZN12_GLOBAL__N_112CrossCompileERKN15ShaderConductor8Compiler10ResultDescERKNS4_10SourceDescERKNS4_7OptionsERKNS4_10TargetDescEE3$_0NS_9allocatorISH_EEFvRKN11spirv_cross8SPIRTypeERKNS_12basic_stringIcNS_11char_traitsIcEENSI_IcEEEERSS_EE18destroy_deallocateEv', symObjAddr: 0xF600, symBinAddr: 0x11710, symSize: 0x10 }
  - { offset: 0x103277, size: 0x8, addend: 0x0, symName: '__ZNSt3__110__function6__funcIZN12_GLOBAL__N_112CrossCompileERKN15ShaderConductor8Compiler10ResultDescERKNS4_10SourceDescERKNS4_7OptionsERKNS4_10TargetDescEE3$_0NS_9allocatorISH_EEFvRKN11spirv_cross8SPIRTypeERKNS_12basic_stringIcNS_11char_traitsIcEENSI_IcEEEERSS_EEclESN_SU_SV_', symObjAddr: 0xF610, symBinAddr: 0x11720, symSize: 0xC0 }
  - { offset: 0x1037D1, size: 0x8, addend: 0x0, symName: '__ZNSt3__110__function6__funcIZN12_GLOBAL__N_112CrossCompileERKN15ShaderConductor8Compiler10ResultDescERKNS4_10SourceDescERKNS4_7OptionsERKNS4_10TargetDescEE3$_0NS_9allocatorISH_EEFvRKN11spirv_cross8SPIRTypeERKNS_12basic_stringIcNS_11char_traitsIcEENSI_IcEEEERSS_EEclESN_SU_SV_.cold.1', symObjAddr: 0x13140, symBinAddr: 0x1D02B0, symSize: 0x29 }
  - { offset: 0x103A05, size: 0x8, addend: 0x0, symName: '__ZNKSt3__110__function6__funcIZN12_GLOBAL__N_112CrossCompileERKN15ShaderConductor8Compiler10ResultDescERKNS4_10SourceDescERKNS4_7OptionsERKNS4_10TargetDescEE3$_0NS_9allocatorISH_EEFvRKN11spirv_cross8SPIRTypeERKNS_12basic_stringIcNS_11char_traitsIcEENSI_IcEEEERSS_EE6targetERKSt9type_info', symObjAddr: 0xF6D0, symBinAddr: 0x117E0, symSize: 0x20 }
  - { offset: 0x103A7B, size: 0x8, addend: 0x0, symName: '__ZNKSt3__110__function6__funcIZN12_GLOBAL__N_112CrossCompileERKN15ShaderConductor8Compiler10ResultDescERKNS4_10SourceDescERKNS4_7OptionsERKNS4_10TargetDescEE3$_0NS_9allocatorISH_EEFvRKN11spirv_cross8SPIRTypeERKNS_12basic_stringIcNS_11char_traitsIcEENSI_IcEEEERSS_EE11target_typeEv', symObjAddr: 0xF6F0, symBinAddr: 0x11800, symSize: 0x10 }
  - { offset: 0x103B09, size: 0x8, addend: 0x0, symName: __ZNSt3__117bad_function_callD1Ev, symObjAddr: 0xF740, symBinAddr: 0x11850, symSize: 0x10 }
  - { offset: 0x103B62, size: 0x8, addend: 0x0, symName: __ZNSt3__117bad_function_callD0Ev, symObjAddr: 0xF750, symBinAddr: 0x11860, symSize: 0x20 }
  - { offset: 0x103E9D, size: 0x8, addend: 0x0, symName: __ZNSt3__16__treeINS_12__value_typeIjiEENS_19__map_value_compareIjS2_NS_4lessIjEELb1EEENS_9allocatorIS2_EEE12__find_equalIjEERPNS_16__tree_node_baseIPvEENS_21__tree_const_iteratorIS2_PNS_11__tree_nodeIS2_SC_EElEERPNS_15__tree_end_nodeISE_EESF_RKT_, symObjAddr: 0xF860, symBinAddr: 0x11970, symSize: 0x170 }
  - { offset: 0x1046FB, size: 0x8, addend: 0x0, symName: __ZNSt3__16__treeINS_12basic_stringIcNS_11char_traitsIcEENS_9allocatorIcEEEENS_4lessIS6_EENS4_IS6_EEE12__find_equalIS6_EERPNS_16__tree_node_baseIPvEENS_21__tree_const_iteratorIS6_PNS_11__tree_nodeIS6_SD_EElEERPNS_15__tree_end_nodeISF_EESG_RKT_, symObjAddr: 0xFC40, symBinAddr: 0x11D50, symSize: 0x2B0 }
  - { offset: 0x104FF0, size: 0x8, addend: 0x0, symName: __ZNSt3__16__treeINS_12basic_stringIcNS_11char_traitsIcEENS_9allocatorIcEEEENS_4lessIS6_EENS4_IS6_EEE12__find_equalIS6_EERPNS_16__tree_node_baseIPvEERPNS_15__tree_end_nodeISF_EERKT_, symObjAddr: 0xFEF0, symBinAddr: 0x12000, symSize: 0x120 }
  - { offset: 0x105B07, size: 0x8, addend: 0x0, symName: __ZNSt3__16__treeINS_12basic_stringIcNS_11char_traitsIcEENS_9allocatorIcEEEENS_4lessIS6_EENS4_IS6_EEE19__node_insert_multiEPNS_11__tree_nodeIS6_PvEE, symObjAddr: 0x10790, symBinAddr: 0x128A0, symSize: 0x110 }
  - { offset: 0x105D75, size: 0x8, addend: 0x0, symName: __ZNSt3__16__treeINS_12basic_stringIcNS_11char_traitsIcEENS_9allocatorIcEEEENS_4lessIS6_EENS4_IS6_EEE15__emplace_multiIJRKS6_EEENS_15__tree_iteratorIS6_PNS_11__tree_nodeIS6_PvEElEEDpOT_, symObjAddr: 0x10900, symBinAddr: 0x12A10, symSize: 0x140 }
  - { offset: 0x1062AB, size: 0x8, addend: 0x0, symName: __ZNSt3__16__treeINS_12basic_stringIcNS_11char_traitsIcEENS_9allocatorIcEEEENS_4lessIS6_EENS4_IS6_EEE18_DetachedTreeCacheD1B8ne180100Ev, symObjAddr: 0x108A0, symBinAddr: 0x129B0, symSize: 0x60 }
  - { offset: 0x10634A, size: 0x8, addend: 0x0, symName: __ZNSt3__113basic_filebufIcNS_11char_traitsIcEEED1Ev, symObjAddr: 0x10AA0, symBinAddr: 0x12BB0, symSize: 0x10 }
  - { offset: 0x106382, size: 0x8, addend: 0x0, symName: __ZNSt3__114basic_ifstreamIcNS_11char_traitsIcEEED0Ev, symObjAddr: 0x10AB0, symBinAddr: 0x12BC0, symSize: 0x60 }
  - { offset: 0x106417, size: 0x8, addend: 0x0, symName: __ZTv0_n24_NSt3__114basic_ifstreamIcNS_11char_traitsIcEEED1Ev, symObjAddr: 0x10B10, symBinAddr: 0x12C20, symSize: 0x70 }
  - { offset: 0x1064BD, size: 0x8, addend: 0x0, symName: __ZTv0_n24_NSt3__114basic_ifstreamIcNS_11char_traitsIcEEED0Ev, symObjAddr: 0x10B80, symBinAddr: 0x12C90, symSize: 0x70 }
  - { offset: 0x106597, size: 0x8, addend: 0x0, symName: __ZNSt3__113basic_filebufIcNS_11char_traitsIcEEED0Ev, symObjAddr: 0x10CF0, symBinAddr: 0x12E00, symSize: 0x20 }
  - { offset: 0x1065FA, size: 0x8, addend: 0x0, symName: __ZNSt3__113basic_filebufIcNS_11char_traitsIcEEE5imbueERKNS_6localeE, symObjAddr: 0x10D10, symBinAddr: 0x12E20, symSize: 0x100 }
  - { offset: 0x1066D8, size: 0x8, addend: 0x0, symName: __ZNSt3__113basic_filebufIcNS_11char_traitsIcEEE6setbufEPcl, symObjAddr: 0x10E10, symBinAddr: 0x12F20, symSize: 0x110 }
  - { offset: 0x10676D, size: 0x8, addend: 0x0, symName: __ZNSt3__113basic_filebufIcNS_11char_traitsIcEEE7seekoffExNS_8ios_base7seekdirEj, symObjAddr: 0x10F20, symBinAddr: 0x13030, symSize: 0x130 }
  - { offset: 0x10691B, size: 0x8, addend: 0x0, symName: __ZNSt3__113basic_filebufIcNS_11char_traitsIcEEE7seekposENS_4fposI11__mbstate_tEEj, symObjAddr: 0x11050, symBinAddr: 0x13160, symSize: 0x100 }
  - { offset: 0x106A5F, size: 0x8, addend: 0x0, symName: __ZNSt3__113basic_filebufIcNS_11char_traitsIcEEE4syncEv, symObjAddr: 0x11150, symBinAddr: 0x13260, symSize: 0x2D0 }
  - { offset: 0x106E1B, size: 0x8, addend: 0x0, symName: __ZNSt3__113basic_filebufIcNS_11char_traitsIcEEE9underflowEv, symObjAddr: 0x11420, symBinAddr: 0x13530, symSize: 0x2C0 }
  - { offset: 0x1071D6, size: 0x8, addend: 0x0, symName: __ZNSt3__113basic_filebufIcNS_11char_traitsIcEEE9pbackfailEi, symObjAddr: 0x116E0, symBinAddr: 0x137F0, symSize: 0x50 }
  - { offset: 0x10735A, size: 0x8, addend: 0x0, symName: __ZNSt3__113basic_filebufIcNS_11char_traitsIcEEE8overflowEi, symObjAddr: 0x11730, symBinAddr: 0x13840, symSize: 0x220 }
  - { offset: 0x107D10, size: 0x8, addend: 0x0, symName: __ZNKSt3__16vectorIcNS_9allocatorIcEEE20__throw_length_errorB8ne180100Ev, symObjAddr: 0x11CB0, symBinAddr: 0x13DC0, symSize: 0x10 }
  - { offset: 0x107D3A, size: 0x8, addend: 0x0, symName: __ZNSt3__16vectorINS_12basic_stringIwNS_11char_traitsIwEENS_9allocatorIwEEEENS4_IS6_EEE7reserveEm, symObjAddr: 0x11CC0, symBinAddr: 0x13DD0, symSize: 0x150 }
  - { offset: 0x1080C5, size: 0x8, addend: 0x0, symName: __ZNKSt3__112basic_stringIwNS_11char_traitsIwEENS_9allocatorIwEEE20__throw_length_errorB8ne180100Ev, symObjAddr: 0x121B0, symBinAddr: 0x140D0, symSize: 0x10 }
  - { offset: 0x1080EF, size: 0x8, addend: 0x0, symName: __ZNSt3__16vectorINS_12basic_stringIwNS_11char_traitsIwEENS_9allocatorIwEEEENS4_IS6_EEE21__push_back_slow_pathIRKS6_EEPS6_OT_, symObjAddr: 0x121C0, symBinAddr: 0x140E0, symSize: 0x1F0 }
  - { offset: 0x108325, size: 0x8, addend: 0x0, symName: __ZN12_GLOBAL__N_116ScIncludeHandler14QueryInterfaceERK4GUIDPPv, symObjAddr: 0x12470, symBinAddr: 0x14390, symSize: 0xA0 }
  - { offset: 0x1084AB, size: 0x8, addend: 0x0, symName: __ZN12_GLOBAL__N_116ScIncludeHandler6AddRefEv, symObjAddr: 0x12510, symBinAddr: 0x14430, symSize: 0x10 }
  - { offset: 0x10863C, size: 0x8, addend: 0x0, symName: __ZN12_GLOBAL__N_116ScIncludeHandler7ReleaseEv, symObjAddr: 0x12520, symBinAddr: 0x14440, symSize: 0x60 }
  - { offset: 0x10887C, size: 0x8, addend: 0x0, symName: __ZN12_GLOBAL__N_116ScIncludeHandler10LoadSourceEPKwPP8IDxcBlob, symObjAddr: 0x12580, symBinAddr: 0x144A0, symSize: 0x1C0 }
  - { offset: 0x10927F, size: 0x8, addend: 0x0, symName: __ZN12_GLOBAL__N_110Dxcompiler7DestroyEv, symObjAddr: 0x12CE0, symBinAddr: 0x14C00, symSize: 0x90 }
  - { offset: 0x109529, size: 0x8, addend: 0x0, symName: __ZN12_GLOBAL__N_110DxcompilerD1Ev, symObjAddr: 0x12C40, symBinAddr: 0x14B60, symSize: 0xA0 }
  - { offset: 0x1098C2, size: 0x8, addend: 0x0, symName: __ZNSt3__110__function6__funcIPFN15ShaderConductor4BlobEPKcENS_9allocatorIS7_EES6_ED1Ev, symObjAddr: 0x12DD0, symBinAddr: 0x14C90, symSize: 0x10 }
  - { offset: 0x1098ED, size: 0x8, addend: 0x0, symName: __ZNSt3__110__function6__funcIPFN15ShaderConductor4BlobEPKcENS_9allocatorIS7_EES6_ED0Ev, symObjAddr: 0x12DE0, symBinAddr: 0x14CA0, symSize: 0x10 }
  - { offset: 0x109B00, size: 0x8, addend: 0x0, symName: __ZNKSt3__110__function6__funcIPFN15ShaderConductor4BlobEPKcENS_9allocatorIS7_EES6_E7__cloneEv, symObjAddr: 0x12DF0, symBinAddr: 0x14CB0, symSize: 0x30 }
  - { offset: 0x109E4C, size: 0x8, addend: 0x0, symName: __ZNKSt3__110__function6__funcIPFN15ShaderConductor4BlobEPKcENS_9allocatorIS7_EES6_E7__cloneEPNS0_6__baseIS6_EE, symObjAddr: 0x12E20, symBinAddr: 0x14CE0, symSize: 0x20 }
  - { offset: 0x109FE3, size: 0x8, addend: 0x0, symName: __ZNSt3__110__function6__funcIPFN15ShaderConductor4BlobEPKcENS_9allocatorIS7_EES6_E7destroyEv, symObjAddr: 0x12E40, symBinAddr: 0x14D00, symSize: 0x10 }
  - { offset: 0x10A038, size: 0x8, addend: 0x0, symName: __ZNSt3__110__function6__funcIPFN15ShaderConductor4BlobEPKcENS_9allocatorIS7_EES6_E18destroy_deallocateEv, symObjAddr: 0x12E50, symBinAddr: 0x14D10, symSize: 0x10 }
  - { offset: 0x10A16B, size: 0x8, addend: 0x0, symName: __ZNSt3__110__function6__funcIPFN15ShaderConductor4BlobEPKcENS_9allocatorIS7_EES6_EclEOS5_, symObjAddr: 0x12E60, symBinAddr: 0x14D20, symSize: 0x20 }
  - { offset: 0x10A234, size: 0x8, addend: 0x0, symName: __ZNKSt3__110__function6__funcIPFN15ShaderConductor4BlobEPKcENS_9allocatorIS7_EES6_E6targetERKSt9type_info, symObjAddr: 0x12E80, symBinAddr: 0x14D40, symSize: 0x20 }
  - { offset: 0x10A2A8, size: 0x8, addend: 0x0, symName: __ZNKSt3__110__function6__funcIPFN15ShaderConductor4BlobEPKcENS_9allocatorIS7_EES6_E11target_typeEv, symObjAddr: 0x12EA0, symBinAddr: 0x14D60, symSize: 0x10 }
  - { offset: 0x10A2D5, size: 0x8, addend: 0x0, symName: '__ZNSt3__110__function6__funcIZN15ShaderConductor8Compiler8OptimizeERKNS3_10ResultDescEPKPKcjE3$_0NS_9allocatorISB_EEFv19spv_message_level_tS8_RK14spv_position_tS8_EED1Ev', symObjAddr: 0x12FD0, symBinAddr: 0x14E90, symSize: 0x10 }
  - { offset: 0x10A2FE, size: 0x8, addend: 0x0, symName: '__ZNSt3__110__function6__funcIZN15ShaderConductor8Compiler8OptimizeERKNS3_10ResultDescEPKPKcjE3$_0NS_9allocatorISB_EEFv19spv_message_level_tS8_RK14spv_position_tS8_EED0Ev', symObjAddr: 0x12FE0, symBinAddr: 0x14EA0, symSize: 0x10 }
  - { offset: 0x10A511, size: 0x8, addend: 0x0, symName: '__ZNKSt3__110__function6__funcIZN15ShaderConductor8Compiler8OptimizeERKNS3_10ResultDescEPKPKcjE3$_0NS_9allocatorISB_EEFv19spv_message_level_tS8_RK14spv_position_tS8_EE7__cloneEv', symObjAddr: 0x12FF0, symBinAddr: 0x14EB0, symSize: 0x30 }
  - { offset: 0x10A85D, size: 0x8, addend: 0x0, symName: '__ZNKSt3__110__function6__funcIZN15ShaderConductor8Compiler8OptimizeERKNS3_10ResultDescEPKPKcjE3$_0NS_9allocatorISB_EEFv19spv_message_level_tS8_RK14spv_position_tS8_EE7__cloneEPNS0_6__baseISI_EE', symObjAddr: 0x13020, symBinAddr: 0x14EE0, symSize: 0x20 }
  - { offset: 0x10A9F4, size: 0x8, addend: 0x0, symName: '__ZNSt3__110__function6__funcIZN15ShaderConductor8Compiler8OptimizeERKNS3_10ResultDescEPKPKcjE3$_0NS_9allocatorISB_EEFv19spv_message_level_tS8_RK14spv_position_tS8_EE7destroyEv', symObjAddr: 0x13040, symBinAddr: 0x14F00, symSize: 0x10 }
  - { offset: 0x10AA47, size: 0x8, addend: 0x0, symName: '__ZNSt3__110__function6__funcIZN15ShaderConductor8Compiler8OptimizeERKNS3_10ResultDescEPKPKcjE3$_0NS_9allocatorISB_EEFv19spv_message_level_tS8_RK14spv_position_tS8_EE18destroy_deallocateEv', symObjAddr: 0x13050, symBinAddr: 0x14F10, symSize: 0x10 }
  - { offset: 0x10AC31, size: 0x8, addend: 0x0, symName: '__ZNSt3__110__function6__funcIZN15ShaderConductor8Compiler8OptimizeERKNS3_10ResultDescEPKPKcjE3$_0NS_9allocatorISB_EEFv19spv_message_level_tS8_RK14spv_position_tS8_EEclEOSE_OS8_SH_SL_', symObjAddr: 0x13060, symBinAddr: 0x14F20, symSize: 0x20 }
  - { offset: 0x10AD5A, size: 0x8, addend: 0x0, symName: '__ZNKSt3__110__function6__funcIZN15ShaderConductor8Compiler8OptimizeERKNS3_10ResultDescEPKPKcjE3$_0NS_9allocatorISB_EEFv19spv_message_level_tS8_RK14spv_position_tS8_EE6targetERKSt9type_info', symObjAddr: 0x13080, symBinAddr: 0x14F40, symSize: 0x20 }
  - { offset: 0x10ADD0, size: 0x8, addend: 0x0, symName: '__ZNKSt3__110__function6__funcIZN15ShaderConductor8Compiler8OptimizeERKNS3_10ResultDescEPKPKcjE3$_0NS_9allocatorISB_EEFv19spv_message_level_tS8_RK14spv_position_tS8_EE11target_typeEv', symObjAddr: 0x130A0, symBinAddr: 0x14F60, symSize: 0x10 }
  - { offset: 0x111DF3, size: 0x8, addend: 0x0, symName: __Z19MultiByteToWideCharjjPKciPwi, symObjAddr: 0x0, symBinAddr: 0x14F80, symSize: 0x100 }
  - { offset: 0x112062, size: 0x8, addend: 0x0, symName: __Z19WideCharToMultiBytejjPKwiPciPKcPb, symObjAddr: 0x100, symBinAddr: 0x15080, symSize: 0x110 }
  - { offset: 0x11235B, size: 0x8, addend: 0x0, symName: __ZN7Unicode19WideToEncodedStringEPKwmjjPNSt3__112basic_stringIcNS2_11char_traitsIcEENS2_9allocatorIcEEEEPb, symObjAddr: 0x210, symBinAddr: 0x15190, symSize: 0xB0 }
  - { offset: 0x112589, size: 0x8, addend: 0x0, symName: __ZN7Unicode16UTF8ToWideStringEPKcPNSt3__112basic_stringIwNS2_11char_traitsIwEENS2_9allocatorIwEEEE, symObjAddr: 0x2C0, symBinAddr: 0x15240, symSize: 0x30 }
  - { offset: 0x1125E0, size: 0x8, addend: 0x0, symName: __ZN7Unicode16UTF8ToWideStringEPKcmPNSt3__112basic_stringIwNS2_11char_traitsIwEENS2_9allocatorIwEEEE, symObjAddr: 0x2F0, symBinAddr: 0x15270, symSize: 0x90 }
  - { offset: 0x112804, size: 0x8, addend: 0x0, symName: __ZN7Unicode23UTF8ToWideStringOrThrowEPKc, symObjAddr: 0x380, symBinAddr: 0x15300, symSize: 0xB0 }
  - { offset: 0x112B9C, size: 0x8, addend: 0x0, symName: __ZN7Unicode19UTF8ToConsoleStringEPKcmPNSt3__112basic_stringIcNS2_11char_traitsIcEENS2_9allocatorIcEEEEPb, symObjAddr: 0x460, symBinAddr: 0x153E0, symSize: 0xA0 }
  - { offset: 0x112FFD, size: 0x8, addend: 0x0, symName: __ZN7Unicode19WideToConsoleStringEPKwmPNSt3__112basic_stringIcNS2_11char_traitsIcEENS2_9allocatorIcEEEEPb, symObjAddr: 0x500, symBinAddr: 0x15480, symSize: 0x20 }
  - { offset: 0x113072, size: 0x8, addend: 0x0, symName: __ZN7Unicode19UTF8ToConsoleStringEPKcPNSt3__112basic_stringIcNS2_11char_traitsIcEENS2_9allocatorIcEEEEPb, symObjAddr: 0x520, symBinAddr: 0x154A0, symSize: 0x40 }
  - { offset: 0x1130E6, size: 0x8, addend: 0x0, symName: __ZN7Unicode19WideToConsoleStringEPKwPNSt3__112basic_stringIcNS2_11char_traitsIcEENS2_9allocatorIcEEEEPb, symObjAddr: 0x560, symBinAddr: 0x154E0, symSize: 0x40 }
  - { offset: 0x1131A4, size: 0x8, addend: 0x0, symName: __ZN7Unicode16WideToUTF8StringEPKwmPNSt3__112basic_stringIcNS2_11char_traitsIcEENS2_9allocatorIcEEEE, symObjAddr: 0x5A0, symBinAddr: 0x15520, symSize: 0x20 }
  - { offset: 0x113225, size: 0x8, addend: 0x0, symName: __ZN7Unicode16WideToUTF8StringEPKwPNSt3__112basic_stringIcNS2_11char_traitsIcEENS2_9allocatorIcEEEE, symObjAddr: 0x5C0, symBinAddr: 0x15540, symSize: 0x30 }
  - { offset: 0x1132AD, size: 0x8, addend: 0x0, symName: __ZN7Unicode23WideToUTF8StringOrThrowEPKw, symObjAddr: 0x5F0, symBinAddr: 0x15570, symSize: 0xA0 }
  - { offset: 0x1135FD, size: 0x8, addend: 0x0, symName: __ZN7Unicode23UTF8BufferToWideComHeapEPKcPPw, symObjAddr: 0x690, symBinAddr: 0x15610, symSize: 0xA0 }
  - { offset: 0x113761, size: 0x8, addend: 0x0, symName: __ZN7Unicode22UTF8BufferToWideBufferEPKciPPwPm, symObjAddr: 0x740, symBinAddr: 0x156B0, symSize: 0x120 }
  - { offset: 0x113855, size: 0x8, addend: 0x0, symName: __ZN7Unicode22WideBufferToUTF8BufferEPKwiPPcPm, symObjAddr: 0x860, symBinAddr: 0x157D0, symSize: 0xF0 }
  - { offset: 0x1139A6, size: 0x8, addend: 0x0, symName: __ZN7Unicode15IsStarMatchUTF8EPKcmS1_m, symObjAddr: 0x950, symBinAddr: 0x158C0, symSize: 0x50 }
  - { offset: 0x113ABB, size: 0x8, addend: 0x0, symName: __ZN7Unicode15IsStarMatchWideEPKwmS1_m, symObjAddr: 0x9A0, symBinAddr: 0x15910, symSize: 0x60 }
  - { offset: 0x113FDB, size: 0x8, addend: 0x0, symName: __ZN4hlsl9ExceptionD1Ev, symObjAddr: 0x430, symBinAddr: 0x153B0, symSize: 0x30 }
  - { offset: 0x11452A, size: 0x8, addend: 0x0, symName: __ZN4hlsl9ExceptionD0Ev, symObjAddr: 0xA00, symBinAddr: 0x15970, symSize: 0x40 }
  - { offset: 0x114726, size: 0x8, addend: 0x0, symName: __ZNK4hlsl9Exception4whatEv, symObjAddr: 0xA40, symBinAddr: 0x159B0, symSize: 0x19 }
  - { offset: 0x116607, size: 0x8, addend: 0x0, symName: __Z10CPToLocalej, symObjAddr: 0xF0, symBinAddr: 0x15AB0, symSize: 0x30 }
  - { offset: 0x11D08E, size: 0x8, addend: 0x0, symName: __ZN10CAllocator10ReallocateEPvm, symObjAddr: 0x0, symBinAddr: 0x159D0, symSize: 0x10 }
  - { offset: 0x11D0F7, size: 0x8, addend: 0x0, symName: __ZN10CAllocator8AllocateEm, symObjAddr: 0x20, symBinAddr: 0x159E0, symSize: 0x10 }
  - { offset: 0x11D145, size: 0x8, addend: 0x0, symName: __ZN10CAllocator4FreeEPv, symObjAddr: 0x30, symBinAddr: 0x159F0, symSize: 0x10 }
  - { offset: 0x11D18E, size: 0x8, addend: 0x0, symName: __Z13SysFreeStringPw, symObjAddr: 0x40, symBinAddr: 0x15A00, symSize: 0x20 }
  - { offset: 0x11D1C7, size: 0x8, addend: 0x0, symName: __Z17SysAllocStringLenPKwj, symObjAddr: 0x60, symBinAddr: 0x15A20, symSize: 0x70 }
  - { offset: 0x11D21E, size: 0x8, addend: 0x0, symName: __Z12SysStringLenPw, symObjAddr: 0xD0, symBinAddr: 0x15A90, symSize: 0x20 }
  - { offset: 0x11D2C8, size: 0x8, addend: 0x0, symName: __ZN7CHandleC2EPv, symObjAddr: 0x120, symBinAddr: 0x15AE0, symSize: 0x10 }
  - { offset: 0x11D31E, size: 0x8, addend: 0x0, symName: __ZN7CHandleD2Ev, symObjAddr: 0x140, symBinAddr: 0x15AF0, symSize: 0x20 }
  - { offset: 0x11D380, size: 0x8, addend: 0x0, symName: __ZN7CHandleD1Ev, symObjAddr: 0x160, symBinAddr: 0x15B10, symSize: 0x20 }
  - { offset: 0x11D3D3, size: 0x8, addend: 0x0, symName: __ZNK7CHandlecvPvEv, symObjAddr: 0x180, symBinAddr: 0x15B30, symSize: 0x10 }
  - { offset: 0x11D53B, size: 0x8, addend: 0x0, symName: __ZN8CComBSTRC2EiPKw, symObjAddr: 0x190, symBinAddr: 0x15B40, symSize: 0xF0 }
  - { offset: 0x11D5EC, size: 0x8, addend: 0x0, symName: __ZNSt16invalid_argumentC1B8ne180100EPKc, symObjAddr: 0x280, symBinAddr: 0x15C30, symSize: 0x30 }
  - { offset: 0x11D67A, size: 0x8, addend: 0x0, symName: __ZN8CComBSTRC1EiPKw, symObjAddr: 0x2B0, symBinAddr: 0x15C60, symSize: 0x10 }
  - { offset: 0x11D6E8, size: 0x8, addend: 0x0, symName: __ZNK8CComBSTReqERKS_, symObjAddr: 0x2C0, symBinAddr: 0x15C70, symSize: 0x20 }
  - { offset: 0x11DE01, size: 0x8, addend: 0x0, symName: __ZN5WArgVC2EiPPKc, symObjAddr: 0x2E0, symBinAddr: 0x15C90, symSize: 0x2B0 }
  - { offset: 0x11ECE1, size: 0x8, addend: 0x0, symName: __ZNSt3__16vectorINS_12basic_stringIwNS_11char_traitsIwEENS_9allocatorIwEEEENS4_IS6_EEEC1Em.cold.1, symObjAddr: 0x790, symBinAddr: 0x1D02E0, symSize: 0x4D }
  - { offset: 0x11F191, size: 0x8, addend: 0x0, symName: __ZNSt3__16vectorINS_12basic_stringIwNS_11char_traitsIwEENS_9allocatorIwEEEENS4_IS6_EEEC1Em.cold.1, symObjAddr: 0x790, symBinAddr: 0x1D02E0, symSize: 0x4D }
  - { offset: 0x11F56A, size: 0x8, addend: 0x0, symName: __ZN5WArgVC1EiPPKc, symObjAddr: 0x6D0, symBinAddr: 0x15F40, symSize: 0x10 }
  - { offset: 0x1214FC, size: 0x8, addend: 0x0, symName: __ZL13g_processHeap, symObjAddr: 0x22CC8, symBinAddr: 0x21AAD0, symSize: 0x0 }
  - { offset: 0x12437A, size: 0x8, addend: 0x0, symName: __ZNSt3__113__tree_removeB8ne180100IPNS_16__tree_node_baseIPvEEEEvT_S5_, symObjAddr: 0xDA0, symBinAddr: 0x16B50, symSize: 0x36B }
  - { offset: 0x125AFB, size: 0x8, addend: 0x0, symName: __Z16StringCchPrintfAPcmPKcz, symObjAddr: 0x0, symBinAddr: 0x15F50, symSize: 0x100 }
  - { offset: 0x125BF3, size: 0x8, addend: 0x0, symName: __Z7UIntAddjjPj, symObjAddr: 0x100, symBinAddr: 0x16050, symSize: 0x20 }
  - { offset: 0x125C50, size: 0x8, addend: 0x0, symName: __Z9IntToUIntiPj, symObjAddr: 0x120, symBinAddr: 0x16070, symSize: 0x20 }
  - { offset: 0x125C9B, size: 0x8, addend: 0x0, symName: __Z10SizeTToIntmPi, symObjAddr: 0x140, symBinAddr: 0x16090, symSize: 0x30 }
  - { offset: 0x125CE6, size: 0x8, addend: 0x0, symName: __Z10UInt32MultjjPj, symObjAddr: 0x170, symBinAddr: 0x160C0, symSize: 0x20 }
  - { offset: 0x125D5F, size: 0x8, addend: 0x0, symName: __Z8strnicmpPKcS0_m, symObjAddr: 0x190, symBinAddr: 0x160E0, symSize: 0x90 }
  - { offset: 0x125E54, size: 0x8, addend: 0x0, symName: __Z8_stricmpPKcS0_, symObjAddr: 0x220, symBinAddr: 0x16170, symSize: 0x70 }
  - { offset: 0x125F3A, size: 0x8, addend: 0x0, symName: __Z8_wcsicmpPKwS0_, symObjAddr: 0x290, symBinAddr: 0x161E0, symSize: 0x70 }
  - { offset: 0x126008, size: 0x8, addend: 0x0, symName: __Z9_wcsnicmpPKwS0_m, symObjAddr: 0x300, symBinAddr: 0x16250, symSize: 0x70 }
  - { offset: 0x1260E6, size: 0x8, addend: 0x0, symName: __Z15_BitScanForwardPmm, symObjAddr: 0x370, symBinAddr: 0x162C0, symSize: 0x40 }
  - { offset: 0x126133, size: 0x8, addend: 0x0, symName: __Z11CreateFile2PKwjjjPv, symObjAddr: 0x3B0, symBinAddr: 0x16300, symSize: 0x20 }
  - { offset: 0x1261C9, size: 0x8, addend: 0x0, symName: __Z11CreateFileWPKwjjPvjjS1_, symObjAddr: 0x3D0, symBinAddr: 0x16320, symSize: 0x130 }
  - { offset: 0x1265BA, size: 0x8, addend: 0x0, symName: __Z13GetFileSizeExPvP14_LARGE_INTEGER, symObjAddr: 0x500, symBinAddr: 0x16450, symSize: 0x40 }
  - { offset: 0x126819, size: 0x8, addend: 0x0, symName: __Z8ReadFilePvS_jPjS_, symObjAddr: 0x540, symBinAddr: 0x16490, symSize: 0x30 }
  - { offset: 0x1268FD, size: 0x8, addend: 0x0, symName: __Z9WriteFilePvPKvjPjS_, symObjAddr: 0x570, symBinAddr: 0x164C0, symSize: 0x30 }
  - { offset: 0x1269CB, size: 0x8, addend: 0x0, symName: __Z11CloseHandlePv, symObjAddr: 0x5A0, symBinAddr: 0x164F0, symSize: 0x10 }
  - { offset: 0x126BB9, size: 0x8, addend: 0x0, symName: __Z10HeapCreatejmm, symObjAddr: 0x5B0, symBinAddr: 0x16500, symSize: 0x40 }
  - { offset: 0x126ECB, size: 0x8, addend: 0x0, symName: __Z11HeapDestroyPv, symObjAddr: 0x5F0, symBinAddr: 0x16540, symSize: 0x80 }
  - { offset: 0x127283, size: 0x8, addend: 0x0, symName: __ZN10SimpleHeapD1Ev, symObjAddr: 0x670, symBinAddr: 0x165C0, symSize: 0x10 }
  - { offset: 0x127815, size: 0x8, addend: 0x0, symName: __Z9HeapAllocPvjm, symObjAddr: 0x680, symBinAddr: 0x165D0, symSize: 0x110 }
  - { offset: 0x127DBC, size: 0x8, addend: 0x0, symName: __Z11HeapReAllocPvjS_m, symObjAddr: 0x790, symBinAddr: 0x166E0, symSize: 0x270 }
  - { offset: 0x12877E, size: 0x8, addend: 0x0, symName: __Z8HeapFreePvjS_, symObjAddr: 0xA00, symBinAddr: 0x16950, symSize: 0x140 }
  - { offset: 0x128E7D, size: 0x8, addend: 0x0, symName: __Z8HeapSizePvjPKv, symObjAddr: 0xB40, symBinAddr: 0x16A90, symSize: 0xB0 }
  - { offset: 0x1291AE, size: 0x8, addend: 0x0, symName: __Z14GetProcessHeapv, symObjAddr: 0xBF0, symBinAddr: 0x16B40, symSize: 0x10 }
  - { offset: 0x12B029, size: 0x8, addend: 0x0, symName: __ZN4llvm5APInt12initSlowCaseEjyb, symObjAddr: 0x0, symBinAddr: 0x16F00, symSize: 0x110 }
  - { offset: 0x130028, size: 0x8, addend: 0x0, symName: __ZN4llvm7hashing6detail23hash_combine_range_implIyEENSt3__19enable_ifIXsr16is_hashable_dataIT_EE5valueENS_9hash_codeEE4typeEPS5_S9_, symObjAddr: 0x107D0, symBinAddr: 0x274A0, symSize: 0x424 }
  - { offset: 0x130CF9, size: 0x8, addend: 0x0, symName: __ZN4llvm7hashing6detail10hash_shortEPKcmy, symObjAddr: 0x10550, symBinAddr: 0x27220, symSize: 0x280 }
  - { offset: 0x13144D, size: 0x8, addend: 0x0, symName: __ZN4llvm10hash_valueERKNS_5APIntE, symObjAddr: 0x2A50, symBinAddr: 0x197B0, symSize: 0x90 }
  - { offset: 0x13172E, size: 0x8, addend: 0x0, symName: __ZN4llvm8APIntOps21GreatestCommonDivisorERKNS_5APIntES3_, symObjAddr: 0x3630, symBinAddr: 0x1A390, symSize: 0x240 }
  - { offset: 0x131D86, size: 0x8, addend: 0x0, symName: __ZN4llvm8APIntOps18RoundDoubleToAPIntEdj, symObjAddr: 0x38C0, symBinAddr: 0x1A620, symSize: 0x460 }
  - { offset: 0x137F12, size: 0x8, addend: 0x0, symName: __ZNK4llvm5APInt4sqrtEv, symObjAddr: 0x6310, symBinAddr: 0x1D070, symSize: 0xE10 }
  - { offset: 0x137F3A, size: 0x8, addend: 0x0, symName: __ZZNK4llvm5APInt4sqrtEvE7results, symObjAddr: 0x11340, symBinAddr: 0x1EB350, symSize: 0x0 }
  - { offset: 0x13A64D, size: 0x8, addend: 0x0, symName: __ZNK4llvm5APInt8toStringERNS_15SmallVectorImplIcEEjbb, symObjAddr: 0xE330, symBinAddr: 0x25090, symSize: 0xB40 }
  - { offset: 0x13C1B3, size: 0x8, addend: 0x0, symName: __ZN4llvm5APInt12initSlowCaseEjyb, symObjAddr: 0x0, symBinAddr: 0x16F00, symSize: 0x110 }
  - { offset: 0x13C295, size: 0x8, addend: 0x0, symName: __ZN4llvm5APInt12initSlowCaseERKS0_, symObjAddr: 0x110, symBinAddr: 0x17010, symSize: 0x50 }
  - { offset: 0x13C35A, size: 0x8, addend: 0x0, symName: __ZN4llvm5APInt13initFromArrayENS_8ArrayRefIyEE, symObjAddr: 0x160, symBinAddr: 0x17060, symSize: 0xB0 }
  - { offset: 0x13C471, size: 0x8, addend: 0x0, symName: __ZN4llvm5APIntC2EjNS_8ArrayRefIyEE, symObjAddr: 0x210, symBinAddr: 0x17110, symSize: 0xC0 }
  - { offset: 0x13C597, size: 0x8, addend: 0x0, symName: __ZN4llvm5APIntC2EjjPKy, symObjAddr: 0x390, symBinAddr: 0x171D0, symSize: 0xC0 }
  - { offset: 0x13C6D3, size: 0x8, addend: 0x0, symName: __ZN4llvm5APIntC2EjNS_9StringRefEh, symObjAddr: 0x510, symBinAddr: 0x17290, symSize: 0x20 }
  - { offset: 0x13C73D, size: 0x8, addend: 0x0, symName: __ZN4llvm5APInt10fromStringEjNS_9StringRefEh, symObjAddr: 0x530, symBinAddr: 0x172B0, symSize: 0x610 }
  - { offset: 0x13D484, size: 0x8, addend: 0x0, symName: __ZN4llvm5APIntmLERKS0_, symObjAddr: 0xFE0, symBinAddr: 0x17D40, symSize: 0x4D0 }
  - { offset: 0x13DAEF, size: 0x8, addend: 0x0, symName: __ZNK4llvm5APInt11shlSlowCaseEj, symObjAddr: 0x5930, symBinAddr: 0x1C690, symSize: 0x560 }
  - { offset: 0x13E032, size: 0x8, addend: 0x0, symName: __ZN4llvm5APInt14AssignSlowCaseERKS0_, symObjAddr: 0xB60, symBinAddr: 0x178C0, symSize: 0x120 }
  - { offset: 0x13E20A, size: 0x8, addend: 0x0, symName: __ZN4llvm5APIntaSEy, symObjAddr: 0xC80, symBinAddr: 0x179E0, symSize: 0x80 }
  - { offset: 0x13E319, size: 0x8, addend: 0x0, symName: __ZNK4llvm5APInt7ProfileERNS_16FoldingSetNodeIDE, symObjAddr: 0xD00, symBinAddr: 0x17A60, symSize: 0x80 }
  - { offset: 0x13E422, size: 0x8, addend: 0x0, symName: __ZN4llvm5APIntppEv, symObjAddr: 0xD80, symBinAddr: 0x17AE0, symSize: 0x80 }
  - { offset: 0x13E509, size: 0x8, addend: 0x0, symName: __ZN4llvm5APIntmmEv, symObjAddr: 0xE00, symBinAddr: 0x17B60, symSize: 0x80 }
  - { offset: 0x13E5EB, size: 0x8, addend: 0x0, symName: __ZN4llvm5APIntpLERKS0_, symObjAddr: 0xE80, symBinAddr: 0x17BE0, symSize: 0xC0 }
  - { offset: 0x13E819, size: 0x8, addend: 0x0, symName: __ZN4llvm5APIntmIERKS0_, symObjAddr: 0xF40, symBinAddr: 0x17CA0, symSize: 0xA0 }
  - { offset: 0x13EB89, size: 0x8, addend: 0x0, symName: __ZN4llvm5APIntaNERKS0_, symObjAddr: 0x14B0, symBinAddr: 0x18210, symSize: 0x90 }
  - { offset: 0x13EC49, size: 0x8, addend: 0x0, symName: __ZN4llvm5APIntoRERKS0_, symObjAddr: 0x1540, symBinAddr: 0x182A0, symSize: 0x90 }
  - { offset: 0x13ED09, size: 0x8, addend: 0x0, symName: __ZN4llvm5APInteOERKS0_, symObjAddr: 0x15D0, symBinAddr: 0x18330, symSize: 0xC0 }
  - { offset: 0x13EE75, size: 0x8, addend: 0x0, symName: __ZNK4llvm5APInt11AndSlowCaseERKS0_, symObjAddr: 0x1690, symBinAddr: 0x183F0, symSize: 0x150 }
  - { offset: 0x13EFA6, size: 0x8, addend: 0x0, symName: __ZNK4llvm5APInt10OrSlowCaseERKS0_, symObjAddr: 0x17E0, symBinAddr: 0x18540, symSize: 0x150 }
  - { offset: 0x13F0B4, size: 0x8, addend: 0x0, symName: __ZNK4llvm5APInt11XorSlowCaseERKS0_, symObjAddr: 0x1930, symBinAddr: 0x18690, symSize: 0x1A0 }
  - { offset: 0x13F292, size: 0x8, addend: 0x0, symName: __ZNK4llvm5APIntmlERKS0_, symObjAddr: 0x1AD0, symBinAddr: 0x18830, symSize: 0xB0 }
  - { offset: 0x13F4DF, size: 0x8, addend: 0x0, symName: __ZN4llvm5APIntC1Ejyb, symObjAddr: 0x1B80, symBinAddr: 0x188E0, symSize: 0x160 }
  - { offset: 0x13F63F, size: 0x8, addend: 0x0, symName: __ZNK4llvm5APIntplERKS0_, symObjAddr: 0x1CE0, symBinAddr: 0x18A40, symSize: 0x140 }
  - { offset: 0x13F960, size: 0x8, addend: 0x0, symName: __ZNK4llvm5APIntmiERKS0_, symObjAddr: 0x1E20, symBinAddr: 0x18B80, symSize: 0x140 }
  - { offset: 0x13FBDD, size: 0x8, addend: 0x0, symName: __ZNK4llvm5APInt13EqualSlowCaseERKS0_, symObjAddr: 0x1F60, symBinAddr: 0x18CC0, symSize: 0x1D0 }
  - { offset: 0x13FFC7, size: 0x8, addend: 0x0, symName: __ZNK4llvm5APInt13EqualSlowCaseEy, symObjAddr: 0x2130, symBinAddr: 0x18E90, symSize: 0xE0 }
  - { offset: 0x1401A3, size: 0x8, addend: 0x0, symName: __ZNK4llvm5APInt3ultERKS0_, symObjAddr: 0x2210, symBinAddr: 0x18F70, symSize: 0x1C0 }
  - { offset: 0x14063C, size: 0x8, addend: 0x0, symName: __ZNK4llvm5APInt3sltERKS0_, symObjAddr: 0x23D0, symBinAddr: 0x19130, symSize: 0x3D0 }
  - { offset: 0x140D35, size: 0x8, addend: 0x0, symName: __ZN4llvm5APInt6setBitEj, symObjAddr: 0x27A0, symBinAddr: 0x19500, symSize: 0x30 }
  - { offset: 0x140DB2, size: 0x8, addend: 0x0, symName: __ZN4llvm5APInt8clearBitEj, symObjAddr: 0x27D0, symBinAddr: 0x19530, symSize: 0x30 }
  - { offset: 0x140E67, size: 0x8, addend: 0x0, symName: __ZN4llvm5APInt7flipBitEj, symObjAddr: 0x2800, symBinAddr: 0x19560, symSize: 0x60 }
  - { offset: 0x140F94, size: 0x8, addend: 0x0, symName: __ZN4llvm5APInt13getBitsNeededENS_9StringRefEh, symObjAddr: 0x2860, symBinAddr: 0x195C0, symSize: 0x1F0 }
  - { offset: 0x1413B2, size: 0x8, addend: 0x0, symName: __ZNK4llvm5APInt7isSplatEj, symObjAddr: 0x2AE0, symBinAddr: 0x19840, symSize: 0x60 }
  - { offset: 0x1414D5, size: 0x8, addend: 0x0, symName: __ZNK4llvm5APInt4rotlEj, symObjAddr: 0x2B40, symBinAddr: 0x198A0, symSize: 0x2A0 }
  - { offset: 0x141B15, size: 0x8, addend: 0x0, symName: __ZNK4llvm5APInt4lshrEj, symObjAddr: 0x52A0, symBinAddr: 0x1C000, symSize: 0x570 }
  - { offset: 0x142145, size: 0x8, addend: 0x0, symName: __ZNK4llvm5APInt9getHiBitsEj, symObjAddr: 0x2DE0, symBinAddr: 0x19B40, symSize: 0x20 }
  - { offset: 0x1421C6, size: 0x8, addend: 0x0, symName: __ZNK4llvm5APInt9getLoBitsEj, symObjAddr: 0x2E00, symBinAddr: 0x19B60, symSize: 0xC0 }
  - { offset: 0x1424D0, size: 0x8, addend: 0x0, symName: __ZNK4llvm5APInt25countLeadingZerosSlowCaseEv, symObjAddr: 0x2EC0, symBinAddr: 0x19C20, symSize: 0xA0 }
  - { offset: 0x1425F0, size: 0x8, addend: 0x0, symName: __ZNK4llvm5APInt16countLeadingOnesEv, symObjAddr: 0x2F60, symBinAddr: 0x19CC0, symSize: 0xC0 }
  - { offset: 0x14280C, size: 0x8, addend: 0x0, symName: __ZNK4llvm5APInt18countTrailingZerosEv, symObjAddr: 0x3020, symBinAddr: 0x19D80, symSize: 0x70 }
  - { offset: 0x142911, size: 0x8, addend: 0x0, symName: __ZNK4llvm5APInt25countTrailingOnesSlowCaseEv, symObjAddr: 0x3090, symBinAddr: 0x19DF0, symSize: 0x70 }
  - { offset: 0x1429E9, size: 0x8, addend: 0x0, symName: __ZNK4llvm5APInt23countPopulationSlowCaseEv, symObjAddr: 0x3100, symBinAddr: 0x19E60, symSize: 0x180 }
  - { offset: 0x142AD1, size: 0x8, addend: 0x0, symName: __ZNK4llvm5APInt8byteSwapEv, symObjAddr: 0x3280, symBinAddr: 0x19FE0, symSize: 0x3B0 }
  - { offset: 0x1430D1, size: 0x8, addend: 0x0, symName: __ZNK4llvm5APInt4uremERKS0_, symObjAddr: 0x9A10, symBinAddr: 0x20770, symSize: 0x3C0 }
  - { offset: 0x143999, size: 0x8, addend: 0x0, symName: __ZN4llvm5APIntaSEOS0_, symObjAddr: 0x3870, symBinAddr: 0x1A5D0, symSize: 0x50 }
  - { offset: 0x1439EF, size: 0x8, addend: 0x0, symName: __ZNK4llvm5APIntngEv, symObjAddr: 0x3D20, symBinAddr: 0x1AA80, symSize: 0xF0 }
  - { offset: 0x143C7F, size: 0x8, addend: 0x0, symName: __ZNK4llvm5APInt13roundToDoubleEb, symObjAddr: 0x3E10, symBinAddr: 0x1AB70, symSize: 0x2C0 }
  - { offset: 0x14427E, size: 0x8, addend: 0x0, symName: __ZNK4llvm5APInt5truncEj, symObjAddr: 0x40D0, symBinAddr: 0x1AE30, symSize: 0x160 }
  - { offset: 0x144443, size: 0x8, addend: 0x0, symName: __ZNK4llvm5APInt4sextEj, symObjAddr: 0x4230, symBinAddr: 0x1AF90, symSize: 0x1B0 }
  - { offset: 0x14466E, size: 0x8, addend: 0x0, symName: __ZNK4llvm5APInt4zextEj, symObjAddr: 0x43E0, symBinAddr: 0x1B140, symSize: 0x100 }
  - { offset: 0x144886, size: 0x8, addend: 0x0, symName: __ZNK4llvm5APInt11zextOrTruncEj, symObjAddr: 0x44E0, symBinAddr: 0x1B240, symSize: 0x280 }
  - { offset: 0x144BA3, size: 0x8, addend: 0x0, symName: __ZNK4llvm5APInt11sextOrTruncEj, symObjAddr: 0x4760, symBinAddr: 0x1B4C0, symSize: 0x1C0 }
  - { offset: 0x144E96, size: 0x8, addend: 0x0, symName: __ZNK4llvm5APInt10zextOrSelfEj, symObjAddr: 0x4920, symBinAddr: 0x1B680, symSize: 0x160 }
  - { offset: 0x14513D, size: 0x8, addend: 0x0, symName: __ZNK4llvm5APInt10sextOrSelfEj, symObjAddr: 0x4A80, symBinAddr: 0x1B7E0, symSize: 0x80 }
  - { offset: 0x1452B6, size: 0x8, addend: 0x0, symName: __ZNK4llvm5APInt4ashrERKS0_, symObjAddr: 0x4B00, symBinAddr: 0x1B860, symSize: 0xF0 }
  - { offset: 0x14548E, size: 0x8, addend: 0x0, symName: __ZNK4llvm5APInt4ashrEj, symObjAddr: 0x4BF0, symBinAddr: 0x1B950, symSize: 0x5C0 }
  - { offset: 0x145B6B, size: 0x8, addend: 0x0, symName: __ZNK4llvm5APInt4lshrERKS0_, symObjAddr: 0x51B0, symBinAddr: 0x1BF10, symSize: 0xF0 }
  - { offset: 0x145D43, size: 0x8, addend: 0x0, symName: __ZNK4llvm5APInt3shlERKS0_, symObjAddr: 0x5810, symBinAddr: 0x1C570, symSize: 0x120 }
  - { offset: 0x14608D, size: 0x8, addend: 0x0, symName: __ZNK4llvm5APInt4rotlERKS0_, symObjAddr: 0x5E90, symBinAddr: 0x1CBF0, symSize: 0xF0 }
  - { offset: 0x146265, size: 0x8, addend: 0x0, symName: __ZNK4llvm5APInt4rotrERKS0_, symObjAddr: 0x5F80, symBinAddr: 0x1CCE0, symSize: 0xF0 }
  - { offset: 0x14643D, size: 0x8, addend: 0x0, symName: __ZNK4llvm5APInt4rotrEj, symObjAddr: 0x6070, symBinAddr: 0x1CDD0, symSize: 0x2A0 }
  - { offset: 0x146C67, size: 0x8, addend: 0x0, symName: __ZNK4llvm5APInt4udivERKS0_, symObjAddr: 0x7120, symBinAddr: 0x1DE80, symSize: 0x3F0 }
  - { offset: 0x147491, size: 0x8, addend: 0x0, symName: __ZNK4llvm5APIntplEy, symObjAddr: 0x7510, symBinAddr: 0x1E270, symSize: 0xE0 }
  - { offset: 0x1476F6, size: 0x8, addend: 0x0, symName: __ZN4llvm5APInt6divideES0_jRKS0_jPS0_S3_, symObjAddr: 0xBAE0, symBinAddr: 0x22840, symSize: 0xDC0 }
  - { offset: 0x147E1A, size: 0x8, addend: 0x0, symName: __ZNK4llvm5APInt21multiplicativeInverseERKS0_, symObjAddr: 0x75F0, symBinAddr: 0x1E350, symSize: 0x7C0 }
  - { offset: 0x148FCC, size: 0x8, addend: 0x0, symName: __ZN4llvm5APInt7udivremERKS0_S2_RS0_S3_, symObjAddr: 0x7DB0, symBinAddr: 0x1EB10, symSize: 0x6B0 }
  - { offset: 0x149F21, size: 0x8, addend: 0x0, symName: __ZNK4llvm5APInt5magicEv, symObjAddr: 0x8460, symBinAddr: 0x1F1C0, symSize: 0x14D0 }
  - { offset: 0x14D4E6, size: 0x8, addend: 0x0, symName: __ZNK4llvm5APIntmiEy, symObjAddr: 0x9930, symBinAddr: 0x20690, symSize: 0xE0 }
  - { offset: 0x14D800, size: 0x8, addend: 0x0, symName: __ZNK4llvm5APInt6magicuEj, symObjAddr: 0x9DD0, symBinAddr: 0x20B30, symSize: 0x1D10 }
  - { offset: 0x152678, size: 0x8, addend: 0x0, symName: __ZNK4llvm5APInt4sdivERKS0_, symObjAddr: 0xC8A0, symBinAddr: 0x23600, symSize: 0x1E0 }
  - { offset: 0x152AF6, size: 0x8, addend: 0x0, symName: __ZNK4llvm5APInt4sremERKS0_, symObjAddr: 0xCA80, symBinAddr: 0x237E0, symSize: 0x1F0 }
  - { offset: 0x1531A9, size: 0x8, addend: 0x0, symName: __ZN4llvm5APInt7sdivremERKS0_S2_RS0_S3_, symObjAddr: 0xCC70, symBinAddr: 0x239D0, symSize: 0x270 }
  - { offset: 0x153804, size: 0x8, addend: 0x0, symName: __ZNK4llvm5APInt7sadd_ovERKS0_Rb, symObjAddr: 0xCEE0, symBinAddr: 0x23C40, symSize: 0xF0 }
  - { offset: 0x153A65, size: 0x8, addend: 0x0, symName: __ZNK4llvm5APInt7uadd_ovERKS0_Rb, symObjAddr: 0xCFD0, symBinAddr: 0x23D30, symSize: 0x40 }
  - { offset: 0x153B06, size: 0x8, addend: 0x0, symName: __ZNK4llvm5APInt7ssub_ovERKS0_Rb, symObjAddr: 0xD010, symBinAddr: 0x23D70, symSize: 0xF0 }
  - { offset: 0x153D65, size: 0x8, addend: 0x0, symName: __ZNK4llvm5APInt7usub_ovERKS0_Rb, symObjAddr: 0xD100, symBinAddr: 0x23E60, symSize: 0x60 }
  - { offset: 0x153F2F, size: 0x8, addend: 0x0, symName: __ZNK4llvm5APInt7sdiv_ovERKS0_Rb, symObjAddr: 0xD160, symBinAddr: 0x23EC0, symSize: 0x3F0 }
  - { offset: 0x154177, size: 0x8, addend: 0x0, symName: __ZNK4llvm5APInt7smul_ovERKS0_Rb, symObjAddr: 0xD550, symBinAddr: 0x242B0, symSize: 0x2F0 }
  - { offset: 0x154AE9, size: 0x8, addend: 0x0, symName: __ZNK4llvm5APInt7umul_ovERKS0_Rb, symObjAddr: 0xD840, symBinAddr: 0x245A0, symSize: 0x2F0 }
  - { offset: 0x155511, size: 0x8, addend: 0x0, symName: __ZNK4llvm5APInt7sshl_ovERKS0_Rb, symObjAddr: 0xDB30, symBinAddr: 0x24890, symSize: 0x4C0 }
  - { offset: 0x155F3F, size: 0x8, addend: 0x0, symName: __ZNK4llvm5APInt7ushl_ovERKS0_Rb, symObjAddr: 0xDFF0, symBinAddr: 0x24D50, symSize: 0x340 }
  - { offset: 0x156D89, size: 0x8, addend: 0x0, symName: __ZNK4llvm5APInt8toStringEjb, symObjAddr: 0xEE70, symBinAddr: 0x25BD0, symSize: 0x120 }
  - { offset: 0x1576E1, size: 0x8, addend: 0x0, symName: __ZNK4llvm5APInt4dumpEv, symObjAddr: 0xEF90, symBinAddr: 0x25CF0, symSize: 0x1F0 }
  - { offset: 0x157F7F, size: 0x8, addend: 0x0, symName: __ZNK4llvm5APInt5printERNS_11raw_ostreamEb, symObjAddr: 0xF180, symBinAddr: 0x25EE0, symSize: 0x90 }
  - { offset: 0x15831C, size: 0x8, addend: 0x0, symName: __ZN4llvm5APInt5tcSetEPyyj, symObjAddr: 0xF210, symBinAddr: 0x25F70, symSize: 0x30 }
  - { offset: 0x158359, size: 0x8, addend: 0x0, symName: __ZN4llvm5APInt8tcAssignEPyPKyj, symObjAddr: 0xF240, symBinAddr: 0x25FA0, symSize: 0xE0 }
  - { offset: 0x158392, size: 0x8, addend: 0x0, symName: __ZN4llvm5APInt8tcIsZeroEPKyj, symObjAddr: 0xF320, symBinAddr: 0x26080, symSize: 0x40 }
  - { offset: 0x1583D9, size: 0x8, addend: 0x0, symName: __ZN4llvm5APInt12tcExtractBitEPKyj, symObjAddr: 0xF360, symBinAddr: 0x260C0, symSize: 0x20 }
  - { offset: 0x15840F, size: 0x8, addend: 0x0, symName: __ZN4llvm5APInt8tcSetBitEPyj, symObjAddr: 0xF380, symBinAddr: 0x260E0, symSize: 0x20 }
  - { offset: 0x158447, size: 0x8, addend: 0x0, symName: __ZN4llvm5APInt10tcClearBitEPyj, symObjAddr: 0xF3A0, symBinAddr: 0x26100, symSize: 0x20 }
  - { offset: 0x15847F, size: 0x8, addend: 0x0, symName: __ZN4llvm5APInt5tcLSBEPKyj, symObjAddr: 0xF3C0, symBinAddr: 0x26120, symSize: 0x50 }
  - { offset: 0x15853E, size: 0x8, addend: 0x0, symName: __ZN4llvm5APInt5tcMSBEPKyj, symObjAddr: 0xF410, symBinAddr: 0x26170, symSize: 0x50 }
  - { offset: 0x158663, size: 0x8, addend: 0x0, symName: __ZN4llvm5APInt9tcExtractEPyjPKyjj, symObjAddr: 0xF460, symBinAddr: 0x261C0, symSize: 0x210 }
  - { offset: 0x1587BD, size: 0x8, addend: 0x0, symName: __ZN4llvm5APInt12tcShiftRightEPyjj, symObjAddr: 0xF670, symBinAddr: 0x263D0, symSize: 0x80 }
  - { offset: 0x15882A, size: 0x8, addend: 0x0, symName: __ZN4llvm5APInt5tcAddEPyPKyyj, symObjAddr: 0xF6F0, symBinAddr: 0x26450, symSize: 0x60 }
  - { offset: 0x1588AB, size: 0x8, addend: 0x0, symName: __ZN4llvm5APInt10tcSubtractEPyPKyyj, symObjAddr: 0xF750, symBinAddr: 0x264B0, symSize: 0x60 }
  - { offset: 0x158963, size: 0x8, addend: 0x0, symName: __ZN4llvm5APInt8tcNegateEPyj, symObjAddr: 0xF7B0, symBinAddr: 0x26510, symSize: 0xA0 }
  - { offset: 0x15899E, size: 0x8, addend: 0x0, symName: __ZN4llvm5APInt8tcNegateEPyj, symObjAddr: 0xF7B0, symBinAddr: 0x26510, symSize: 0xA0 }
  - { offset: 0x1589EF, size: 0x8, addend: 0x0, symName: __ZN4llvm5APInt12tcComplementEPyj, symObjAddr: 0xF850, symBinAddr: 0x265B0, symSize: 0x70 }
  - { offset: 0x158A20, size: 0x8, addend: 0x0, symName: __ZN4llvm5APInt11tcIncrementEPyj, symObjAddr: 0xF8C0, symBinAddr: 0x26620, symSize: 0x30 }
  - { offset: 0x158A4F, size: 0x8, addend: 0x0, symName: __ZN4llvm5APInt14tcMultiplyPartEPyPKyyyjjb, symObjAddr: 0xF8F0, symBinAddr: 0x26650, symSize: 0x140 }
  - { offset: 0x158C04, size: 0x8, addend: 0x0, symName: __ZN4llvm5APInt10tcMultiplyEPyPKyS3_j, symObjAddr: 0xFA30, symBinAddr: 0x26790, symSize: 0xB0 }
  - { offset: 0x158CE6, size: 0x8, addend: 0x0, symName: __ZN4llvm5APInt14tcFullMultiplyEPyPKyS3_jj, symObjAddr: 0xFAE0, symBinAddr: 0x26840, symSize: 0xE0 }
  - { offset: 0x158F00, size: 0x8, addend: 0x0, symName: __ZN4llvm5APInt8tcDivideEPyPKyS1_S1_j, symObjAddr: 0xFBC0, symBinAddr: 0x26920, symSize: 0x3F0 }
  - { offset: 0x159234, size: 0x8, addend: 0x0, symName: __ZN4llvm5APInt11tcShiftLeftEPyjj, symObjAddr: 0xFFB0, symBinAddr: 0x26D10, symSize: 0x90 }
  - { offset: 0x159299, size: 0x8, addend: 0x0, symName: __ZN4llvm5APInt9tcCompareEPKyS2_j, symObjAddr: 0x10040, symBinAddr: 0x26DA0, symSize: 0x40 }
  - { offset: 0x1592C8, size: 0x8, addend: 0x0, symName: __ZN4llvm5APInt5tcAndEPyPKyj, symObjAddr: 0x10080, symBinAddr: 0x26DE0, symSize: 0xF0 }
  - { offset: 0x159320, size: 0x8, addend: 0x0, symName: __ZN4llvm5APInt4tcOrEPyPKyj, symObjAddr: 0x10170, symBinAddr: 0x26ED0, symSize: 0xF0 }
  - { offset: 0x159378, size: 0x8, addend: 0x0, symName: __ZN4llvm5APInt5tcXorEPyPKyj, symObjAddr: 0x10260, symBinAddr: 0x26FC0, symSize: 0xF0 }
  - { offset: 0x1593D0, size: 0x8, addend: 0x0, symName: __ZN4llvm5APInt11tcDecrementEPyj, symObjAddr: 0x10350, symBinAddr: 0x270B0, symSize: 0x50 }
  - { offset: 0x159405, size: 0x8, addend: 0x0, symName: __ZN4llvm5APInt11tcDecrementEPyj, symObjAddr: 0x10350, symBinAddr: 0x270B0, symSize: 0x50 }
  - { offset: 0x159426, size: 0x8, addend: 0x0, symName: __ZN4llvm5APInt25tcSetLeastSignificantBitsEPyjj, symObjAddr: 0x103A0, symBinAddr: 0x27100, symSize: 0x120 }
  - { offset: 0x15B4BE, size: 0x8, addend: 0x0, symName: __ZN4llvm9DebugFlagE, symObjAddr: 0x2BE16, symBinAddr: 0x21B6F8, symSize: 0x0 }
  - { offset: 0x15B4D7, size: 0x8, addend: 0x0, symName: __ZN4llvm20EnableDebugBufferingE, symObjAddr: 0x2BE17, symBinAddr: 0x21B6F9, symSize: 0x0 }
  - { offset: 0x15B4F1, size: 0x8, addend: 0x0, symName: __ZN4llvmL16CurrentDebugTypeE, symObjAddr: 0x2BE18, symBinAddr: 0x21AAF8, symSize: 0x0 }
  - { offset: 0x15B662, size: 0x8, addend: 0x0, symName: __ZN4llvm18isCurrentDebugTypeEPKc, symObjAddr: 0x0, symBinAddr: 0x278D0, symSize: 0x120 }
  - { offset: 0x15BA3E, size: 0x8, addend: 0x0, symName: __ZN4llvm19setCurrentDebugTypeEPKc, symObjAddr: 0x120, symBinAddr: 0x279F0, symSize: 0x190 }
  - { offset: 0x15C5CB, size: 0x8, addend: 0x0, symName: __ZN4llvm4dbgsEv, symObjAddr: 0x2B0, symBinAddr: 0x27B80, symSize: 0x10 }
  - { offset: 0x161F81, size: 0x8, addend: 0x0, symName: __ZNSt3__16vectorINS_12basic_stringIcNS_11char_traitsIcEENS_9allocatorIcEEEENS4_IS6_EEE21__push_back_slow_pathIS6_EEPS6_OT_, symObjAddr: 0x3F0, symBinAddr: 0x27C20, symSize: 0x190 }
  - { offset: 0x162647, size: 0x8, addend: 0x0, symName: __ZN4llvm14object_creatorINSt3__16vectorINS1_12basic_stringIcNS1_11char_traitsIcEENS1_9allocatorIcEEEENS6_IS8_EEEEE4callEv, symObjAddr: 0x2D0, symBinAddr: 0x27B90, symSize: 0x20 }
  - { offset: 0x162745, size: 0x8, addend: 0x0, symName: __ZN4llvm14object_deleterINSt3__16vectorINS1_12basic_stringIcNS1_11char_traitsIcEENS1_9allocatorIcEEEENS6_IS8_EEEEE4callEPv, symObjAddr: 0x2F0, symBinAddr: 0x27BB0, symSize: 0x70 }
  - { offset: 0x164BE3, size: 0x8, addend: 0x0, symName: __ZN4llvm27install_fatal_error_handlerEPFvPvRKNSt3__112basic_stringIcNS1_11char_traitsIcEENS1_9allocatorIcEEEEbES0_, symObjAddr: 0x0, symBinAddr: 0x27DB0, symSize: 0x30 }
  - { offset: 0x164C01, size: 0x8, addend: 0x0, symName: __ZN4llvm24DisableABIBreakingChecksE, symObjAddr: 0x215F4, symBinAddr: 0x21B6FC, symSize: 0x0 }
  - { offset: 0x165432, size: 0x8, addend: 0x0, symName: __ZN4llvm27install_fatal_error_handlerEPFvPvRKNSt3__112basic_stringIcNS1_11char_traitsIcEENS1_9allocatorIcEEEEbES0_, symObjAddr: 0x0, symBinAddr: 0x27DB0, symSize: 0x30 }
  - { offset: 0x165471, size: 0x8, addend: 0x0, symName: __ZN4llvm26remove_fatal_error_handlerEv, symObjAddr: 0x30, symBinAddr: 0x27DE0, symSize: 0x30 }
  - { offset: 0x16549E, size: 0x8, addend: 0x0, symName: __ZN4llvm18report_fatal_errorEPKcb, symObjAddr: 0x60, symBinAddr: 0x27E10, symSize: 0x30 }
  - { offset: 0x165540, size: 0x8, addend: 0x0, symName: __ZN4llvm18report_fatal_errorERKNS_5TwineEb, symObjAddr: 0x90, symBinAddr: 0x27E40, symSize: 0x1C0 }
  - { offset: 0x165D13, size: 0x8, addend: 0x0, symName: __ZN4llvm18report_fatal_errorERKNSt3__112basic_stringIcNS0_11char_traitsIcEENS0_9allocatorIcEEEEb, symObjAddr: 0x250, symBinAddr: 0x28000, symSize: 0x20 }
  - { offset: 0x165DC7, size: 0x8, addend: 0x0, symName: __ZN4llvm18report_fatal_errorENS_9StringRefEb, symObjAddr: 0x270, symBinAddr: 0x28020, symSize: 0x30 }
  - { offset: 0x165E74, size: 0x8, addend: 0x0, symName: __ZN4llvm25llvm_unreachable_internalEPKcS1_j, symObjAddr: 0x310, symBinAddr: 0x280C0, symSize: 0x250 }
  - { offset: 0x166377, size: 0x8, addend: 0x0, symName: __ZN4llvm25llvm_cast_assert_internalEPKc, symObjAddr: 0x5B0, symBinAddr: 0x28360, symSize: 0x1B0 }
  - { offset: 0x166CF1, size: 0x8, addend: 0x0, symName: __ZL12ErrorHandler, symObjAddr: 0xA30, symBinAddr: 0x21A9C8, symSize: 0x0 }
  - { offset: 0x169DF7, size: 0x8, addend: 0x0, symName: __ZL20ErrorHandlerUserData, symObjAddr: 0xA48, symBinAddr: 0x21A9E0, symSize: 0x0 }
  - { offset: 0x16A317, size: 0x8, addend: 0x0, symName: __ZN4llvm11raw_ostreamlsEPKc, symObjAddr: 0x2A0, symBinAddr: 0x28050, symSize: 0x70 }
  - { offset: 0x16A3FF, size: 0x8, addend: 0x0, symName: __ZN4llvm11raw_ostreamlsENS_9StringRefE, symObjAddr: 0x560, symBinAddr: 0x28310, symSize: 0x50 }
  - { offset: 0x16A88D, size: 0x8, addend: 0x0, symName: __ZNSt3__112basic_stringIcNS_11char_traitsIcEENS_9allocatorIcEEE25__init_copy_ctor_externalEPKcm, symObjAddr: 0x870, symBinAddr: 0x28560, symSize: 0x90 }
  - { offset: 0x16ACBC, size: 0x8, addend: 0x0, symName: _LLVMInstallFatalErrorHandler, symObjAddr: 0x790, symBinAddr: 0x28510, symSize: 0x30 }
  - { offset: 0x16AD65, size: 0x8, addend: 0x0, symName: __ZL20bindingsErrorHandlerPvRKNSt3__112basic_stringIcNS0_11char_traitsIcEENS0_9allocatorIcEEEEb, symObjAddr: 0x7C0, symBinAddr: 0x28540, symSize: 0x20 }
  - { offset: 0x16CD6A, size: 0x8, addend: 0x0, symName: __ZNK4llvm19FoldingSetNodeIDRef11ComputeHashEv, symObjAddr: 0x0, symBinAddr: 0x285F0, symSize: 0x20 }
  - { offset: 0x16CDDF, size: 0x8, addend: 0x0, symName: __ZN4llvm7hashing6detail23hash_combine_range_implIKjEENSt3__19enable_ifIXsr16is_hashable_dataIT_EE5valueENS_9hash_codeEE4typeEPS6_SA_, symObjAddr: 0xEE0, symBinAddr: 0x292B0, symSize: 0x430 }
  - { offset: 0x1703B2, size: 0x8, addend: 0x0, symName: __ZNK4llvm19FoldingSetNodeIDRef11ComputeHashEv, symObjAddr: 0x0, symBinAddr: 0x285F0, symSize: 0x20 }
  - { offset: 0x170409, size: 0x8, addend: 0x0, symName: __ZNK4llvm19FoldingSetNodeIDRefeqES0_, symObjAddr: 0x20, symBinAddr: 0x28610, symSize: 0x30 }
  - { offset: 0x170460, size: 0x8, addend: 0x0, symName: __ZNK4llvm19FoldingSetNodeIDRefltES0_, symObjAddr: 0x50, symBinAddr: 0x28640, symSize: 0x20 }
  - { offset: 0x1705DE, size: 0x8, addend: 0x0, symName: __ZN4llvm16FoldingSetNodeID10AddPointerEPKv, symObjAddr: 0x70, symBinAddr: 0x28660, symSize: 0x50 }
  - { offset: 0x170745, size: 0x8, addend: 0x0, symName: __ZN4llvm16FoldingSetNodeID10AddIntegerEi, symObjAddr: 0xC0, symBinAddr: 0x286B0, symSize: 0x40 }
  - { offset: 0x17088F, size: 0x8, addend: 0x0, symName: __ZN4llvm16FoldingSetNodeID10AddIntegerEl, symObjAddr: 0x140, symBinAddr: 0x286F0, symSize: 0x80 }
  - { offset: 0x170B67, size: 0x8, addend: 0x0, symName: __ZN4llvm16FoldingSetNodeID9AddStringENS_9StringRefE, symObjAddr: 0x340, symBinAddr: 0x28770, symSize: 0x240 }
  - { offset: 0x1710BA, size: 0x8, addend: 0x0, symName: __ZN4llvm16FoldingSetNodeID9AddNodeIDERKS0_, symObjAddr: 0x580, symBinAddr: 0x289B0, symSize: 0x90 }
  - { offset: 0x1712FE, size: 0x8, addend: 0x0, symName: __ZNK4llvm16FoldingSetNodeID11ComputeHashEv, symObjAddr: 0x610, symBinAddr: 0x28A40, symSize: 0x20 }
  - { offset: 0x171430, size: 0x8, addend: 0x0, symName: __ZNK4llvm16FoldingSetNodeIDeqERKS0_, symObjAddr: 0x630, symBinAddr: 0x28A60, symSize: 0x40 }
  - { offset: 0x1715B1, size: 0x8, addend: 0x0, symName: __ZNK4llvm16FoldingSetNodeIDeqENS_19FoldingSetNodeIDRefE, symObjAddr: 0x670, symBinAddr: 0x28AA0, symSize: 0x30 }
  - { offset: 0x1716CE, size: 0x8, addend: 0x0, symName: __ZNK4llvm16FoldingSetNodeIDltERKS0_, symObjAddr: 0x6A0, symBinAddr: 0x28AD0, symSize: 0x40 }
  - { offset: 0x171843, size: 0x8, addend: 0x0, symName: __ZNK4llvm16FoldingSetNodeIDltENS_19FoldingSetNodeIDRefE, symObjAddr: 0x6E0, symBinAddr: 0x28B10, symSize: 0x30 }
  - { offset: 0x17196E, size: 0x8, addend: 0x0, symName: __ZNK4llvm16FoldingSetNodeID6InternERNS_20BumpPtrAllocatorImplINS_15MallocAllocatorELm4096ELm4096EEE, symObjAddr: 0x710, symBinAddr: 0x28B40, symSize: 0xE0 }
  - { offset: 0x171B20, size: 0x8, addend: 0x0, symName: __ZN4llvm20BumpPtrAllocatorImplINS_15MallocAllocatorELm4096ELm4096EE8AllocateEmm, symObjAddr: 0x1590, symBinAddr: 0x296E0, symSize: 0x16B }
  - { offset: 0x171FAF, size: 0x8, addend: 0x0, symName: __ZN4llvm14FoldingSetImpl6anchorEv, symObjAddr: 0x7F0, symBinAddr: 0x28C20, symSize: 0x10 }
  - { offset: 0x171FFE, size: 0x8, addend: 0x0, symName: __ZN4llvm14FoldingSetImplC2Ej, symObjAddr: 0x800, symBinAddr: 0x28C30, symSize: 0x80 }
  - { offset: 0x172090, size: 0x8, addend: 0x0, symName: __ZN4llvm14FoldingSetImplD2Ev, symObjAddr: 0x880, symBinAddr: 0x28CB0, symSize: 0x20 }
  - { offset: 0x1720D8, size: 0x8, addend: 0x0, symName: __ZN4llvm14FoldingSetImplD1Ev, symObjAddr: 0x8A0, symBinAddr: 0x28CD0, symSize: 0x10 }
  - { offset: 0x172103, size: 0x8, addend: 0x0, symName: __ZN4llvm14FoldingSetImpl5clearEv, symObjAddr: 0x8B0, symBinAddr: 0x28CE0, symSize: 0x40 }
  - { offset: 0x172393, size: 0x8, addend: 0x0, symName: __ZN4llvm14FoldingSetImpl13GrowHashTableEv, symObjAddr: 0x8F0, symBinAddr: 0x28D20, symSize: 0x1B0 }
  - { offset: 0x17285B, size: 0x8, addend: 0x0, symName: __ZN4llvm14FoldingSetImpl10InsertNodeEPNS0_4NodeEPv, symObjAddr: 0xAA0, symBinAddr: 0x28ED0, symSize: 0xE0 }
  - { offset: 0x172C62, size: 0x8, addend: 0x0, symName: __ZN4llvm14FoldingSetImpl19FindNodeOrInsertPosERKNS_16FoldingSetNodeIDERPv, symObjAddr: 0xB80, symBinAddr: 0x28FB0, symSize: 0x130 }
  - { offset: 0x1731AF, size: 0x8, addend: 0x0, symName: __ZN4llvm14FoldingSetImpl10RemoveNodeEPNS0_4NodeE, symObjAddr: 0xCB0, symBinAddr: 0x290E0, symSize: 0x50 }
  - { offset: 0x17329C, size: 0x8, addend: 0x0, symName: __ZN4llvm14FoldingSetImpl15GetOrInsertNodeEPNS0_4NodeE, symObjAddr: 0xD00, symBinAddr: 0x29130, symSize: 0xC0 }
  - { offset: 0x173663, size: 0x8, addend: 0x0, symName: __ZN4llvm22FoldingSetIteratorImplC2EPPv, symObjAddr: 0xDC0, symBinAddr: 0x291F0, symSize: 0x40 }
  - { offset: 0x1736BB, size: 0x8, addend: 0x0, symName: __ZN4llvm22FoldingSetIteratorImpl7advanceEv, symObjAddr: 0xE40, symBinAddr: 0x29230, symSize: 0x60 }
  - { offset: 0x17377B, size: 0x8, addend: 0x0, symName: __ZN4llvm28FoldingSetBucketIteratorImplC2EPPv, symObjAddr: 0xEA0, symBinAddr: 0x29290, symSize: 0x20 }
  - { offset: 0x1759D4, size: 0x8, addend: 0x0, symName: __ZN4llvm29set_fixed_execution_hash_seedEm, symObjAddr: 0x0, symBinAddr: 0x29850, symSize: 0xD }
  - { offset: 0x1759FC, size: 0x8, addend: 0x0, symName: __ZN4llvm7hashing6detail19fixed_seed_overrideE, symObjAddr: 0x5C18, symBinAddr: 0x21B700, symSize: 0x0 }
  - { offset: 0x175A0C, size: 0x8, addend: 0x0, symName: __ZN4llvm29set_fixed_execution_hash_seedEm, symObjAddr: 0x0, symBinAddr: 0x29850, symSize: 0xD }
  - { offset: 0x178676, size: 0x8, addend: 0x0, symName: __ZNK4llvm17ManagedStaticBase21RegisterManagedStaticEPFPvvEPFvS1_E, symObjAddr: 0x0, symBinAddr: 0x29860, symSize: 0x110 }
  - { offset: 0x1795CA, size: 0x8, addend: 0x0, symName: __ZL10StaticList, symObjAddr: 0x8BC8, symBinAddr: 0x21AB10, symSize: 0x0 }
  - { offset: 0x1795F6, size: 0x8, addend: 0x0, symName: __ZN4llvm13llvm_shutdownEv, symObjAddr: 0x150, symBinAddr: 0x299B0, symSize: 0x4B }
  - { offset: 0x17989A, size: 0x8, addend: 0x0, symName: __ZNK4llvm17ManagedStaticBase21RegisterManagedStaticEPFPvvEPFvS1_E, symObjAddr: 0x0, symBinAddr: 0x29860, symSize: 0x110 }
  - { offset: 0x179B1C, size: 0x8, addend: 0x0, symName: __ZNK4llvm17ManagedStaticBase7destroyEv, symObjAddr: 0x110, symBinAddr: 0x29970, symSize: 0x40 }
  - { offset: 0x17BB3A, size: 0x8, addend: 0x0, symName: __ZN4llvm15SmallVectorBase8grow_podEPvmm, symObjAddr: 0x0, symBinAddr: 0x29A00, symSize: 0x82 }
  - { offset: 0x17BC56, size: 0x8, addend: 0x0, symName: __ZN4llvm15SmallVectorBase8grow_podEPvmm, symObjAddr: 0x0, symBinAddr: 0x29A00, symSize: 0x82 }
  - { offset: 0x17E944, size: 0x8, addend: 0x0, symName: __ZN4llvm14StrInStrNoCaseENS_9StringRefES0_, symObjAddr: 0x0, symBinAddr: 0x29A90, symSize: 0xA0 }
  - { offset: 0x17F65B, size: 0x8, addend: 0x0, symName: __ZN4llvm14StrInStrNoCaseENS_9StringRefES0_, symObjAddr: 0x0, symBinAddr: 0x29A90, symSize: 0xA0 }
  - { offset: 0x17F73B, size: 0x8, addend: 0x0, symName: __ZN4llvm8getTokenENS_9StringRefES0_, symObjAddr: 0xA0, symBinAddr: 0x29B30, symSize: 0xA0 }
  - { offset: 0x17F928, size: 0x8, addend: 0x0, symName: __ZN4llvm11SplitStringENS_9StringRefERNS_15SmallVectorImplIS0_EES0_, symObjAddr: 0x140, symBinAddr: 0x29BD0, symSize: 0x164 }
  - { offset: 0x184C25, size: 0x8, addend: 0x0, symName: __ZNK4llvm9StringRef13compare_lowerES0_, symObjAddr: 0x0, symBinAddr: 0x29D40, symSize: 0x80 }
  - { offset: 0x184C39, size: 0x8, addend: 0x0, symName: __ZN4llvm9StringRef4nposE, symObjAddr: 0x1F68, symBinAddr: 0x1EB3E0, symSize: 0x0 }
  - { offset: 0x185C0D, size: 0x8, addend: 0x0, symName: __ZN4llvm19ComputeEditDistanceIcEEjNS_8ArrayRefIT_EES3_bj, symObjAddr: 0x390, symBinAddr: 0x2A0D0, symSize: 0x2F0 }
  - { offset: 0x185FB5, size: 0x8, addend: 0x0, symName: __ZN4llvm20getAsUnsignedIntegerENS_9StringRefEjRy, symObjAddr: 0x1100, symBinAddr: 0x2AE40, symSize: 0x150 }
  - { offset: 0x186204, size: 0x8, addend: 0x0, symName: __ZN4llvm18getAsSignedIntegerENS_9StringRefEjRx, symObjAddr: 0x1250, symBinAddr: 0x2AF90, symSize: 0x60 }
  - { offset: 0x18630E, size: 0x8, addend: 0x0, symName: __ZN4llvm10hash_valueENS_9StringRefE, symObjAddr: 0x17B0, symBinAddr: 0x2B4F0, symSize: 0x10 }
  - { offset: 0x18A16E, size: 0x8, addend: 0x0, symName: __ZNK4llvm9StringRef13compare_lowerES0_, symObjAddr: 0x0, symBinAddr: 0x29D40, symSize: 0x80 }
  - { offset: 0x18A2C6, size: 0x8, addend: 0x0, symName: __ZNK4llvm9StringRef16startswith_lowerES0_, symObjAddr: 0x80, symBinAddr: 0x29DC0, symSize: 0x70 }
  - { offset: 0x18A39D, size: 0x8, addend: 0x0, symName: __ZNK4llvm9StringRef14endswith_lowerES0_, symObjAddr: 0xF0, symBinAddr: 0x29E30, symSize: 0x80 }
  - { offset: 0x18A4BE, size: 0x8, addend: 0x0, symName: __ZNK4llvm9StringRef15compare_numericES0_, symObjAddr: 0x170, symBinAddr: 0x29EB0, symSize: 0x200 }
  - { offset: 0x18A6BB, size: 0x8, addend: 0x0, symName: __ZNK4llvm9StringRef13edit_distanceES0_bj, symObjAddr: 0x370, symBinAddr: 0x2A0B0, symSize: 0x20 }
  - { offset: 0x18AB6C, size: 0x8, addend: 0x0, symName: __ZNK4llvm9StringRef5lowerEv, symObjAddr: 0x680, symBinAddr: 0x2A3C0, symSize: 0xF0 }
  - { offset: 0x18AFD2, size: 0x8, addend: 0x0, symName: __ZNK4llvm9StringRef5upperEv, symObjAddr: 0x770, symBinAddr: 0x2A4B0, symSize: 0xF0 }
  - { offset: 0x18B46B, size: 0x8, addend: 0x0, symName: __ZNK4llvm9StringRef4findES0_m, symObjAddr: 0x860, symBinAddr: 0x2A5A0, symSize: 0x240 }
  - { offset: 0x18B6CE, size: 0x8, addend: 0x0, symName: __ZNK4llvm9StringRef5rfindES0_, symObjAddr: 0xAA0, symBinAddr: 0x2A7E0, symSize: 0xA0 }
  - { offset: 0x18B985, size: 0x8, addend: 0x0, symName: __ZNK4llvm9StringRef13find_first_ofES0_m, symObjAddr: 0xB40, symBinAddr: 0x2A880, symSize: 0xD0 }
  - { offset: 0x18BBEE, size: 0x8, addend: 0x0, symName: __ZNK4llvm9StringRef17find_first_not_ofEcm, symObjAddr: 0xC10, symBinAddr: 0x2A950, symSize: 0x40 }
  - { offset: 0x18BCC8, size: 0x8, addend: 0x0, symName: __ZNK4llvm9StringRef17find_first_not_ofES0_m, symObjAddr: 0xC50, symBinAddr: 0x2A990, symSize: 0xD0 }
  - { offset: 0x18BF31, size: 0x8, addend: 0x0, symName: __ZNK4llvm9StringRef12find_last_ofES0_m, symObjAddr: 0xD20, symBinAddr: 0x2AA60, symSize: 0xD0 }
  - { offset: 0x18C198, size: 0x8, addend: 0x0, symName: __ZNK4llvm9StringRef16find_last_not_ofEcm, symObjAddr: 0xDF0, symBinAddr: 0x2AB30, symSize: 0x40 }
  - { offset: 0x18C270, size: 0x8, addend: 0x0, symName: __ZNK4llvm9StringRef16find_last_not_ofES0_m, symObjAddr: 0xE30, symBinAddr: 0x2AB70, symSize: 0xD0 }
  - { offset: 0x18C60A, size: 0x8, addend: 0x0, symName: __ZNK4llvm9StringRef5splitERNS_15SmallVectorImplIS0_EES0_ib, symObjAddr: 0xF00, symBinAddr: 0x2AC40, symSize: 0x170 }
  - { offset: 0x18C8F5, size: 0x8, addend: 0x0, symName: __ZNK4llvm9StringRef5countES0_, symObjAddr: 0x1070, symBinAddr: 0x2ADB0, symSize: 0x90 }
  - { offset: 0x18CC55, size: 0x8, addend: 0x0, symName: __ZNK4llvm9StringRef12getAsIntegerEjRNS_5APIntE, symObjAddr: 0x12B0, symBinAddr: 0x2AFF0, symSize: 0x460 }
  - { offset: 0x18D5F1, size: 0x8, addend: 0x0, symName: __ZN4llvm5APIntlSEj, symObjAddr: 0x1710, symBinAddr: 0x2B450, symSize: 0xA0 }
  - { offset: 0x18F85F, size: 0x8, addend: 0x0, symName: __ZNK4llvm5Twine3strEv, symObjAddr: 0x0, symBinAddr: 0x2B500, symSize: 0x180 }
  - { offset: 0x193C74, size: 0x8, addend: 0x0, symName: __ZNK4llvm5Twine3strEv, symObjAddr: 0x0, symBinAddr: 0x2B500, symSize: 0x180 }
  - { offset: 0x1944A6, size: 0x8, addend: 0x0, symName: __ZNK4llvm5Twine11toStringRefERNS_15SmallVectorImplIcEE, symObjAddr: 0x180, symBinAddr: 0x2B680, symSize: 0x100 }
  - { offset: 0x194CAA, size: 0x8, addend: 0x0, symName: __ZNK4llvm5Twine13printOneChildERNS_11raw_ostreamENS0_5ChildENS0_8NodeKindE, symObjAddr: 0x400, symBinAddr: 0x2B900, symSize: 0x200 }
  - { offset: 0x194FCC, size: 0x8, addend: 0x0, symName: __ZNK4llvm5Twine8toVectorERNS_15SmallVectorImplIcEE, symObjAddr: 0x280, symBinAddr: 0x2B780, symSize: 0x60 }
  - { offset: 0x195092, size: 0x8, addend: 0x0, symName: __ZNK4llvm5Twine5printERNS_11raw_ostreamE, symObjAddr: 0x2E0, symBinAddr: 0x2B7E0, symSize: 0x30 }
  - { offset: 0x19522E, size: 0x8, addend: 0x0, symName: __ZNK4llvm5Twine25toNullTerminatedStringRefERNS_15SmallVectorImplIcEE, symObjAddr: 0x310, symBinAddr: 0x2B810, symSize: 0xF0 }
  - { offset: 0x195720, size: 0x8, addend: 0x0, symName: __ZNK4llvm5Twine17printOneChildReprERNS_11raw_ostreamENS0_5ChildENS0_8NodeKindE, symObjAddr: 0x600, symBinAddr: 0x2BB00, symSize: 0x670 }
  - { offset: 0x195F21, size: 0x8, addend: 0x0, symName: __ZNK4llvm5Twine9printReprERNS_11raw_ostreamE, symObjAddr: 0xC70, symBinAddr: 0x2C170, symSize: 0xC0 }
  - { offset: 0x196091, size: 0x8, addend: 0x0, symName: __ZNK4llvm5Twine4dumpEv, symObjAddr: 0xD30, symBinAddr: 0x2C230, symSize: 0x40 }
  - { offset: 0x19614A, size: 0x8, addend: 0x0, symName: __ZNK4llvm5Twine8dumpReprEv, symObjAddr: 0xD70, symBinAddr: 0x2C270, symSize: 0x20 }
  - { offset: 0x1988EB, size: 0x8, addend: 0x0, symName: __ZN4llvm4outsEv, symObjAddr: 0x2140, symBinAddr: 0x2E330, symSize: 0xA0 }
  - { offset: 0x198917, size: 0x8, addend: 0x0, symName: __ZZN4llvm4outsEvE1S, symObjAddr: 0x32578, symBinAddr: 0x21AB60, symSize: 0x0 }
  - { offset: 0x198D77, size: 0x8, addend: 0x0, symName: __ZN4llvm4errsEv, symObjAddr: 0x21E0, symBinAddr: 0x2E3D0, symSize: 0x90 }
  - { offset: 0x198DA3, size: 0x8, addend: 0x0, symName: __ZZN4llvm4errsEvE1S, symObjAddr: 0x325C0, symBinAddr: 0x21ABA8, symSize: 0x0 }
  - { offset: 0x198DCF, size: 0x8, addend: 0x0, symName: __ZN4llvm5nullsEv, symObjAddr: 0x2270, symBinAddr: 0x2E460, symSize: 0x90 }
  - { offset: 0x198DFB, size: 0x8, addend: 0x0, symName: __ZZN4llvm5nullsEvE1S, symObjAddr: 0x32608, symBinAddr: 0x21ABF0, symSize: 0x0 }
  - { offset: 0x19C927, size: 0x8, addend: 0x0, symName: __ZNSt3__13hexB8ne180100ERNS_8ios_baseE, symObjAddr: 0x1870, symBinAddr: 0x2DA70, symSize: 0x20 }
  - { offset: 0x19C9B5, size: 0x8, addend: 0x0, symName: __ZNSt3__13octB8ne180100ERNS_8ios_baseE, symObjAddr: 0x1890, symBinAddr: 0x2DA90, symSize: 0x20 }
  - { offset: 0x19DA43, size: 0x8, addend: 0x0, symName: __ZN4llvm11raw_ostream6indentEj, symObjAddr: 0x1430, symBinAddr: 0x2D630, symSize: 0x70 }
  - { offset: 0x19DA68, size: 0x8, addend: 0x0, symName: __ZZN4llvm11raw_ostream6indentEjE6Spaces, symObjAddr: 0x2FC0, symBinAddr: 0x1EB410, symSize: 0x0 }
  - { offset: 0x19DB78, size: 0x8, addend: 0x0, symName: __ZN4llvm11raw_ostreamD2Ev, symObjAddr: 0x0, symBinAddr: 0x2C290, symSize: 0x30 }
  - { offset: 0x19DB9B, size: 0x8, addend: 0x0, symName: __ZN4llvm11raw_ostreamD1Ev, symObjAddr: 0x30, symBinAddr: 0x2C2C0, symSize: 0x10 }
  - { offset: 0x19DBC4, size: 0x8, addend: 0x0, symName: __ZN4llvm11raw_ostreamD0Ev, symObjAddr: 0x40, symBinAddr: 0x2C2D0, symSize: 0x10 }
  - { offset: 0x19DBED, size: 0x8, addend: 0x0, symName: __ZN4llvm11raw_ostream6handleEv, symObjAddr: 0x50, symBinAddr: 0x2C2E0, symSize: 0x10 }
  - { offset: 0x19DC12, size: 0x8, addend: 0x0, symName: __ZNK4llvm11raw_ostream21preferred_buffer_sizeEv, symObjAddr: 0x60, symBinAddr: 0x2C2F0, symSize: 0x10 }
  - { offset: 0x19DCEC, size: 0x8, addend: 0x0, symName: __ZN4llvm11raw_ostream11SetBufferedEv, symObjAddr: 0x70, symBinAddr: 0x2C300, symSize: 0xC0 }
  - { offset: 0x19DE95, size: 0x8, addend: 0x0, symName: __ZN4llvm11raw_ostream16SetBufferAndModeEPcmNS0_10BufferKindE, symObjAddr: 0x130, symBinAddr: 0x2C3C0, symSize: 0x50 }
  - { offset: 0x19DF1E, size: 0x8, addend: 0x0, symName: __ZN4llvm11raw_ostreamlsEm, symObjAddr: 0x180, symBinAddr: 0x2C410, symSize: 0x1F0 }
  - { offset: 0x19E1E1, size: 0x8, addend: 0x0, symName: __ZN4llvm11raw_ostream5writeEPKcm, symObjAddr: 0x490, symBinAddr: 0x2C720, symSize: 0x1A0 }
  - { offset: 0x19E37A, size: 0x8, addend: 0x0, symName: __ZN4llvm11raw_ostream10write_baseEy, symObjAddr: 0x370, symBinAddr: 0x2C600, symSize: 0x120 }
  - { offset: 0x19E4FA, size: 0x8, addend: 0x0, symName: __ZN4llvm11raw_ostream14copy_to_bufferEPKcm, symObjAddr: 0x1290, symBinAddr: 0x2D490, symSize: 0x80 }
  - { offset: 0x19E531, size: 0x8, addend: 0x0, symName: __ZN4llvm11raw_ostreamlsEl, symObjAddr: 0x630, symBinAddr: 0x2C8C0, symSize: 0x90 }
  - { offset: 0x19E63F, size: 0x8, addend: 0x0, symName: __ZN4llvm11raw_ostreamlsEy, symObjAddr: 0x6C0, symBinAddr: 0x2C950, symSize: 0x10 }
  - { offset: 0x19E6EF, size: 0x8, addend: 0x0, symName: __ZN4llvm11raw_ostream9write_hexEy, symObjAddr: 0x760, symBinAddr: 0x2C960, symSize: 0x30 }
  - { offset: 0x19E7FB, size: 0x8, addend: 0x0, symName: __ZN4llvm11raw_ostream13write_escapedENS_9StringRefEb, symObjAddr: 0x790, symBinAddr: 0x2C990, symSize: 0x780 }
  - { offset: 0x19F50E, size: 0x8, addend: 0x0, symName: __ZN4llvm11raw_ostreamlsEPKv, symObjAddr: 0xF10, symBinAddr: 0x2D110, symSize: 0x100 }
  - { offset: 0x19F9BA, size: 0x8, addend: 0x0, symName: __ZN4llvm11raw_ostreamlsEd, symObjAddr: 0x1010, symBinAddr: 0x2D210, symSize: 0x40 }
  - { offset: 0x19FB23, size: 0x8, addend: 0x0, symName: __ZN4llvm11raw_ostreamlsERKNS_18format_object_baseE, symObjAddr: 0x1050, symBinAddr: 0x2D250, symSize: 0x190 }
  - { offset: 0x1A039E, size: 0x8, addend: 0x0, symName: __ZN4llvm11raw_ostream14flush_nonemptyEv, symObjAddr: 0x11E0, symBinAddr: 0x2D3E0, symSize: 0x20 }
  - { offset: 0x1A03DE, size: 0x8, addend: 0x0, symName: __ZN4llvm11raw_ostream5writeEh, symObjAddr: 0x1200, symBinAddr: 0x2D400, symSize: 0x90 }
  - { offset: 0x1A04E3, size: 0x8, addend: 0x0, symName: __ZN4llvm11raw_ostreamlsERKNS_15FormattedStringE, symObjAddr: 0x1310, symBinAddr: 0x2D510, symSize: 0x120 }
  - { offset: 0x1A0705, size: 0x8, addend: 0x0, symName: __ZN4llvm11raw_ostreamlsERKNS_15FormattedNumberE, symObjAddr: 0x14A0, symBinAddr: 0x2D6A0, symSize: 0x390 }
  - { offset: 0x1A0B7B, size: 0x8, addend: 0x0, symName: __ZN4llvm11raw_ostreamlsEPFRNSt3__18ios_baseES3_E, symObjAddr: 0x1830, symBinAddr: 0x2DA30, symSize: 0x40 }
  - { offset: 0x1A0C1D, size: 0x8, addend: 0x0, symName: __ZN4llvm18format_object_base4homeEv, symObjAddr: 0x18B0, symBinAddr: 0x2DAB0, symSize: 0x10 }
  - { offset: 0x1A0E1C, size: 0x8, addend: 0x0, symName: __ZN4llvm14raw_fd_ostreamC2ENS_9StringRefERNSt3__110error_codeENS_3sys2fs9OpenFlagsE, symObjAddr: 0x18C0, symBinAddr: 0x2DAC0, symSize: 0x120 }
  - { offset: 0x1A10B8, size: 0x8, addend: 0x0, symName: __ZN4llvm14raw_fd_ostreamC2Eibb, symObjAddr: 0x19E0, symBinAddr: 0x2DBE0, symSize: 0xB0 }
  - { offset: 0x1A11F9, size: 0x8, addend: 0x0, symName: __ZN4llvm14raw_fd_ostreamC1ENS_9StringRefERNSt3__110error_codeENS_3sys2fs9OpenFlagsE, symObjAddr: 0x1A90, symBinAddr: 0x2DC90, symSize: 0x120 }
  - { offset: 0x1A14CC, size: 0x8, addend: 0x0, symName: __ZN4llvm14raw_fd_ostreamC1Eibb, symObjAddr: 0x1BB0, symBinAddr: 0x2DDB0, symSize: 0xB0 }
  - { offset: 0x1A1631, size: 0x8, addend: 0x0, symName: __ZN4llvm14raw_fd_ostreamD2Ev, symObjAddr: 0x1C60, symBinAddr: 0x2DE60, symSize: 0xA0 }
  - { offset: 0x1A175A, size: 0x8, addend: 0x0, symName: __ZN4llvm14raw_fd_ostream10write_implEPKcm, symObjAddr: 0x1D40, symBinAddr: 0x2DF30, symSize: 0xB0 }
  - { offset: 0x1A1876, size: 0x8, addend: 0x0, symName: __ZN4llvm14raw_fd_ostreamD1Ev, symObjAddr: 0x1D10, symBinAddr: 0x2DF00, symSize: 0x10 }
  - { offset: 0x1A18CB, size: 0x8, addend: 0x0, symName: __ZN4llvm14raw_fd_ostreamD0Ev, symObjAddr: 0x1D20, symBinAddr: 0x2DF10, symSize: 0x20 }
  - { offset: 0x1A1986, size: 0x8, addend: 0x0, symName: __ZN4llvm14raw_fd_ostream5closeEv, symObjAddr: 0x1DF0, symBinAddr: 0x2DFE0, symSize: 0x50 }
  - { offset: 0x1A1A40, size: 0x8, addend: 0x0, symName: __ZN4llvm14raw_fd_ostream4seekEy, symObjAddr: 0x1E40, symBinAddr: 0x2E030, symSize: 0x50 }
  - { offset: 0x1A1B58, size: 0x8, addend: 0x0, symName: __ZN4llvm14raw_fd_ostream11pwrite_implEPKcmy, symObjAddr: 0x1E90, symBinAddr: 0x2E080, symSize: 0xC0 }
  - { offset: 0x1A1DB5, size: 0x8, addend: 0x0, symName: __ZNK4llvm14raw_fd_ostream21preferred_buffer_sizeEv, symObjAddr: 0x1F50, symBinAddr: 0x2E140, symSize: 0x60 }
  - { offset: 0x1A1E4F, size: 0x8, addend: 0x0, symName: __ZN4llvm14raw_fd_ostream11changeColorENS_11raw_ostream6ColorsEbb, symObjAddr: 0x1FB0, symBinAddr: 0x2E1A0, symSize: 0x90 }
  - { offset: 0x1A1F7B, size: 0x8, addend: 0x0, symName: __ZN4llvm14raw_fd_ostream10resetColorEv, symObjAddr: 0x2040, symBinAddr: 0x2E230, symSize: 0x70 }
  - { offset: 0x1A205A, size: 0x8, addend: 0x0, symName: __ZN4llvm14raw_fd_ostream12reverseColorEv, symObjAddr: 0x20B0, symBinAddr: 0x2E2A0, symSize: 0x70 }
  - { offset: 0x1A2139, size: 0x8, addend: 0x0, symName: __ZNK4llvm14raw_fd_ostream12is_displayedEv, symObjAddr: 0x2120, symBinAddr: 0x2E310, symSize: 0x10 }
  - { offset: 0x1A2163, size: 0x8, addend: 0x0, symName: __ZNK4llvm14raw_fd_ostream10has_colorsEv, symObjAddr: 0x2130, symBinAddr: 0x2E320, symSize: 0x10 }
  - { offset: 0x1A21E3, size: 0x8, addend: 0x0, symName: __ZN4llvm16raw_null_ostreamD1Ev, symObjAddr: 0x2300, symBinAddr: 0x2E4F0, symSize: 0x30 }
  - { offset: 0x1A22B6, size: 0x8, addend: 0x0, symName: __ZN4llvm18raw_string_ostreamD2Ev, symObjAddr: 0x2330, symBinAddr: 0x2E520, symSize: 0x80 }
  - { offset: 0x1A238B, size: 0x8, addend: 0x0, symName: __ZN4llvm18raw_string_ostreamD1Ev, symObjAddr: 0x23B0, symBinAddr: 0x2E5A0, symSize: 0x10 }
  - { offset: 0x1A23E0, size: 0x8, addend: 0x0, symName: __ZN4llvm18raw_string_ostreamD0Ev, symObjAddr: 0x23C0, symBinAddr: 0x2E5B0, symSize: 0x20 }
  - { offset: 0x1A2444, size: 0x8, addend: 0x0, symName: __ZN4llvm18raw_string_ostream10write_implEPKcm, symObjAddr: 0x23E0, symBinAddr: 0x2E5D0, symSize: 0x10 }
  - { offset: 0x1A247C, size: 0x8, addend: 0x0, symName: __ZN4llvm19raw_svector_ostreamC2ERNS_15SmallVectorImplIcEEj, symObjAddr: 0x23F0, symBinAddr: 0x2E5E0, symSize: 0x40 }
  - { offset: 0x1A25A1, size: 0x8, addend: 0x0, symName: __ZN4llvm19raw_svector_ostreamC2ERNS_15SmallVectorImplIcEE, symObjAddr: 0x2470, symBinAddr: 0x2E620, symSize: 0xE0 }
  - { offset: 0x1A284D, size: 0x8, addend: 0x0, symName: __ZN4llvm19raw_svector_ostream4initEv, symObjAddr: 0x2550, symBinAddr: 0x2E700, symSize: 0x80 }
  - { offset: 0x1A2A1B, size: 0x8, addend: 0x0, symName: __ZN4llvm19raw_svector_ostreamC1ERNS_15SmallVectorImplIcEE, symObjAddr: 0x25D0, symBinAddr: 0x2E780, symSize: 0x10 }
  - { offset: 0x1A2A75, size: 0x8, addend: 0x0, symName: __ZN4llvm19raw_svector_ostreamD2Ev, symObjAddr: 0x25E0, symBinAddr: 0x2E790, symSize: 0x60 }
  - { offset: 0x1A2B37, size: 0x8, addend: 0x0, symName: __ZN4llvm19raw_svector_ostream10write_implEPKcm, symObjAddr: 0x27E0, symBinAddr: 0x2E990, symSize: 0xF0 }
  - { offset: 0x1A2EBD, size: 0x8, addend: 0x0, symName: __ZN4llvm19raw_svector_ostreamD1Ev, symObjAddr: 0x2640, symBinAddr: 0x2E7F0, symSize: 0x60 }
  - { offset: 0x1A2FB5, size: 0x8, addend: 0x0, symName: __ZN4llvm19raw_svector_ostreamD0Ev, symObjAddr: 0x26A0, symBinAddr: 0x2E850, symSize: 0x60 }
  - { offset: 0x1A30B0, size: 0x8, addend: 0x0, symName: __ZN4llvm19raw_svector_ostream11pwrite_implEPKcmy, symObjAddr: 0x2700, symBinAddr: 0x2E8B0, symSize: 0x60 }
  - { offset: 0x1A3166, size: 0x8, addend: 0x0, symName: __ZN4llvm19raw_svector_ostream6resyncEv, symObjAddr: 0x2760, symBinAddr: 0x2E910, symSize: 0x80 }
  - { offset: 0x1A33B0, size: 0x8, addend: 0x0, symName: __ZNK4llvm19raw_svector_ostream11current_posEv, symObjAddr: 0x28D0, symBinAddr: 0x2EA80, symSize: 0x20 }
  - { offset: 0x1A3415, size: 0x8, addend: 0x0, symName: __ZN4llvm19raw_svector_ostream3strEv, symObjAddr: 0x28F0, symBinAddr: 0x2EAA0, symSize: 0x40 }
  - { offset: 0x1A3511, size: 0x8, addend: 0x0, symName: __ZN4llvm16raw_null_ostreamD0Ev, symObjAddr: 0x2960, symBinAddr: 0x2EAE0, symSize: 0x40 }
  - { offset: 0x1A35BB, size: 0x8, addend: 0x0, symName: __ZN4llvm16raw_null_ostream10write_implEPKcm, symObjAddr: 0x29A0, symBinAddr: 0x2EB20, symSize: 0x10 }
  - { offset: 0x1A35FB, size: 0x8, addend: 0x0, symName: __ZNK4llvm16raw_null_ostream11current_posEv, symObjAddr: 0x29B0, symBinAddr: 0x2EB30, symSize: 0x10 }
  - { offset: 0x1A3621, size: 0x8, addend: 0x0, symName: __ZN4llvm16raw_null_ostream11pwrite_implEPKcmy, symObjAddr: 0x29C0, symBinAddr: 0x2EB40, symSize: 0x10 }
  - { offset: 0x1A366E, size: 0x8, addend: 0x0, symName: __ZN4llvm11raw_ostream5closeEv, symObjAddr: 0x29D0, symBinAddr: 0x2EB50, symSize: 0x30 }
  - { offset: 0x1A36E3, size: 0x8, addend: 0x0, symName: __ZNK4llvm11raw_ostream9has_errorEv, symObjAddr: 0x2A00, symBinAddr: 0x2EB80, symSize: 0x10 }
  - { offset: 0x1A3708, size: 0x8, addend: 0x0, symName: __ZN4llvm11raw_ostream11clear_errorEv, symObjAddr: 0x2A10, symBinAddr: 0x2EB90, symSize: 0x10 }
  - { offset: 0x1A372D, size: 0x8, addend: 0x0, symName: __ZN4llvm11raw_ostream11changeColorENS0_6ColorsEbb, symObjAddr: 0x2A20, symBinAddr: 0x2EBA0, symSize: 0x10 }
  - { offset: 0x1A3797, size: 0x8, addend: 0x0, symName: __ZN4llvm11raw_ostream10resetColorEv, symObjAddr: 0x2A30, symBinAddr: 0x2EBB0, symSize: 0x10 }
  - { offset: 0x1A37BE, size: 0x8, addend: 0x0, symName: __ZN4llvm11raw_ostream12reverseColorEv, symObjAddr: 0x2A40, symBinAddr: 0x2EBC0, symSize: 0x10 }
  - { offset: 0x1A37E5, size: 0x8, addend: 0x0, symName: __ZNK4llvm11raw_ostream12is_displayedEv, symObjAddr: 0x2A50, symBinAddr: 0x2EBD0, symSize: 0x10 }
  - { offset: 0x1A380A, size: 0x8, addend: 0x0, symName: __ZNK4llvm11raw_ostream10has_colorsEv, symObjAddr: 0x2A60, symBinAddr: 0x2EBE0, symSize: 0x10 }
  - { offset: 0x1A38A1, size: 0x8, addend: 0x0, symName: __ZNK4llvm18raw_string_ostream11current_posEv, symObjAddr: 0x2A70, symBinAddr: 0x2EBF0, symSize: 0x20 }
  - { offset: 0x1A3931, size: 0x8, addend: 0x0, symName: __ZNK4llvm14raw_fd_ostream9has_errorEv, symObjAddr: 0x2A90, symBinAddr: 0x2EC10, symSize: 0x10 }
  - { offset: 0x1A3956, size: 0x8, addend: 0x0, symName: __ZN4llvm14raw_fd_ostream11clear_errorEv, symObjAddr: 0x2AA0, symBinAddr: 0x2EC20, symSize: 0x10 }
  - { offset: 0x1A397B, size: 0x8, addend: 0x0, symName: __ZNK4llvm14raw_fd_ostream11current_posEv, symObjAddr: 0x2AB0, symBinAddr: 0x2EC30, symSize: 0x10 }
  - { offset: 0x1A39E7, size: 0x8, addend: 0x0, symName: __ZNK4llvm13format_objectIJdEE7snprintEPcj, symObjAddr: 0x2AC0, symBinAddr: 0x2EC40, symSize: 0x1D }
  - { offset: 0x1A5964, size: 0x8, addend: 0x0, symName: __ZN4llvm3sys8StrErrorEv, symObjAddr: 0x0, symBinAddr: 0x2EC60, symSize: 0xA0 }
  - { offset: 0x1A8744, size: 0x8, addend: 0x0, symName: __ZN4llvm3sys8StrErrorEv, symObjAddr: 0x0, symBinAddr: 0x2EC60, symSize: 0xA0 }
  - { offset: 0x1A89A3, size: 0x8, addend: 0x0, symName: __ZN4llvm3sys8StrErrorEi, symObjAddr: 0xA0, symBinAddr: 0x2ED00, symSize: 0x9A }
  - { offset: 0x1AACF3, size: 0x8, addend: 0x0, symName: __ZN4llvm3sys9MutexImplC2Eb, symObjAddr: 0x0, symBinAddr: 0x2EDA0, symSize: 0x90 }
  - { offset: 0x1AAEFC, size: 0x8, addend: 0x0, symName: __ZN4llvm3sys9MutexImplD2Ev, symObjAddr: 0x120, symBinAddr: 0x2EE30, symSize: 0x30 }
  - { offset: 0x1AAFA7, size: 0x8, addend: 0x0, symName: __ZN4llvm3sys9MutexImplD1Ev, symObjAddr: 0x160, symBinAddr: 0x2EE60, symSize: 0x30 }
  - { offset: 0x1AB031, size: 0x8, addend: 0x0, symName: __ZN4llvm3sys9MutexImpl7acquireEv, symObjAddr: 0x190, symBinAddr: 0x2EE90, symSize: 0x20 }
  - { offset: 0x1AB09B, size: 0x8, addend: 0x0, symName: __ZN4llvm3sys9MutexImpl7releaseEv, symObjAddr: 0x1B0, symBinAddr: 0x2EEB0, symSize: 0x20 }
  - { offset: 0x1AB105, size: 0x8, addend: 0x0, symName: __ZN4llvm3sys9MutexImpl10tryacquireEv, symObjAddr: 0x1D0, symBinAddr: 0x2EED0, symSize: 0x13 }
  - { offset: 0x1AB1BE, size: 0x8, addend: 0x0, symName: __ZN4llvm3sys2fs8threadFSE, symObjAddr: 0x58EC, symBinAddr: 0x21A9F8, symSize: 0x0 }
  - { offset: 0x1AB80F, size: 0x8, addend: 0x0, symName: __ZN4llvm3sys2fs11InitializedE, symObjAddr: 0x591B8, symBinAddr: 0x21B708, symSize: 0x0 }
  - { offset: 0x1ABF30, size: 0x8, addend: 0x0, symName: __ZN4llvm3sys2fs11getUniqueIDENS_5TwineERNS1_8UniqueIDE, symObjAddr: 0x1C50, symBinAddr: 0x30A90, symSize: 0x60 }
  - { offset: 0x1AC061, size: 0x8, addend: 0x0, symName: __ZN4llvm3sys2fs6statusERKNS_5TwineERNS1_11file_statusE, symObjAddr: 0x1CB0, symBinAddr: 0x30AF0, symSize: 0xC0 }
  - { offset: 0x1AC3C0, size: 0x8, addend: 0x0, symName: __ZN4llvm3sys2fsL10fillStatusEiRK4statRNS1_11file_statusE, symObjAddr: 0x4580, symBinAddr: 0x333C0, symSize: 0x140 }
  - { offset: 0x1AC5CB, size: 0x8, addend: 0x0, symName: __ZN4llvm3sys2fs16createUniqueFileERKNS_5TwineERiRNS_15SmallVectorImplIcEEj, symObjAddr: 0x1D80, symBinAddr: 0x30BC0, symSize: 0x20 }
  - { offset: 0x1AC664, size: 0x8, addend: 0x0, symName: __ZN4llvm3sys2fs16openFileForWriteERKNS_5TwineERiNS1_9OpenFlagsEj, symObjAddr: 0x3070, symBinAddr: 0x31EB0, symSize: 0x130 }
  - { offset: 0x1ACA20, size: 0x8, addend: 0x0, symName: __ZN4llvm3sys2fs16create_directoryERKNS_5TwineEb, symObjAddr: 0x2CF0, symBinAddr: 0x31B30, symSize: 0xC0 }
  - { offset: 0x1ACD59, size: 0x8, addend: 0x0, symName: __ZN4llvm3sys2fs6accessERKNS_5TwineENS1_10AccessModeE, symObjAddr: 0x4360, symBinAddr: 0x331A0, symSize: 0x140 }
  - { offset: 0x1AD17A, size: 0x8, addend: 0x0, symName: __ZN4llvm3sys2fs16createUniqueFileERKNS_5TwineERNS_15SmallVectorImplIcEE, symObjAddr: 0x21C0, symBinAddr: 0x31000, symSize: 0x30 }
  - { offset: 0x1AD204, size: 0x8, addend: 0x0, symName: __ZN4llvm3sys2fs19createTemporaryFileERKNS_5TwineENS_9StringRefERiRNS_15SmallVectorImplIcEE, symObjAddr: 0x21F0, symBinAddr: 0x31030, symSize: 0x10 }
  - { offset: 0x1AD29F, size: 0x8, addend: 0x0, symName: __ZN4llvm3sys2fsL19createTemporaryFileERKNS_5TwineENS_9StringRefERiRNS_15SmallVectorImplIcEE8FSEntity, symObjAddr: 0x2200, symBinAddr: 0x31040, symSize: 0x1B0 }
  - { offset: 0x1AD9DF, size: 0x8, addend: 0x0, symName: __ZN4llvm3sys2fs19createTemporaryFileERKNS_5TwineENS_9StringRefERNS_15SmallVectorImplIcEE, symObjAddr: 0x23B0, symBinAddr: 0x311F0, symSize: 0x20 }
  - { offset: 0x1ADA7E, size: 0x8, addend: 0x0, symName: __ZN4llvm3sys2fs21createUniqueDirectoryERKNS_5TwineERNS_15SmallVectorImplIcEE, symObjAddr: 0x23D0, symBinAddr: 0x31210, symSize: 0x80 }
  - { offset: 0x1ADC98, size: 0x8, addend: 0x0, symName: __ZN4llvm3sys2fs13make_absoluteERNS_15SmallVectorImplIcEE, symObjAddr: 0x2450, symBinAddr: 0x31290, symSize: 0x310 }
  - { offset: 0x1AEBEC, size: 0x8, addend: 0x0, symName: __ZN4llvm3sys2fs12current_pathERNS_15SmallVectorImplIcEE, symObjAddr: 0x2760, symBinAddr: 0x315A0, symSize: 0x240 }
  - { offset: 0x1AF30E, size: 0x8, addend: 0x0, symName: __ZN4llvm3sys2fs18create_directoriesERKNS_5TwineEb, symObjAddr: 0x2B80, symBinAddr: 0x319C0, symSize: 0x170 }
  - { offset: 0x1AF977, size: 0x8, addend: 0x0, symName: __ZN4llvm3sys2fs9copy_fileERKNS_5TwineES4_, symObjAddr: 0x2DB0, symBinAddr: 0x31BF0, symSize: 0x1E0 }
  - { offset: 0x1AFD4E, size: 0x8, addend: 0x0, symName: __ZN4llvm3sys2fs15openFileForReadERKNS_5TwineERi, symObjAddr: 0x2F90, symBinAddr: 0x31DD0, symSize: 0xE0 }
  - { offset: 0x1B00D3, size: 0x8, addend: 0x0, symName: __ZN4llvm3sys2fs9msf_closeEi, symObjAddr: 0x31A0, symBinAddr: 0x31FE0, symSize: 0x40 }
  - { offset: 0x1B0138, size: 0x8, addend: 0x0, symName: __ZN4llvm3sys2fs8msf_readEiPvj, symObjAddr: 0x31E0, symBinAddr: 0x32020, symSize: 0x50 }
  - { offset: 0x1B01B1, size: 0x8, addend: 0x0, symName: __ZN4llvm3sys2fs9msf_writeEiPKvj, symObjAddr: 0x3230, symBinAddr: 0x32070, symSize: 0x50 }
  - { offset: 0x1B022A, size: 0x8, addend: 0x0, symName: __ZN4llvm3sys2fs6existsENS1_11file_statusE, symObjAddr: 0x3280, symBinAddr: 0x320C0, symSize: 0x10 }
  - { offset: 0x1B025A, size: 0x8, addend: 0x0, symName: __ZN4llvm3sys2fs12status_knownENS1_11file_statusE, symObjAddr: 0x3290, symBinAddr: 0x320D0, symSize: 0x10 }
  - { offset: 0x1B028A, size: 0x8, addend: 0x0, symName: __ZN4llvm3sys2fs12is_directoryENS1_11file_statusE, symObjAddr: 0x32A0, symBinAddr: 0x320E0, symSize: 0x10 }
  - { offset: 0x1B02C8, size: 0x8, addend: 0x0, symName: __ZN4llvm3sys2fs12is_directoryERKNS_5TwineERb, symObjAddr: 0x32B0, symBinAddr: 0x320F0, symSize: 0x50 }
  - { offset: 0x1B03FF, size: 0x8, addend: 0x0, symName: __ZN4llvm3sys2fs15is_regular_fileENS1_11file_statusE, symObjAddr: 0x3300, symBinAddr: 0x32140, symSize: 0x10 }
  - { offset: 0x1B043D, size: 0x8, addend: 0x0, symName: __ZN4llvm3sys2fs15is_regular_fileERKNS_5TwineERb, symObjAddr: 0x3310, symBinAddr: 0x32150, symSize: 0x50 }
  - { offset: 0x1B0574, size: 0x8, addend: 0x0, symName: __ZN4llvm3sys2fs8is_otherENS1_11file_statusE, symObjAddr: 0x3360, symBinAddr: 0x321A0, symSize: 0x10 }
  - { offset: 0x1B05B2, size: 0x8, addend: 0x0, symName: __ZN4llvm3sys2fs8is_otherERKNS_5TwineERb, symObjAddr: 0x3370, symBinAddr: 0x321B0, symSize: 0x50 }
  - { offset: 0x1B06E9, size: 0x8, addend: 0x0, symName: __ZN4llvm3sys2fs14identify_magicENS_9StringRefE, symObjAddr: 0x3780, symBinAddr: 0x325C0, symSize: 0x5A0 }
  - { offset: 0x1B08BC, size: 0x8, addend: 0x0, symName: __ZN4llvm3sys2fs14identify_magicERKNS_5TwineERNS1_10file_magicE, symObjAddr: 0x3D20, symBinAddr: 0x32B60, symSize: 0x110 }
  - { offset: 0x1B0AE3, size: 0x8, addend: 0x0, symName: __ZN4llvm3sys2fs17getMainExecutableEPKcPv, symObjAddr: 0x3E60, symBinAddr: 0x32CA0, symSize: 0x120 }
  - { offset: 0x1B10A7, size: 0x8, addend: 0x0, symName: __ZN4llvm3sys2fs11create_linkERKNS_5TwineES4_, symObjAddr: 0x3FC0, symBinAddr: 0x32E00, symSize: 0x120 }
  - { offset: 0x1B1651, size: 0x8, addend: 0x0, symName: __ZN4llvm3sys2fs6removeERKNS_5TwineEb, symObjAddr: 0x40E0, symBinAddr: 0x32F20, symSize: 0x120 }
  - { offset: 0x1B19DB, size: 0x8, addend: 0x0, symName: __ZN4llvm3sys2fs6renameERKNS_5TwineES4_, symObjAddr: 0x4200, symBinAddr: 0x33040, symSize: 0x120 }
  - { offset: 0x1B1F93, size: 0x8, addend: 0x0, symName: __ZN4llvm3sys2fs11resize_fileEiy, symObjAddr: 0x4320, symBinAddr: 0x33160, symSize: 0x40 }
  - { offset: 0x1B206A, size: 0x8, addend: 0x0, symName: __ZN4llvm3sys2fs10equivalentENS1_11file_statusES2_, symObjAddr: 0x44A0, symBinAddr: 0x332E0, symSize: 0x20 }
  - { offset: 0x1B20BF, size: 0x8, addend: 0x0, symName: __ZN4llvm3sys2fs10equivalentERKNS_5TwineES4_Rb, symObjAddr: 0x44C0, symBinAddr: 0x33300, symSize: 0xA0 }
  - { offset: 0x1B22B6, size: 0x8, addend: 0x0, symName: __ZN4llvm3sys2fs26GetCurrentThreadFileSystemEv, symObjAddr: 0x4560, symBinAddr: 0x333A0, symSize: 0x20 }
  - { offset: 0x1B22D7, size: 0x8, addend: 0x0, symName: __ZN4llvm3sys2fs6statusEiRNS1_11file_statusE, symObjAddr: 0x46C0, symBinAddr: 0x33500, symSize: 0x50 }
  - { offset: 0x1B239F, size: 0x8, addend: 0x0, symName: __ZN4llvm3sys2fs32setLastModificationAndAccessTimeEiNS0_9TimeValueE, symObjAddr: 0x4710, symBinAddr: 0x33550, symSize: 0x80 }
  - { offset: 0x1B2480, size: 0x8, addend: 0x0, symName: __ZN4llvm3sys2fs6detail28directory_iterator_constructERNS2_12DirIterStateENS_9StringRefE, symObjAddr: 0x49C0, symBinAddr: 0x33740, symSize: 0x2A0 }
  - { offset: 0x1B2D0A, size: 0x8, addend: 0x0, symName: __ZN4llvm3sys2fs6detail28directory_iterator_incrementERNS2_12DirIterStateE, symObjAddr: 0x4C60, symBinAddr: 0x339E0, symSize: 0x1A0 }
  - { offset: 0x1B3104, size: 0x8, addend: 0x0, symName: __ZN4llvm3sys2fs6detail27directory_iterator_destructERNS2_12DirIterStateE, symObjAddr: 0x4E00, symBinAddr: 0x33B80, symSize: 0xB0 }
  - { offset: 0x1B32DA, size: 0x8, addend: 0x0, symName: __ZN4llvm3sys2fs24SetupPerThreadFileSystemEv, symObjAddr: 0x5130, symBinAddr: 0x33EB0, symSize: 0x20 }
  - { offset: 0x1B339E, size: 0x8, addend: 0x0, symName: __ZN4llvm3sys2fs26SetCurrentThreadFileSystemEPNS1_12MSFileSystemE, symObjAddr: 0x5160, symBinAddr: 0x33ED0, symSize: 0x40 }
  - { offset: 0x1B3405, size: 0x8, addend: 0x0, symName: __ZN4llvm3sys2fs9msf_lseekEili, symObjAddr: 0x51A0, symBinAddr: 0x33F10, symSize: 0x40 }
  - { offset: 0x1B34A5, size: 0x8, addend: 0x0, symName: __ZN4llvm3sys2fs11msf_setmodeEii, symObjAddr: 0x51E0, symBinAddr: 0x33F50, symSize: 0x40 }
  - { offset: 0x1B3547, size: 0x8, addend: 0x0, symName: __ZN4llvm3sys4pathL26preferred_separator_stringE, symObjAddr: 0x5880, symBinAddr: 0x1EB550, symSize: 0x0 }
  - { offset: 0x1B3634, size: 0x8, addend: 0x0, symName: __ZN4llvm3sys4path5beginENS_9StringRefE, symObjAddr: 0x0, symBinAddr: 0x2EEF0, symSize: 0xB0 }
  - { offset: 0x1B382F, size: 0x8, addend: 0x0, symName: __ZN4llvm3sys4path3endENS_9StringRefE, symObjAddr: 0xB0, symBinAddr: 0x2EFA0, symSize: 0x20 }
  - { offset: 0x1B38EA, size: 0x8, addend: 0x0, symName: __ZN4llvm3sys4path12is_separatorEc, symObjAddr: 0x1E0, symBinAddr: 0x2F0D0, symSize: 0x10 }
  - { offset: 0x1B39AB, size: 0x8, addend: 0x0, symName: __ZN4llvm3sys4path6rbeginENS_9StringRefE, symObjAddr: 0x220, symBinAddr: 0x2F110, symSize: 0x50 }
  - { offset: 0x1B3A6E, size: 0x8, addend: 0x0, symName: __ZN4llvm3sys4path4rendENS_9StringRefE, symObjAddr: 0x400, symBinAddr: 0x2F2F0, symSize: 0x20 }
  - { offset: 0x1B3ADA, size: 0x8, addend: 0x0, symName: __ZN4llvm3sys4path9root_pathENS_9StringRefE, symObjAddr: 0x470, symBinAddr: 0x2F360, symSize: 0x170 }
  - { offset: 0x1B3F98, size: 0x8, addend: 0x0, symName: __ZN4llvm3sys4path9root_nameENS_9StringRefE, symObjAddr: 0x5E0, symBinAddr: 0x2F4D0, symSize: 0x90 }
  - { offset: 0x1B41FD, size: 0x8, addend: 0x0, symName: __ZN4llvm3sys4path14root_directoryENS_9StringRefE, symObjAddr: 0x670, symBinAddr: 0x2F560, symSize: 0x140 }
  - { offset: 0x1B467D, size: 0x8, addend: 0x0, symName: __ZN4llvm3sys4path13relative_pathENS_9StringRefE, symObjAddr: 0x7B0, symBinAddr: 0x2F6A0, symSize: 0x30 }
  - { offset: 0x1B46F4, size: 0x8, addend: 0x0, symName: __ZN4llvm3sys4path6appendERNS_15SmallVectorImplIcEERKNS_5TwineES7_S7_S7_, symObjAddr: 0x7E0, symBinAddr: 0x2F6D0, symSize: 0x5E0 }
  - { offset: 0x1B5E4F, size: 0x8, addend: 0x0, symName: __ZN4llvm3sys4path13has_root_nameERKNS_5TwineE, symObjAddr: 0xE70, symBinAddr: 0x2FCB0, symSize: 0xE0 }
  - { offset: 0x1B62E3, size: 0x8, addend: 0x0, symName: __ZN4llvm3sys4path6appendERNS_15SmallVectorImplIcEENS1_14const_iteratorES5_, symObjAddr: 0xF50, symBinAddr: 0x2FD90, symSize: 0xA0 }
  - { offset: 0x1B64CF, size: 0x8, addend: 0x0, symName: __ZN4llvm3sys4path11parent_pathENS_9StringRefE, symObjAddr: 0xFF0, symBinAddr: 0x2FE30, symSize: 0x40 }
  - { offset: 0x1B6517, size: 0x8, addend: 0x0, symName: __ZN4llvm3sys4path15remove_filenameERNS_15SmallVectorImplIcEE, symObjAddr: 0x11A0, symBinAddr: 0x2FFE0, symSize: 0x30 }
  - { offset: 0x1B6600, size: 0x8, addend: 0x0, symName: __ZN4llvm3sys4path17replace_extensionERNS_15SmallVectorImplIcEERKNS_5TwineE, symObjAddr: 0x11D0, symBinAddr: 0x30010, symSize: 0x1E0 }
  - { offset: 0x1B6D07, size: 0x8, addend: 0x0, symName: __ZN4llvm3sys4path6nativeERKNS_5TwineERNS_15SmallVectorImplIcEE, symObjAddr: 0x13B0, symBinAddr: 0x301F0, symSize: 0x60 }
  - { offset: 0x1B6DE7, size: 0x8, addend: 0x0, symName: __ZN4llvm3sys4path6nativeERNS_15SmallVectorImplIcEE, symObjAddr: 0x1410, symBinAddr: 0x30250, symSize: 0x50 }
  - { offset: 0x1B6E9B, size: 0x8, addend: 0x0, symName: __ZN4llvm3sys4path8filenameENS_9StringRefE, symObjAddr: 0x1460, symBinAddr: 0x302A0, symSize: 0x40 }
  - { offset: 0x1B6F9F, size: 0x8, addend: 0x0, symName: __ZN4llvm3sys4path4stemENS_9StringRefE, symObjAddr: 0x14A0, symBinAddr: 0x302E0, symSize: 0x90 }
  - { offset: 0x1B7207, size: 0x8, addend: 0x0, symName: __ZN4llvm3sys4path9extensionENS_9StringRefE, symObjAddr: 0x1530, symBinAddr: 0x30370, symSize: 0xA0 }
  - { offset: 0x1B7470, size: 0x8, addend: 0x0, symName: __ZN4llvm3sys4path13get_separatorEv, symObjAddr: 0x15D0, symBinAddr: 0x30410, symSize: 0x20 }
  - { offset: 0x1B748F, size: 0x8, addend: 0x0, symName: __ZN4llvm3sys4path18has_root_directoryERKNS_5TwineE, symObjAddr: 0x15F0, symBinAddr: 0x30430, symSize: 0xA0 }
  - { offset: 0x1B7768, size: 0x8, addend: 0x0, symName: __ZN4llvm3sys4path13has_root_pathERKNS_5TwineE, symObjAddr: 0x1690, symBinAddr: 0x304D0, symSize: 0xA0 }
  - { offset: 0x1B7A8E, size: 0x8, addend: 0x0, symName: __ZN4llvm3sys4path17has_relative_pathERKNS_5TwineE, symObjAddr: 0x1730, symBinAddr: 0x30570, symSize: 0xA0 }
  - { offset: 0x1B7DA8, size: 0x8, addend: 0x0, symName: __ZN4llvm3sys4path12has_filenameERKNS_5TwineE, symObjAddr: 0x17D0, symBinAddr: 0x30610, symSize: 0xB0 }
  - { offset: 0x1B81A6, size: 0x8, addend: 0x0, symName: __ZN4llvm3sys4path15has_parent_pathERKNS_5TwineE, symObjAddr: 0x1880, symBinAddr: 0x306C0, symSize: 0xB0 }
  - { offset: 0x1B84EA, size: 0x8, addend: 0x0, symName: __ZN4llvm3sys4path8has_stemERKNS_5TwineE, symObjAddr: 0x1930, symBinAddr: 0x30770, symSize: 0x110 }
  - { offset: 0x1B8A79, size: 0x8, addend: 0x0, symName: __ZN4llvm3sys4path13has_extensionERKNS_5TwineE, symObjAddr: 0x1A40, symBinAddr: 0x30880, symSize: 0xF0 }
  - { offset: 0x1B8FC0, size: 0x8, addend: 0x0, symName: __ZN4llvm3sys4path11is_absoluteERKNS_5TwineE, symObjAddr: 0x1B30, symBinAddr: 0x30970, symSize: 0x110 }
  - { offset: 0x1B95DE, size: 0x8, addend: 0x0, symName: __ZN4llvm3sys4path11is_relativeERKNS_5TwineE, symObjAddr: 0x1C40, symBinAddr: 0x30A80, symSize: 0x10 }
  - { offset: 0x1B9626, size: 0x8, addend: 0x0, symName: __ZN4llvm3sys4path21system_temp_directoryEbRNS_15SmallVectorImplIcEE, symObjAddr: 0x4F40, symBinAddr: 0x33CC0, symSize: 0x1F0 }
  - { offset: 0x1B9BAE, size: 0x8, addend: 0x0, symName: __ZN4llvm3sys4path14home_directoryERNS_15SmallVectorImplIcEE, symObjAddr: 0x4EB0, symBinAddr: 0x33C30, symSize: 0x90 }
  - { offset: 0x1BA150, size: 0x8, addend: 0x0, symName: __ZN4llvm4COFFL11BigObjMagicE, symObjAddr: 0x5890, symBinAddr: 0x1EB560, symSize: 0x0 }
  - { offset: 0x1BA16A, size: 0x8, addend: 0x0, symName: __ZN4llvm4COFFL7PEMagicE, symObjAddr: 0x58A9, symBinAddr: 0x1EB579, symSize: 0x0 }
  - { offset: 0x1BC433, size: 0x8, addend: 0x0, symName: __ZN12_GLOBAL__N_115parent_path_endEN4llvm9StringRefE, symObjAddr: 0x1030, symBinAddr: 0x2FE70, symSize: 0x170 }
  - { offset: 0x1C083B, size: 0x8, addend: 0x0, symName: __ZN4llvm3sys4path14const_iteratorppEv, symObjAddr: 0xD0, symBinAddr: 0x2EFC0, symSize: 0x110 }
  - { offset: 0x1C0ACE, size: 0x8, addend: 0x0, symName: __ZNK4llvm3sys4path14const_iteratoreqERKS2_, symObjAddr: 0x1F0, symBinAddr: 0x2F0E0, symSize: 0x20 }
  - { offset: 0x1C0B16, size: 0x8, addend: 0x0, symName: __ZNK4llvm3sys4path14const_iteratormiERKS2_, symObjAddr: 0x210, symBinAddr: 0x2F100, symSize: 0x10 }
  - { offset: 0x1C0BB4, size: 0x8, addend: 0x0, symName: __ZN4llvm3sys4path16reverse_iteratorppEv, symObjAddr: 0x270, symBinAddr: 0x2F160, symSize: 0x190 }
  - { offset: 0x1C0F7B, size: 0x8, addend: 0x0, symName: __ZNK4llvm3sys4path16reverse_iteratoreqERKS2_, symObjAddr: 0x420, symBinAddr: 0x2F310, symSize: 0x50 }
  - { offset: 0x1C1C3D, size: 0x8, addend: 0x0, symName: __ZNK4llvm3sys2fs11file_status11getUniqueIDEv, symObjAddr: 0x1D70, symBinAddr: 0x30BB0, symSize: 0x10 }
  - { offset: 0x1C1C5E, size: 0x8, addend: 0x0, symName: __ZL18createUniqueEntityRKN4llvm5TwineERiRNS_15SmallVectorImplIcEEbj8FSEntity, symObjAddr: 0x1DA0, symBinAddr: 0x30BE0, symSize: 0x420 }
  - { offset: 0x1C2FB9, size: 0x8, addend: 0x0, symName: __ZN4llvm15SmallVectorImplIcE4swapERS1_, symObjAddr: 0x29A0, symBinAddr: 0x317E0, symSize: 0x1E0 }
  - { offset: 0x1C3EC8, size: 0x8, addend: 0x0, symName: __ZN4llvm3sys2fs15directory_entry16replace_filenameERKNS_5TwineENS1_11file_statusE, symObjAddr: 0x33C0, symBinAddr: 0x32200, symSize: 0x3C0 }
  - { offset: 0x1C4D94, size: 0x8, addend: 0x0, symName: __ZNK4llvm3sys2fs15directory_entry6statusERNS1_11file_statusE, symObjAddr: 0x3E30, symBinAddr: 0x32C70, symSize: 0x30 }
  - { offset: 0x1C4F10, size: 0x8, addend: 0x0, symName: __ZNK4llvm3sys2fs11file_status23getLastModificationTimeEv, symObjAddr: 0x3F80, symBinAddr: 0x32DC0, symSize: 0x40 }
  - { offset: 0x1C509A, size: 0x8, addend: 0x0, symName: __ZN4llvm3sys2fs18mapped_file_region4initEiyNS2_7mapmodeE, symObjAddr: 0x4790, symBinAddr: 0x335D0, symSize: 0x60 }
  - { offset: 0x1C51F7, size: 0x8, addend: 0x0, symName: __ZN4llvm3sys2fs18mapped_file_regionC2EiNS2_7mapmodeEyyRNSt3__110error_codeE, symObjAddr: 0x47F0, symBinAddr: 0x33630, symSize: 0x90 }
  - { offset: 0x1C538C, size: 0x8, addend: 0x0, symName: __ZN4llvm3sys2fs18mapped_file_regionD2Ev, symObjAddr: 0x4910, symBinAddr: 0x336C0, symSize: 0x30 }
  - { offset: 0x1C53F5, size: 0x8, addend: 0x0, symName: __ZN4llvm3sys2fs18mapped_file_regionD1Ev, symObjAddr: 0x4950, symBinAddr: 0x336F0, symSize: 0x30 }
  - { offset: 0x1C544A, size: 0x8, addend: 0x0, symName: __ZNK4llvm3sys2fs18mapped_file_region4dataEv, symObjAddr: 0x4990, symBinAddr: 0x33720, symSize: 0x10 }
  - { offset: 0x1C5472, size: 0x8, addend: 0x0, symName: __ZN4llvm3sys2fs18mapped_file_region9alignmentEv, symObjAddr: 0x49B0, symBinAddr: 0x33730, symSize: 0x10 }
  - { offset: 0x1CC924, size: 0x8, addend: 0x0, symName: __ZN4llvm3sys7Process11getPageSizeEv, symObjAddr: 0x690, symBinAddr: 0x34630, symSize: 0x40 }
  - { offset: 0x1CC946, size: 0x8, addend: 0x0, symName: __ZZN4llvm3sys7Process11getPageSizeEvE9page_size, symObjAddr: 0x2DBB0, symBinAddr: 0x21AC20, symSize: 0x0 }
  - { offset: 0x1CC970, size: 0x8, addend: 0x0, symName: __ZL10colorcodes, symObjAddr: 0x1110, symBinAddr: 0x1EB5C0, symSize: 0x0 }
  - { offset: 0x1CD659, size: 0x8, addend: 0x0, symName: __ZN4llvm3sys7Process13FindInEnvPathERKNSt3__112basic_stringIcNS2_11char_traitsIcEENS2_9allocatorIcEEEESA_, symObjAddr: 0x0, symBinAddr: 0x33FA0, symSize: 0x470 }
  - { offset: 0x1CE9F1, size: 0x8, addend: 0x0, symName: __ZN4llvm3sys7Process6GetEnvENS_9StringRefE, symObjAddr: 0x470, symBinAddr: 0x34410, symSize: 0x1F0 }
  - { offset: 0x1CF779, size: 0x8, addend: 0x0, symName: __ZN4llvm8OptionalINSt3__112basic_stringIcNS1_11char_traitsIcEENS1_9allocatorIcEEEEED1Ev, symObjAddr: 0x660, symBinAddr: 0x34600, symSize: 0x30 }
  - { offset: 0x1CFA56, size: 0x8, addend: 0x0, symName: __ZN4llvm3sys7Process14GetMallocUsageEv, symObjAddr: 0x6D0, symBinAddr: 0x34670, symSize: 0x30 }
  - { offset: 0x1D0459, size: 0x8, addend: 0x0, symName: __ZN4llvm3sys7Process12GetTimeUsageERNS0_9TimeValueES3_S3_, symObjAddr: 0x700, symBinAddr: 0x346A0, symSize: 0xB0 }
  - { offset: 0x1D0670, size: 0x8, addend: 0x0, symName: __ZN4llvm3sys7Process16PreventCoreFilesEv, symObjAddr: 0x7B0, symBinAddr: 0x34750, symSize: 0x130 }
  - { offset: 0x1D0AF5, size: 0x8, addend: 0x0, symName: __ZN4llvm3sys7Process17GetArgumentVectorERNS_15SmallVectorImplIPKcEENS_8ArrayRefIS4_EERNS_24SpecificBumpPtrAllocatorIcEE, symObjAddr: 0x8E0, symBinAddr: 0x34880, symSize: 0x90 }
  - { offset: 0x1D0E2E, size: 0x8, addend: 0x0, symName: __ZN4llvm3sys7Process28FixupStandardFileDescriptorsEv, symObjAddr: 0x970, symBinAddr: 0x34910, symSize: 0x300 }
  - { offset: 0x1D1220, size: 0x8, addend: 0x0, symName: __ZN12_GLOBAL__N_18FDCloserD1Ev, symObjAddr: 0xC70, symBinAddr: 0x34C10, symSize: 0x30 }
  - { offset: 0x1D1269, size: 0x8, addend: 0x0, symName: __ZN4llvm3sys7Process25SafelyCloseFileDescriptorEi, symObjAddr: 0xCA0, symBinAddr: 0x34C40, symSize: 0x80 }
  - { offset: 0x1D13D2, size: 0x8, addend: 0x0, symName: __ZN4llvm3sys7Process21StandardInIsUserInputEv, symObjAddr: 0xD20, symBinAddr: 0x34CC0, symSize: 0x20 }
  - { offset: 0x1D1430, size: 0x8, addend: 0x0, symName: __ZN4llvm3sys7Process25FileDescriptorIsDisplayedEi, symObjAddr: 0xD40, symBinAddr: 0x34CE0, symSize: 0x10 }
  - { offset: 0x1D1466, size: 0x8, addend: 0x0, symName: __ZN4llvm3sys7Process22StandardOutIsDisplayedEv, symObjAddr: 0xD50, symBinAddr: 0x34CF0, symSize: 0x20 }
  - { offset: 0x1D14AE, size: 0x8, addend: 0x0, symName: __ZN4llvm3sys7Process22StandardErrIsDisplayedEv, symObjAddr: 0xD70, symBinAddr: 0x34D10, symSize: 0x20 }
  - { offset: 0x1D1594, size: 0x8, addend: 0x0, symName: __ZN4llvm3sys7Process18StandardOutColumnsEv, symObjAddr: 0xD90, symBinAddr: 0x34D30, symSize: 0x60 }
  - { offset: 0x1D16C9, size: 0x8, addend: 0x0, symName: __ZN4llvm3sys7Process18StandardErrColumnsEv, symObjAddr: 0xDF0, symBinAddr: 0x34D90, symSize: 0x60 }
  - { offset: 0x1D17C9, size: 0x8, addend: 0x0, symName: __ZN4llvm3sys7Process23FileDescriptorHasColorsEi, symObjAddr: 0xE50, symBinAddr: 0x34DF0, symSize: 0x10 }
  - { offset: 0x1D1836, size: 0x8, addend: 0x0, symName: __ZN4llvm3sys7Process20StandardOutHasColorsEv, symObjAddr: 0xE60, symBinAddr: 0x34E00, symSize: 0x20 }
  - { offset: 0x1D189F, size: 0x8, addend: 0x0, symName: __ZN4llvm3sys7Process20StandardErrHasColorsEv, symObjAddr: 0xE80, symBinAddr: 0x34E20, symSize: 0x20 }
  - { offset: 0x1D1908, size: 0x8, addend: 0x0, symName: __ZN4llvm3sys7Process15ColorNeedsFlushEv, symObjAddr: 0xEB0, symBinAddr: 0x34E40, symSize: 0x10 }
  - { offset: 0x1D191F, size: 0x8, addend: 0x0, symName: __ZN4llvm3sys7Process11OutputColorEcbb, symObjAddr: 0xEC0, symBinAddr: 0x34E50, symSize: 0x40 }
  - { offset: 0x1D1974, size: 0x8, addend: 0x0, symName: __ZN4llvm3sys7Process10OutputBoldEb, symObjAddr: 0xF00, symBinAddr: 0x34E90, symSize: 0x10 }
  - { offset: 0x1D19A7, size: 0x8, addend: 0x0, symName: __ZN4llvm3sys7Process13OutputReverseEv, symObjAddr: 0xF10, symBinAddr: 0x34EA0, symSize: 0x10 }
  - { offset: 0x1D19BE, size: 0x8, addend: 0x0, symName: __ZN4llvm3sys7Process10ResetColorEv, symObjAddr: 0xF20, symBinAddr: 0x34EB0, symSize: 0x10 }
  - { offset: 0x1D19D5, size: 0x8, addend: 0x0, symName: __ZN4llvm3sys7Process15GetRandomNumberEv, symObjAddr: 0xF30, symBinAddr: 0x34EC0, symSize: 0x10 }
  - { offset: 0x1D3989, size: 0x8, addend: 0x0, symName: __ZN4llvm3sys14ExecuteAndWaitENS_9StringRefEPPKcS4_PPKS1_jjPNSt3__112basic_stringIcNS8_11char_traitsIcEENS8_9allocatorIcEEEEPb, symObjAddr: 0x0, symBinAddr: 0x34ED0, symSize: 0x80 }
  - { offset: 0x1D39A1, size: 0x8, addend: 0x0, symName: __ZN4llvm3sys30argumentsFitWithinSystemLimitsENS_8ArrayRefIPKcEE, symObjAddr: 0x1A60, symBinAddr: 0x36910, symSize: 0xD0 }
  - { offset: 0x1D39CD, size: 0x8, addend: 0x0, symName: __ZZN4llvm3sys30argumentsFitWithinSystemLimitsENS_8ArrayRefIPKcEEE6ArgMax, symObjAddr: 0x3D750, symBinAddr: 0x21AC30, symSize: 0x0 }
  - { offset: 0x1D3B11, size: 0x8, addend: 0x0, symName: __ZN4llvm3sys14ExecuteAndWaitENS_9StringRefEPPKcS4_PPKS1_jjPNSt3__112basic_stringIcNS8_11char_traitsIcEENS8_9allocatorIcEEEEPb, symObjAddr: 0x0, symBinAddr: 0x34ED0, symSize: 0x80 }
  - { offset: 0x1D3C7D, size: 0x8, addend: 0x0, symName: __ZN4llvm3sys4WaitERKNS0_11ProcessInfoEjbPNSt3__112basic_stringIcNS4_11char_traitsIcEENS4_9allocatorIcEEEE, symObjAddr: 0xCD0, symBinAddr: 0x35BA0, symSize: 0x350 }
  - { offset: 0x1D4B2D, size: 0x8, addend: 0x0, symName: __ZN4llvm3sys13ExecuteNoWaitENS_9StringRefEPPKcS4_PPKS1_jPNSt3__112basic_stringIcNS8_11char_traitsIcEENS8_9allocatorIcEEEEPb, symObjAddr: 0x1020, symBinAddr: 0x35EF0, symSize: 0x70 }
  - { offset: 0x1D4C35, size: 0x8, addend: 0x0, symName: __ZN4llvm3sys17findProgramByNameENS_9StringRefENS_8ArrayRefIS1_EE, symObjAddr: 0x10A0, symBinAddr: 0x35F60, symSize: 0x540 }
  - { offset: 0x1D62F1, size: 0x8, addend: 0x0, symName: __ZN4llvm3sys19ChangeStdinToBinaryEv, symObjAddr: 0x1960, symBinAddr: 0x36820, symSize: 0x10 }
  - { offset: 0x1D634B, size: 0x8, addend: 0x0, symName: __ZN4llvm3sys21writeFileWithEncodingENS_9StringRefES1_NS0_21WindowsEncodingMethodE, symObjAddr: 0x1980, symBinAddr: 0x36830, symSize: 0xE0 }
  - { offset: 0x1D6DF1, size: 0x8, addend: 0x0, symName: __ZN4llvmL10RedirectIOEPKNS_9StringRefEiPNSt3__112basic_stringIcNS3_11char_traitsIcEENS3_9allocatorIcEEEE, symObjAddr: 0x1BC0, symBinAddr: 0x369E0, symSize: 0x320 }
  - { offset: 0x1D81FB, size: 0x8, addend: 0x0, symName: __ZN4llvmL15SetMemoryLimitsEj, symObjAddr: 0x1EE0, symBinAddr: 0x36D00, symSize: 0x79 }
  - { offset: 0x1D8BFB, size: 0x8, addend: 0x0, symName: __ZN4llvmL14TimeOutHandlerEi, symObjAddr: 0x16A0, symBinAddr: 0x36560, symSize: 0x10 }
  - { offset: 0x1DC2CD, size: 0x8, addend: 0x0, symName: __ZL7ExecuteRN4llvm3sys11ProcessInfoENS_9StringRefEPPKcS6_PPKS3_jPNSt3__112basic_stringIcNSA_11char_traitsIcEENSA_9allocatorIcEEEE, symObjAddr: 0x90, symBinAddr: 0x34F60, symSize: 0xC40 }
  - { offset: 0x1DF9B3, size: 0x8, addend: 0x0, symName: __ZN4llvm3sys11ProcessInfoC1Ev, symObjAddr: 0x80, symBinAddr: 0x34F50, symSize: 0x10 }
  - { offset: 0x1E00EB, size: 0x8, addend: 0x0, symName: __ZL10MakeErrMsgPNSt3__112basic_stringIcNS_11char_traitsIcEENS_9allocatorIcEEEERKS5_i, symObjAddr: 0x16B0, symBinAddr: 0x36570, symSize: 0x210 }
  - { offset: 0x1E0EDD, size: 0x8, addend: 0x0, symName: __ZNSt3__112basic_stringIcNS_11char_traitsIcEENS_9allocatorIcEEEC1B8ne180100ILi0EEEPKc, symObjAddr: 0x18C0, symBinAddr: 0x36780, symSize: 0xA0 }
  - { offset: 0x1E1408, size: 0x8, addend: 0x0, symName: __ZNK4llvm9StringRefcvNSt3__112basic_stringIcNS1_11char_traitsIcEENS1_9allocatorIcEEEEEv, symObjAddr: 0x15E0, symBinAddr: 0x364A0, symSize: 0xC0 }
  - { offset: 0x1E4562, size: 0x8, addend: 0x0, symName: __ZN4llvm3sys15PrintStackTraceERNS_11raw_ostreamE, symObjAddr: 0xA90, symBinAddr: 0x37810, symSize: 0x4D0 }
  - { offset: 0x1E458A, size: 0x8, addend: 0x0, symName: __ZZN4llvm3sys15PrintStackTraceERNS_11raw_ostreamEE10StackTrace, symObjAddr: 0x5B650, symBinAddr: 0x21AC50, symSize: 0x0 }
  - { offset: 0x1E5B6B, size: 0x8, addend: 0x0, symName: __ZN4llvm3sys20RunInterruptHandlersEv, symObjAddr: 0x0, symBinAddr: 0x36D80, symSize: 0x90 }
  - { offset: 0x1E5D27, size: 0x8, addend: 0x0, symName: __ZN4llvm3sys20SetInterruptFunctionEPFvvE, symObjAddr: 0x1B0, symBinAddr: 0x36F30, symSize: 0x80 }
  - { offset: 0x1E5EC3, size: 0x8, addend: 0x0, symName: __ZN4llvm3sys18RemoveFileOnSignalENS_9StringRefEPNSt3__112basic_stringIcNS2_11char_traitsIcEENS2_9allocatorIcEEEE, symObjAddr: 0x4F0, symBinAddr: 0x37270, symSize: 0x1C0 }
  - { offset: 0x1E69F3, size: 0x8, addend: 0x0, symName: __ZN4llvm3sys22DontRemoveFileOnSignalENS_9StringRefE, symObjAddr: 0x6B0, symBinAddr: 0x37430, symSize: 0x270 }
  - { offset: 0x1E760B, size: 0x8, addend: 0x0, symName: __ZN4llvm3sys16AddSignalHandlerEPFvPvES1_, symObjAddr: 0x920, symBinAddr: 0x376A0, symSize: 0x170 }
  - { offset: 0x1E7BCC, size: 0x8, addend: 0x0, symName: __ZN4llvm3sys28PrintStackTraceOnErrorSignalEb, symObjAddr: 0xF70, symBinAddr: 0x37CE0, symSize: 0x60 }
  - { offset: 0x1E8FCA, size: 0x8, addend: 0x0, symName: __ZL12SignalsMutex, symObjAddr: 0x5BE50, symBinAddr: 0x21B450, symSize: 0x0 }
  - { offset: 0x1F2A8E, size: 0x8, addend: 0x0, symName: __ZL17InterruptFunction, symObjAddr: 0x5B640, symBinAddr: 0x21AC40, symSize: 0x0 }
  - { offset: 0x1F2AAF, size: 0x8, addend: 0x0, symName: __ZL20NumRegisteredSignals, symObjAddr: 0x5BE68, symBinAddr: 0x21B468, symSize: 0x0 }
  - { offset: 0x1F2AC9, size: 0x8, addend: 0x0, symName: __ZL7IntSigs, symObjAddr: 0x19D0, symBinAddr: 0x1EB700, symSize: 0x0 }
  - { offset: 0x1F2AF6, size: 0x8, addend: 0x0, symName: __ZL20RegisteredSignalInfo, symObjAddr: 0x5BE70, symBinAddr: 0x21B470, symSize: 0x0 }
  - { offset: 0x1F2B44, size: 0x8, addend: 0x0, symName: __ZL8KillSigs, symObjAddr: 0x19F0, symBinAddr: 0x1EB720, symSize: 0x0 }
  - { offset: 0x1F2B6C, size: 0x8, addend: 0x0, symName: __ZL13FilesToRemove, symObjAddr: 0x5C008, symBinAddr: 0x21B608, symSize: 0x0 }
  - { offset: 0x1F2DC8, size: 0x8, addend: 0x0, symName: __ZL14CallBacksToRun, symObjAddr: 0x5C020, symBinAddr: 0x21B620, symSize: 0x0 }
  - { offset: 0x1F3564, size: 0x8, addend: 0x0, symName: __ZL19RemoveFilesToRemovev, symObjAddr: 0x90, symBinAddr: 0x36E10, symSize: 0xF0 }
  - { offset: 0x1F37C7, size: 0x8, addend: 0x0, symName: __ZN4llvm3sys15SmartScopedLockILb1EED1Ev, symObjAddr: 0x180, symBinAddr: 0x36F00, symSize: 0x30 }
  - { offset: 0x1F3964, size: 0x8, addend: 0x0, symName: __ZL16RegisterHandlersv, symObjAddr: 0x230, symBinAddr: 0x36FB0, symSize: 0x2C0 }
  - { offset: 0x1F4E21, size: 0x8, addend: 0x0, symName: __ZNKSt3__16vectorINS_4pairIPFvPvES2_EENS_9allocatorIS5_EEE20__throw_length_errorB8ne180100Ev, symObjAddr: 0x16F0, symBinAddr: 0x38140, symSize: 0x10 }
  - { offset: 0x1F4E4B, size: 0x8, addend: 0x0, symName: __ZNK4llvm13format_objectIJiEE7snprintEPcj, symObjAddr: 0x1700, symBinAddr: 0x38150, symSize: 0x20 }
  - { offset: 0x1F5F90, size: 0x8, addend: 0x0, symName: __ZNKSt3__16vectorIPKcNS_9allocatorIS2_EEE20__throw_length_errorB8ne180100Ev, symObjAddr: 0x14C0, symBinAddr: 0x380B0, symSize: 0x10 }
  - { offset: 0x1F5FBA, size: 0x8, addend: 0x0, symName: __ZN4llvm14object_creatorINS_3sys10SmartMutexILb1EEEE4callEv, symObjAddr: 0x14D0, symBinAddr: 0x380C0, symSize: 0x50 }
  - { offset: 0x1F5FFE, size: 0x8, addend: 0x0, symName: __ZL28PrintStackTraceSignalHandlerPv, symObjAddr: 0xFD0, symBinAddr: 0x37D40, symSize: 0x20 }
  - { offset: 0x1F603F, size: 0x8, addend: 0x0, symName: _raise, symObjAddr: 0xFF0, symBinAddr: 0x37D60, symSize: 0x20 }
  - { offset: 0x1F612A, size: 0x8, addend: 0x0, symName: __Z12__assert_rtnPKcS0_iS0_, symObjAddr: 0x1010, symBinAddr: 0x37D80, symSize: 0x51 }
  - { offset: 0x1F61B7, size: 0x8, addend: 0x0, symName: _abort, symObjAddr: 0x1061, symBinAddr: 0x1D0331, symSize: 0x1F }
  - { offset: 0x1F6379, size: 0x8, addend: 0x0, symName: _abort, symObjAddr: 0x1061, symBinAddr: 0x1D0331, symSize: 0x1F }
  - { offset: 0x1F657A, size: 0x8, addend: 0x0, symName: __ZL13SignalHandleri, symObjAddr: 0x1120, symBinAddr: 0x37DE0, symSize: 0x240 }
  - { offset: 0x1F6C5B, size: 0x8, addend: 0x0, symName: __ZN4llvm11unique_lockINS_3sys10SmartMutexILb1EEEED1Ev, symObjAddr: 0x1360, symBinAddr: 0x38020, symSize: 0x40 }
  - { offset: 0x1F6D2A, size: 0x8, addend: 0x0, symName: __ZN4llvm14object_creatorINSt3__16vectorINS1_4pairIPFvPvES4_EENS1_9allocatorIS7_EEEEE4callEv, symObjAddr: 0x13A0, symBinAddr: 0x38060, symSize: 0x20 }
  - { offset: 0x1F6E11, size: 0x8, addend: 0x0, symName: __ZN4llvm14object_deleterINSt3__16vectorINS1_4pairIPFvPvES4_EENS1_9allocatorIS7_EEEEE4callES4_, symObjAddr: 0x13C0, symBinAddr: 0x38080, symSize: 0x30 }
  - { offset: 0x1F7037, size: 0x8, addend: 0x0, symName: __ZN4llvm14object_creatorINS_3sys10SmartMutexILb1EEEE4callEv, symObjAddr: 0x14D0, symBinAddr: 0x380C0, symSize: 0x50 }
  - { offset: 0x1F70D0, size: 0x8, addend: 0x0, symName: __ZN4llvm14object_deleterINS_3sys10SmartMutexILb1EEEE4callEPv, symObjAddr: 0x1520, symBinAddr: 0x38110, symSize: 0x30 }
  - { offset: 0x1F7378, size: 0x8, addend: 0x0, symName: __ZNKSt3__16vectorINS_4pairIPFvPvES2_EENS_9allocatorIS5_EEE20__throw_length_errorB8ne180100Ev, symObjAddr: 0x16F0, symBinAddr: 0x38140, symSize: 0x10 }
  - { offset: 0x1F73CA, size: 0x8, addend: 0x0, symName: __ZNK4llvm13format_objectIJiEE7snprintEPcj, symObjAddr: 0x1700, symBinAddr: 0x38150, symSize: 0x20 }
  - { offset: 0x1F74D0, size: 0x8, addend: 0x0, symName: __ZNK4llvm13format_objectIJiPKcEE7snprintEPcj, symObjAddr: 0x1720, symBinAddr: 0x38170, symSize: 0x20 }
  - { offset: 0x1F75B7, size: 0x8, addend: 0x0, symName: __ZNK4llvm13format_objectIJimEE7snprintEPcj, symObjAddr: 0x1740, symBinAddr: 0x38190, symSize: 0x20 }
  - { offset: 0x1F7698, size: 0x8, addend: 0x0, symName: __ZNK4llvm13format_objectIJjEE7snprintEPcj, symObjAddr: 0x1760, symBinAddr: 0x381B0, symSize: 0x1B }
  - { offset: 0x1F93F7, size: 0x8, addend: 0x0, symName: __ZN4llvm21llvm_is_multithreadedEv, symObjAddr: 0x0, symBinAddr: 0x381D0, symSize: 0x10 }
  - { offset: 0x1F9440, size: 0x8, addend: 0x0, symName: __ZN4llvm21llvm_is_multithreadedEv, symObjAddr: 0x0, symBinAddr: 0x381D0, symSize: 0x10 }
  - { offset: 0x1F945E, size: 0x8, addend: 0x0, symName: __ZN4llvm22llvm_execute_on_threadEPFvPvES0_j, symObjAddr: 0x10, symBinAddr: 0x381E0, symSize: 0x90 }
  - { offset: 0x1F967F, size: 0x8, addend: 0x0, symName: __ZL24ExecuteOnThread_DispatchPv, symObjAddr: 0xA0, symBinAddr: 0x38270, symSize: 0x11 }
  - { offset: 0x1FA676, size: 0x8, addend: 0x0, symName: __ZN4llvm3sys9TimeValue9normalizeEv, symObjAddr: 0x0, symBinAddr: 0x38290, symSize: 0xC0 }
  - { offset: 0x1FA68F, size: 0x8, addend: 0x0, symName: __ZN4llvm3sys9TimeValue20PosixZeroTimeSecondsE, symObjAddr: 0x3A0, symBinAddr: 0x1EB7C0, symSize: 0x0 }
  - { offset: 0x1FAA60, size: 0x8, addend: 0x0, symName: __ZN4llvm3sys9TimeValue20Win32ZeroTimeSecondsE, symObjAddr: 0x3A8, symBinAddr: 0x1EB7C8, symSize: 0x0 }
  - { offset: 0x1FDA9E, size: 0x8, addend: 0x0, symName: __ZN4llvm3sys9TimeValue9normalizeEv, symObjAddr: 0x0, symBinAddr: 0x38290, symSize: 0xC0 }
  - { offset: 0x1FDD85, size: 0x8, addend: 0x0, symName: __ZNK4llvm3sys9TimeValue3strEv, symObjAddr: 0xC0, symBinAddr: 0x38350, symSize: 0x130 }
  - { offset: 0x1FE446, size: 0x8, addend: 0x0, symName: __ZN4llvm3sys9TimeValue3nowEv, symObjAddr: 0x1F0, symBinAddr: 0x38480, symSize: 0x100 }
  - { offset: 0x200407, size: 0x8, addend: 0x0, symName: __ZNSt3__1L19piecewise_constructE, symObjAddr: 0x33D77, symBinAddr: 0x1EBAD3, symSize: 0x0 }
  - { offset: 0x220A06, size: 0x8, addend: 0x0, symName: __ZNSt3__111__introsortINS_17_ClassicAlgPolicyERNS_6__lessIvvEEPN11spirv_cross7TypedIDILNS5_5TypesE0EEELb0EEEvT1_SA_T0_NS_15iterator_traitsISA_E15difference_typeEb, symObjAddr: 0x27F80, symBinAddr: 0x5DDA0, symSize: 0x690 }
  - { offset: 0x222BCB, size: 0x8, addend: 0x0, symName: __ZNSt3__127__insertion_sort_incompleteB8ne180100INS_17_ClassicAlgPolicyERNS_6__lessIvvEEPN11spirv_cross7TypedIDILNS5_5TypesE0EEEEEbT1_SA_T0_, symObjAddr: 0x28610, symBinAddr: 0x5E430, symSize: 0x250 }
  - { offset: 0x22DCF3, size: 0x8, addend: 0x0, symName: __ZNSt3__17__sort5B8ne180100INS_17_ClassicAlgPolicyERNS_6__lessIvvEEPN11spirv_cross7TypedIDILNS5_5TypesE0EEEEEvT1_SA_SA_SA_SA_T0_, symObjAddr: 0x28860, symBinAddr: 0x5E680, symSize: 0xC0 }
  - { offset: 0x22E702, size: 0x8, addend: 0x0, symName: __ZNSt3__119__partial_sort_implB8ne180100INS_17_ClassicAlgPolicyERNS_6__lessIvvEEPN11spirv_cross7TypedIDILNS5_5TypesE0EEES9_EET1_SA_SA_T2_OT0_, symObjAddr: 0x28920, symBinAddr: 0x5E740, symSize: 0x380 }
  - { offset: 0x23B073, size: 0x8, addend: 0x0, symName: __ZN11spirv_cross4joinIJRA2_KcRjEEENSt3__112basic_stringIcNS5_11char_traitsIcEENS5_9allocatorIcEEEEDpOT_, symObjAddr: 0x2680, symBinAddr: 0x3AAA0, symSize: 0x190 }
  - { offset: 0x23B8D4, size: 0x8, addend: 0x0, symName: __ZN11spirv_cross4joinIJRA2_KcRNS_7TypedIDILNS_5TypesE0EEEEEENSt3__112basic_stringIcNS8_11char_traitsIcEENS8_9allocatorIcEEEEDpOT_, symObjAddr: 0x7660, symBinAddr: 0x3FA70, symSize: 0x190 }
  - { offset: 0x23BC0A, size: 0x8, addend: 0x0, symName: __ZN11spirv_cross4joinIJRA2_KcRKNS_7TypedIDILNS_5TypesE0EEES3_RNS4_ILS5_2EEEEEENSt3__112basic_stringIcNSB_11char_traitsIcEENSB_9allocatorIcEEEEDpOT_, symObjAddr: 0x78C0, symBinAddr: 0x3FCD0, symSize: 0x1C0 }
  - { offset: 0x23C115, size: 0x8, addend: 0x0, symName: __ZN11spirv_cross4joinIJRA21_KcNSt3__112basic_stringIcNS4_11char_traitsIcEENS4_9allocatorIcEEEESA_EEESA_DpOT_, symObjAddr: 0xD9A0, symBinAddr: 0x45D60, symSize: 0x1D0 }
  - { offset: 0x23C825, size: 0x8, addend: 0x0, symName: __ZN3spv16HasResultAndTypeENS_2OpEPbS1_, symObjAddr: 0x16B90, symBinAddr: 0x4EF20, symSize: 0x6460 }
  - { offset: 0x23F9F4, size: 0x8, addend: 0x0, symName: __ZN11spirv_cross8Compiler30InterfaceVariableAccessHandler6handleEN3spv2OpEPKjj, symObjAddr: 0x53A0, symBinAddr: 0x3D7C0, symSize: 0x780 }
  - { offset: 0x242396, size: 0x8, addend: 0x0, symName: __ZN11spirv_cross8CompilerC2ENSt3__16vectorIjNS1_9allocatorIjEEEE, symObjAddr: 0x0, symBinAddr: 0x38580, symSize: 0x670 }
  - { offset: 0x243EF6, size: 0x8, addend: 0x0, symName: __ZN11spirv_cross8Compiler11parse_fixupEv, symObjAddr: 0x1A90, symBinAddr: 0x39EB0, symSize: 0x1C0 }
  - { offset: 0x245289, size: 0x8, addend: 0x0, symName: __ZN11spirv_cross6ParserD1Ev, symObjAddr: 0x690, symBinAddr: 0x38C10, symSize: 0x60 }
  - { offset: 0x2459A2, size: 0x8, addend: 0x0, symName: __ZNSt3__113unordered_mapIjNS_10unique_ptrIN11spirv_cross3CFGENS_14default_deleteIS3_EEEENS_4hashIjEENS_8equal_toIjEENS_9allocatorINS_4pairIKjS6_EEEEED1B8ne180100Ev, symObjAddr: 0x800, symBinAddr: 0x38C70, symSize: 0x80 }
  - { offset: 0x245DD7, size: 0x8, addend: 0x0, symName: __ZN11spirv_cross6BitsetD1Ev, symObjAddr: 0x880, symBinAddr: 0x38CF0, symSize: 0x50 }
  - { offset: 0x2462AF, size: 0x8, addend: 0x0, symName: __ZN11spirv_cross8Compiler6set_irEONS_8ParsedIRE, symObjAddr: 0x670, symBinAddr: 0x38BF0, symSize: 0x20 }
  - { offset: 0x247761, size: 0x8, addend: 0x0, symName: __ZN11spirv_cross8CompilerC1ENSt3__16vectorIjNS1_9allocatorIjEEEE, symObjAddr: 0x920, symBinAddr: 0x38D40, symSize: 0x10 }
  - { offset: 0x2477BA, size: 0x8, addend: 0x0, symName: __ZN11spirv_cross8CompilerC2EPKjm, symObjAddr: 0x930, symBinAddr: 0x38D50, symSize: 0x610 }
  - { offset: 0x24900A, size: 0x8, addend: 0x0, symName: __ZN11spirv_cross8CompilerC1EPKjm, symObjAddr: 0xF40, symBinAddr: 0x39360, symSize: 0x10 }
  - { offset: 0x24909C, size: 0x8, addend: 0x0, symName: __ZN11spirv_cross8CompilerC2ERKNS_8ParsedIRE, symObjAddr: 0xF50, symBinAddr: 0x39370, symSize: 0x580 }
  - { offset: 0x24A968, size: 0x8, addend: 0x0, symName: __ZN11spirv_cross8Compiler6set_irERKNS_8ParsedIRE, symObjAddr: 0x14D0, symBinAddr: 0x398F0, symSize: 0x20 }
  - { offset: 0x24A9A3, size: 0x8, addend: 0x0, symName: __ZN11spirv_cross8CompilerC1ERKNS_8ParsedIRE, symObjAddr: 0x14F0, symBinAddr: 0x39910, symSize: 0x10 }
  - { offset: 0x24A9FB, size: 0x8, addend: 0x0, symName: __ZN11spirv_cross8CompilerC2EONS_8ParsedIRE, symObjAddr: 0x1500, symBinAddr: 0x39920, symSize: 0x580 }
  - { offset: 0x24C2C8, size: 0x8, addend: 0x0, symName: __ZN11spirv_cross8CompilerC1EONS_8ParsedIRE, symObjAddr: 0x1A80, symBinAddr: 0x39EA0, symSize: 0x10 }
  - { offset: 0x24C458, size: 0x8, addend: 0x0, symName: __ZN11spirv_cross7Variant3getINS_12SPIRConstantEEERT_v, symObjAddr: 0x6210, symBinAddr: 0x3E620, symSize: 0x80 }
  - { offset: 0x24C4A4, size: 0x8, addend: 0x0, symName: __ZN11spirv_cross7Variant3getINS_12SPIRVariableEEERT_v, symObjAddr: 0x62A0, symBinAddr: 0x3E6B0, symSize: 0x80 }
  - { offset: 0x24C4F0, size: 0x8, addend: 0x0, symName: __ZN11spirv_cross11SmallVectorIjLm8EE7reserveEm, symObjAddr: 0x1E190, symBinAddr: 0x56520, symSize: 0x150 }
  - { offset: 0x24C585, size: 0x8, addend: 0x0, symName: __ZN11spirv_cross8Compiler27variable_storage_is_aliasedERKNS_12SPIRVariableE, symObjAddr: 0x1C60, symBinAddr: 0x3A080, symSize: 0x140 }
  - { offset: 0x24CBA0, size: 0x8, addend: 0x0, symName: __ZN11spirv_cross8Compiler7compileEv, symObjAddr: 0x1C50, symBinAddr: 0x3A070, symSize: 0x10 }
  - { offset: 0x24CCFD, size: 0x8, addend: 0x0, symName: __ZN11spirv_cross7Variant3getINS_8SPIRTypeEEERT_v, symObjAddr: 0x253B0, symBinAddr: 0x5BBB0, symSize: 0x80 }
  - { offset: 0x24CD5B, size: 0x8, addend: 0x0, symName: __ZNSt3__112__hash_tableINS_17__hash_value_typeIN11spirv_cross7TypedIDILNS2_5TypesE0EEENS2_4MetaEEENS_22__unordered_map_hasherIS5_S7_NS_4hashIS5_EENS_8equal_toIS5_EELb1EEENS_21__unordered_map_equalIS5_S7_SC_SA_Lb1EEENS_9allocatorIS7_EEE25__emplace_unique_key_argsIS5_JRKNS_21piecewise_construct_tENS_5tupleIJRKS5_EEENSN_IJEEEEEENS_4pairINS_15__hash_iteratorIPNS_11__hash_nodeIS7_PvEEEEbEERKT_DpOT0_, symObjAddr: 0x25430, symBinAddr: 0x5BC30, symSize: 0x520 }
  - { offset: 0x24DBF6, size: 0x8, addend: 0x0, symName: __ZNK11spirv_cross8Compiler14has_decorationENS_7TypedIDILNS_5TypesE0EEEN3spv10DecorationE, symObjAddr: 0x1DA0, symBinAddr: 0x3A1C0, symSize: 0x10 }
  - { offset: 0x24DE6B, size: 0x8, addend: 0x0, symName: __ZN11spirv_cross8Compiler13block_is_pureERKNS_9SPIRBlockE, symObjAddr: 0x1DB0, symBinAddr: 0x3A1D0, symSize: 0x5E0 }
  - { offset: 0x24E2F0, size: 0x8, addend: 0x0, symName: __ZNK11spirv_cross8Compiler18expression_type_idEj, symObjAddr: 0x36E0, symBinAddr: 0x3BB00, symSize: 0xF0 }
  - { offset: 0x24E55C, size: 0x8, addend: 0x0, symName: __ZNK11spirv_cross7Variant3getINS_8SPIRTypeEEERKT_v, symObjAddr: 0x25CD0, symBinAddr: 0x5C290, symSize: 0x80 }
  - { offset: 0x24E5A8, size: 0x8, addend: 0x0, symName: __ZN11spirv_cross7Variant3getINS_13SPIRExtensionEEERT_v, symObjAddr: 0x25C50, symBinAddr: 0x5C210, symSize: 0x80 }
  - { offset: 0x24E5F4, size: 0x8, addend: 0x0, symName: __ZN11spirv_cross7Variant3getINS_12SPIRFunctionEEERT_v, symObjAddr: 0x25BD0, symBinAddr: 0x5C190, symSize: 0x80 }
  - { offset: 0x24E640, size: 0x8, addend: 0x0, symName: __ZN11spirv_cross7Variant3getINS_9SPIRBlockEEERT_v, symObjAddr: 0x25D50, symBinAddr: 0x5C310, symSize: 0x80 }
  - { offset: 0x24E68C, size: 0x8, addend: 0x0, symName: __ZN11spirv_cross13CompilerErrorC1EPKc, symObjAddr: 0x37D0, symBinAddr: 0x3BBF0, symSize: 0x30 }
  - { offset: 0x24E6EF, size: 0x8, addend: 0x0, symName: __ZN11spirv_cross8Compiler16function_is_pureERKNS_12SPIRFunctionE, symObjAddr: 0x2390, symBinAddr: 0x3A7B0, symSize: 0x70 }
  - { offset: 0x24E809, size: 0x8, addend: 0x0, symName: __ZNK11spirv_cross8Compiler15expression_typeEj, symObjAddr: 0x2400, symBinAddr: 0x3A820, symSize: 0x30 }
  - { offset: 0x24E9BF, size: 0x8, addend: 0x0, symName: __ZNK11spirv_cross8Compiler7to_nameEjb, symObjAddr: 0x2430, symBinAddr: 0x3A850, symSize: 0xE0 }
  - { offset: 0x24F032, size: 0x8, addend: 0x0, symName: __ZNK11spirv_cross8Compiler23has_extended_decorationEjNS_19ExtendedDecorationsE, symObjAddr: 0x2510, symBinAddr: 0x3A930, symSize: 0x170 }
  - { offset: 0x24F416, size: 0x8, addend: 0x0, symName: __ZN11spirv_cross12StringStreamILm4096ELm4096EE6appendEPKcm, symObjAddr: 0x24A90, symBinAddr: 0x5B290, symSize: 0x130 }
  - { offset: 0x24F4EC, size: 0x8, addend: 0x0, symName: __ZN11spirv_cross12StringStreamILm4096ELm4096EElsEj, symObjAddr: 0x24CA0, symBinAddr: 0x5B4A0, symSize: 0x70 }
  - { offset: 0x24F83D, size: 0x8, addend: 0x0, symName: __ZNK11spirv_cross12StringStreamILm4096ELm4096EE3strEv, symObjAddr: 0x248A0, symBinAddr: 0x5B160, symSize: 0x130 }
  - { offset: 0x24FDD6, size: 0x8, addend: 0x0, symName: __ZN11spirv_cross8Compiler33register_global_read_dependenciesERKNS_9SPIRBlockEj, symObjAddr: 0x2810, symBinAddr: 0x3AC30, symSize: 0x200 }
  - { offset: 0x250244, size: 0x8, addend: 0x0, symName: __ZN11spirv_cross8Compiler26maybe_get_backing_variableEj, symObjAddr: 0x2A80, symBinAddr: 0x3AEA0, symSize: 0xC0 }
  - { offset: 0x2506CD, size: 0x8, addend: 0x0, symName: __ZN11spirv_cross8Compiler33register_global_read_dependenciesERKNS_12SPIRFunctionEj, symObjAddr: 0x2A10, symBinAddr: 0x3AE30, symSize: 0x70 }
  - { offset: 0x25092E, size: 0x8, addend: 0x0, symName: __ZN11spirv_cross7Variant3getINS_14SPIRExpressionEEERT_v, symObjAddr: 0x25FA0, symBinAddr: 0x5C410, symSize: 0x80 }
  - { offset: 0x25097A, size: 0x8, addend: 0x0, symName: __ZN11spirv_cross7Variant3getINS_15SPIRAccessChainEEERT_v, symObjAddr: 0x25F20, symBinAddr: 0x5C390, symSize: 0x80 }
  - { offset: 0x2509E9, size: 0x8, addend: 0x0, symName: __ZN11spirv_cross8Compiler13register_readEjjb, symObjAddr: 0x2B40, symBinAddr: 0x3AF60, symSize: 0xA0 }
  - { offset: 0x250B37, size: 0x8, addend: 0x0, symName: __ZNK11spirv_cross8Compiler12is_immutableEj, symObjAddr: 0x2BE0, symBinAddr: 0x3B000, symSize: 0xE0 }
  - { offset: 0x250E67, size: 0x8, addend: 0x0, symName: __ZNK11spirv_cross7Variant3getINS_12SPIRVariableEEERKT_v, symObjAddr: 0x26440, symBinAddr: 0x5C8B0, symSize: 0x80 }
  - { offset: 0x250EB3, size: 0x8, addend: 0x0, symName: __ZNK11spirv_cross7Variant3getINS_14SPIRExpressionEEERKT_v, symObjAddr: 0x264C0, symBinAddr: 0x5C930, symSize: 0x80 }
  - { offset: 0x250EFF, size: 0x8, addend: 0x0, symName: __ZNK11spirv_cross7Variant3getINS_15SPIRAccessChainEEERKT_v, symObjAddr: 0x26740, symBinAddr: 0x5CBB0, symSize: 0x80 }
  - { offset: 0x25110B, size: 0x8, addend: 0x0, symName: __ZN11spirv_cross8Compiler14register_writeEj, symObjAddr: 0x2CC0, symBinAddr: 0x3B0E0, symSize: 0x310 }
  - { offset: 0x251BAA, size: 0x8, addend: 0x0, symName: __ZN11spirv_cross8Compiler26flush_all_active_variablesEv, symObjAddr: 0x3030, symBinAddr: 0x3B450, symSize: 0x300 }
  - { offset: 0x252465, size: 0x8, addend: 0x0, symName: __ZNSt3__112__hash_tableIjNS_4hashIjEENS_8equal_toIjEENS_9allocatorIjEEE25__emplace_unique_key_argsIjJjEEENS_4pairINS_15__hash_iteratorIPNS_11__hash_nodeIjPvEEEEbEERKT_DpOT0_, symObjAddr: 0x26020, symBinAddr: 0x5C490, symSize: 0x420 }
  - { offset: 0x252B9D, size: 0x8, addend: 0x0, symName: __ZN11spirv_cross8Compiler22get_variable_data_typeERKNS_12SPIRVariableE, symObjAddr: 0x2FD0, symBinAddr: 0x3B3F0, symSize: 0x60 }
  - { offset: 0x252D58, size: 0x8, addend: 0x0, symName: __ZN11spirv_cross8Compiler27flush_all_aliased_variablesEv, symObjAddr: 0x3330, symBinAddr: 0x3B750, symSize: 0xE0 }
  - { offset: 0x252F79, size: 0x8, addend: 0x0, symName: __ZN11spirv_cross8Compiler15flush_dependeesERNS_12SPIRVariableE, symObjAddr: 0x3410, symBinAddr: 0x3B830, symSize: 0x80 }
  - { offset: 0x2530A1, size: 0x8, addend: 0x0, symName: __ZN11spirv_cross8Compiler15force_recompileEv, symObjAddr: 0x3490, symBinAddr: 0x3B8B0, symSize: 0x10 }
  - { offset: 0x2530C2, size: 0x8, addend: 0x0, symName: __ZN11spirv_cross8Compiler34flush_all_atomic_capable_variablesEv, symObjAddr: 0x34A0, symBinAddr: 0x3B8C0, symSize: 0x1A0 }
  - { offset: 0x25350A, size: 0x8, addend: 0x0, symName: __ZN11spirv_cross8Compiler35flush_control_dependent_expressionsEj, symObjAddr: 0x3640, symBinAddr: 0x3BA60, symSize: 0xA0 }
  - { offset: 0x2537CC, size: 0x8, addend: 0x0, symName: __ZNK11spirv_cross7Variant3getINS_12SPIRConstantEEERKT_v, symObjAddr: 0x26540, symBinAddr: 0x5C9B0, symSize: 0x80 }
  - { offset: 0x253818, size: 0x8, addend: 0x0, symName: __ZNK11spirv_cross7Variant3getINS_14SPIRConstantOpEEERKT_v, symObjAddr: 0x265C0, symBinAddr: 0x5CA30, symSize: 0x80 }
  - { offset: 0x253864, size: 0x8, addend: 0x0, symName: __ZNK11spirv_cross7Variant3getINS_24SPIRCombinedImageSamplerEEERKT_v, symObjAddr: 0x266C0, symBinAddr: 0x5CB30, symSize: 0x80 }
  - { offset: 0x2538B0, size: 0x8, addend: 0x0, symName: __ZNK11spirv_cross7Variant3getINS_9SPIRUndefEEERKT_v, symObjAddr: 0x26640, symBinAddr: 0x5CAB0, symSize: 0x80 }
  - { offset: 0x253943, size: 0x8, addend: 0x0, symName: __ZN11spirv_cross13CompilerErrorD1Ev, symObjAddr: 0x3800, symBinAddr: 0x3BC20, symSize: 0x10 }
  - { offset: 0x253982, size: 0x8, addend: 0x0, symName: __ZNK11spirv_cross8Compiler20expression_is_lvalueEj, symObjAddr: 0x3810, symBinAddr: 0x3BC30, symSize: 0x40 }
  - { offset: 0x253ADA, size: 0x8, addend: 0x0, symName: __ZNK11spirv_cross8Compiler18is_hidden_variableERKNS_12SPIRVariableEb, symObjAddr: 0x3850, symBinAddr: 0x3BC70, symSize: 0x2C0 }
  - { offset: 0x25415A, size: 0x8, addend: 0x0, symName: __ZNK11spirv_cross8Compiler40interface_variable_exists_in_entry_pointEj, symObjAddr: 0x3BD0, symBinAddr: 0x3BFF0, symSize: 0x1B0 }
  - { offset: 0x254590, size: 0x8, addend: 0x0, symName: __ZNK11spirv_cross8Compiler19is_builtin_variableERKNS_12SPIRVariableE, symObjAddr: 0x3B10, symBinAddr: 0x3BF30, symSize: 0xC0 }
  - { offset: 0x25493C, size: 0x8, addend: 0x0, symName: __ZNK11spirv_cross8Compiler15is_builtin_typeERKNS_8SPIRTypeE, symObjAddr: 0x3D80, symBinAddr: 0x3C1A0, symSize: 0x70 }
  - { offset: 0x254A08, size: 0x8, addend: 0x0, symName: __ZNK11spirv_cross8Compiler17is_member_builtinERKNS_8SPIRTypeEjPN3spv7BuiltInE, symObjAddr: 0x3DF0, symBinAddr: 0x3C210, symSize: 0x60 }
  - { offset: 0x254AC0, size: 0x8, addend: 0x0, symName: __ZNK11spirv_cross8Compiler9is_scalarERKNS_8SPIRTypeE, symObjAddr: 0x3E50, symBinAddr: 0x3C270, symSize: 0x20 }
  - { offset: 0x254AE9, size: 0x8, addend: 0x0, symName: __ZNK11spirv_cross8Compiler9is_vectorERKNS_8SPIRTypeE, symObjAddr: 0x3E70, symBinAddr: 0x3C290, symSize: 0x20 }
  - { offset: 0x254B20, size: 0x8, addend: 0x0, symName: __ZNK11spirv_cross8Compiler9is_matrixERKNS_8SPIRTypeE, symObjAddr: 0x3E90, symBinAddr: 0x3C2B0, symSize: 0x20 }
  - { offset: 0x254B57, size: 0x8, addend: 0x0, symName: __ZNK11spirv_cross8Compiler8is_arrayERKNS_8SPIRTypeE, symObjAddr: 0x3EB0, symBinAddr: 0x3C2D0, symSize: 0x20 }
  - { offset: 0x254B80, size: 0x8, addend: 0x0, symName: __ZNK11spirv_cross8Compiler10is_pointerERKNS_8SPIRTypeE, symObjAddr: 0x3ED0, symBinAddr: 0x3C2F0, symSize: 0x20 }
  - { offset: 0x254BA9, size: 0x8, addend: 0x0, symName: __ZNK11spirv_cross8Compiler19is_physical_pointerERKNS_8SPIRTypeE, symObjAddr: 0x3EF0, symBinAddr: 0x3C310, symSize: 0x20 }
  - { offset: 0x254C2B, size: 0x8, addend: 0x0, symName: __ZNK11spirv_cross8Compiler35is_physical_pointer_to_buffer_blockERKNS_8SPIRTypeE, symObjAddr: 0x3F10, symBinAddr: 0x3C330, symSize: 0x90 }
  - { offset: 0x254DB4, size: 0x8, addend: 0x0, symName: __ZNK11spirv_cross8Compiler16get_pointee_typeERKNS_8SPIRTypeE, symObjAddr: 0x3FA0, symBinAddr: 0x3C3C0, symSize: 0x30 }
  - { offset: 0x254E78, size: 0x8, addend: 0x0, symName: __ZN11spirv_cross8Compiler21is_runtime_size_arrayERKNS_8SPIRTypeE, symObjAddr: 0x3FD0, symBinAddr: 0x3C3F0, symSize: 0x10 }
  - { offset: 0x254E9F, size: 0x8, addend: 0x0, symName: __ZNK11spirv_cross8Compiler20get_shader_resourcesEv, symObjAddr: 0x3FE0, symBinAddr: 0x3C400, symSize: 0x20 }
  - { offset: 0x254EEE, size: 0x8, addend: 0x0, symName: __ZNK11spirv_cross8Compiler20get_shader_resourcesEPKNSt3__113unordered_setINS_7TypedIDILNS_5TypesE2EEENS1_4hashIS5_EENS1_8equal_toIS5_EENS1_9allocatorIS5_EEEE, symObjAddr: 0x4000, symBinAddr: 0x3C420, symSize: 0x1380 }
  - { offset: 0x25844C, size: 0x8, addend: 0x0, symName: __ZNK11spirv_cross8Compiler44reflection_ssbo_instance_name_is_significantEv, symObjAddr: 0x5E70, symBinAddr: 0x3E280, symSize: 0x2A0 }
  - { offset: 0x258DF4, size: 0x8, addend: 0x0, symName: __ZNK11spirv_cross8Compiler32get_remapped_declared_block_nameEjb, symObjAddr: 0x16990, symBinAddr: 0x4ED20, symSize: 0x200 }
  - { offset: 0x259374, size: 0x8, addend: 0x0, symName: __ZN11spirv_cross11SmallVectorINS_8ResourceELm8EE7reserveEm, symObjAddr: 0x27230, symBinAddr: 0x5D2F0, symSize: 0x130 }
  - { offset: 0x25968C, size: 0x8, addend: 0x0, symName: __ZN11spirv_cross11SmallVectorINS_15BuiltInResourceELm8EE7reserveEm, symObjAddr: 0x270F0, symBinAddr: 0x5D1B0, symSize: 0x140 }
  - { offset: 0x259A4C, size: 0x8, addend: 0x0, symName: __ZN11spirv_cross11SmallVectorINS_8ResourceELm8EE9push_backEOS1_, symObjAddr: 0x27090, symBinAddr: 0x5D150, symSize: 0x60 }
  - { offset: 0x25ABE9, size: 0x8, addend: 0x0, symName: __ZNK11spirv_cross8Compiler20get_shader_resourcesERKNSt3__113unordered_setINS_7TypedIDILNS_5TypesE2EEENS1_4hashIS5_EENS1_8equal_toIS5_EENS1_9allocatorIS5_EEEE, symObjAddr: 0x5380, symBinAddr: 0x3D7A0, symSize: 0x20 }
  - { offset: 0x25AD3D, size: 0x8, addend: 0x0, symName: __ZNSt3__112__hash_tableIN11spirv_cross7TypedIDILNS1_5TypesE2EEENS_4hashIS4_EENS_8equal_toIS4_EENS_9allocatorIS4_EEE25__emplace_unique_key_argsIS4_JS4_EEENS_4pairINS_15__hash_iteratorIPNS_11__hash_nodeIS4_PvEEEEbEERKT_DpOT0_, symObjAddr: 0x267C0, symBinAddr: 0x5CC30, symSize: 0x420 }
  - { offset: 0x25B4BD, size: 0x8, addend: 0x0, symName: __ZNK11spirv_cross7Variant3getINS_13SPIRExtensionEEERKT_v, symObjAddr: 0x26E20, symBinAddr: 0x5D050, symSize: 0x80 }
  - { offset: 0x25B632, size: 0x8, addend: 0x0, symName: __ZNK11spirv_cross8Compiler30get_active_interface_variablesEv, symObjAddr: 0x5B20, symBinAddr: 0x3DF40, symSize: 0x280 }
  - { offset: 0x25C0D2, size: 0x8, addend: 0x0, symName: __ZNK11spirv_cross7Variant3getINS_12SPIRFunctionEEERKT_v, symObjAddr: 0x26EA0, symBinAddr: 0x5D0D0, symSize: 0x80 }
  - { offset: 0x25C11E, size: 0x8, addend: 0x0, symName: __ZNK11spirv_cross7Variant3getINS_9SPIRBlockEEERKT_v, symObjAddr: 0x25330, symBinAddr: 0x5BB30, symSize: 0x80 }
  - { offset: 0x25C16A, size: 0x8, addend: 0x0, symName: __ZNK11spirv_cross8Compiler30traverse_all_reachable_opcodesERKNS_9SPIRBlockERNS0_13OpcodeHandlerE, symObjAddr: 0x8A10, symBinAddr: 0x40E20, symSize: 0x260 }
  - { offset: 0x25C60E, size: 0x8, addend: 0x0, symName: __ZNK11spirv_cross8Compiler30traverse_all_reachable_opcodesERKNS_12SPIRFunctionERNS0_13OpcodeHandlerE, symObjAddr: 0x5DA0, symBinAddr: 0x3E1C0, symSize: 0x90 }
  - { offset: 0x25C785, size: 0x8, addend: 0x0, symName: __ZN11spirv_cross8Compiler31set_enabled_interface_variablesENSt3__113unordered_setINS_7TypedIDILNS_5TypesE2EEENS1_4hashIS5_EENS1_8equal_toIS5_EENS1_9allocatorIS5_EEEE, symObjAddr: 0x5E40, symBinAddr: 0x3E250, symSize: 0x30 }
  - { offset: 0x25CB36, size: 0x8, addend: 0x0, symName: __ZNK11spirv_cross8Compiler23type_is_top_level_blockERKNS_8SPIRTypeE, symObjAddr: 0x6110, symBinAddr: 0x3E520, symSize: 0x50 }
  - { offset: 0x25CC21, size: 0x8, addend: 0x0, symName: __ZNK11spirv_cross8Compiler18type_is_block_likeERKNS_8SPIRTypeE, symObjAddr: 0x6160, symBinAddr: 0x3E570, symSize: 0xA0 }
  - { offset: 0x25CD8A, size: 0x8, addend: 0x0, symName: __ZNK11spirv_cross8Compiler21has_member_decorationENS_7TypedIDILNS_5TypesE1EEEjN3spv10DecorationE, symObjAddr: 0x6200, symBinAddr: 0x3E610, symSize: 0x10 }
  - { offset: 0x25CDC5, size: 0x8, addend: 0x0, symName: __ZNK11spirv_cross8Compiler14get_decorationENS_7TypedIDILNS_5TypesE0EEEN3spv10DecorationE, symObjAddr: 0x6290, symBinAddr: 0x3E6A0, symSize: 0x10 }
  - { offset: 0x25CE20, size: 0x8, addend: 0x0, symName: __ZN11spirv_cross8Compiler17update_name_cacheERNSt3__113unordered_setINS1_12basic_stringIcNS1_11char_traitsIcEENS1_9allocatorIcEEEENS1_4hashIS8_EENS1_8equal_toIS8_EENS6_IS8_EEEERKSE_RS8_, symObjAddr: 0x6320, symBinAddr: 0x3E730, symSize: 0x4B0 }
  - { offset: 0x25EA64, size: 0x8, addend: 0x0, symName: __ZNSt3__112__hash_tableINS_12basic_stringIcNS_11char_traitsIcEENS_9allocatorIcEEEENS_4hashIS6_EENS_8equal_toIS6_EENS4_IS6_EEE4findIS6_EENS_15__hash_iteratorIPNS_11__hash_nodeIS6_PvEEEERKT_, symObjAddr: 0x21050, symBinAddr: 0x58340, symSize: 0x220 }
  - { offset: 0x25ED79, size: 0x8, addend: 0x0, symName: __ZNKSt3__112__hash_tableINS_12basic_stringIcNS_11char_traitsIcEENS_9allocatorIcEEEENS_4hashIS6_EENS_8equal_toIS6_EENS4_IS6_EEE4findIS6_EENS_21__hash_const_iteratorIPNS_11__hash_nodeIS6_PvEEEERKT_, symObjAddr: 0x21710, symBinAddr: 0x58A00, symSize: 0x220 }
  - { offset: 0x25F08E, size: 0x8, addend: 0x0, symName: __ZNSt3__112__hash_tableINS_12basic_stringIcNS_11char_traitsIcEENS_9allocatorIcEEEENS_4hashIS6_EENS_8equal_toIS6_EENS4_IS6_EEE25__emplace_unique_key_argsIS6_JRKS6_EEENS_4pairINS_15__hash_iteratorIPNS_11__hash_nodeIS6_PvEEEEbEERKT_DpOT0_, symObjAddr: 0x21930, symBinAddr: 0x58C20, symSize: 0x580 }
  - { offset: 0x25FAC9, size: 0x8, addend: 0x0, symName: __ZN11spirv_cross8Compiler17update_name_cacheERNSt3__113unordered_setINS1_12basic_stringIcNS1_11char_traitsIcEENS1_9allocatorIcEEEENS1_4hashIS8_EENS1_8equal_toIS8_EENS6_IS8_EEEERS8_, symObjAddr: 0x67D0, symBinAddr: 0x3EBE0, symSize: 0x10 }
  - { offset: 0x25FB38, size: 0x8, addend: 0x0, symName: __ZN11spirv_cross8Compiler8set_nameENS_7TypedIDILNS_5TypesE0EEERKNSt3__112basic_stringIcNS4_11char_traitsIcEENS4_9allocatorIcEEEE, symObjAddr: 0x67E0, symBinAddr: 0x3EBF0, symSize: 0x10 }
  - { offset: 0x25FB6B, size: 0x8, addend: 0x0, symName: __ZNK11spirv_cross8Compiler8get_typeENS_7TypedIDILNS_5TypesE1EEE, symObjAddr: 0x67F0, symBinAddr: 0x3EC00, symSize: 0x20 }
  - { offset: 0x25FC0D, size: 0x8, addend: 0x0, symName: __ZNK11spirv_cross8Compiler22get_type_from_variableENS_7TypedIDILNS_5TypesE2EEE, symObjAddr: 0x6810, symBinAddr: 0x3EC20, symSize: 0x40 }
  - { offset: 0x25FD49, size: 0x8, addend: 0x0, symName: __ZNK11spirv_cross8Compiler19get_pointee_type_idEj, symObjAddr: 0x6850, symBinAddr: 0x3EC60, symSize: 0x40 }
  - { offset: 0x25FDF7, size: 0x8, addend: 0x0, symName: __ZNK11spirv_cross8Compiler16get_pointee_typeEj, symObjAddr: 0x6890, symBinAddr: 0x3ECA0, symSize: 0x50 }
  - { offset: 0x25FF69, size: 0x8, addend: 0x0, symName: __ZNK11spirv_cross8Compiler25get_variable_data_type_idERKNS_12SPIRVariableE, symObjAddr: 0x68E0, symBinAddr: 0x3ECF0, symSize: 0x50 }
  - { offset: 0x260052, size: 0x8, addend: 0x0, symName: __ZNK11spirv_cross8Compiler22get_variable_data_typeERKNS_12SPIRVariableE, symObjAddr: 0x6930, symBinAddr: 0x3ED40, symSize: 0x60 }
  - { offset: 0x2601FD, size: 0x8, addend: 0x0, symName: __ZN11spirv_cross8Compiler25get_variable_element_typeERKNS_12SPIRVariableE, symObjAddr: 0x6990, symBinAddr: 0x3EDA0, symSize: 0x80 }
  - { offset: 0x26047C, size: 0x8, addend: 0x0, symName: __ZNK11spirv_cross8Compiler25get_variable_element_typeERKNS_12SPIRVariableE, symObjAddr: 0x6A10, symBinAddr: 0x3EE20, symSize: 0x80 }
  - { offset: 0x2606FB, size: 0x8, addend: 0x0, symName: __ZN11spirv_cross8Compiler21is_sampled_image_typeERKNS_8SPIRTypeE, symObjAddr: 0x6A90, symBinAddr: 0x3EEA0, symSize: 0x30 }
  - { offset: 0x260732, size: 0x8, addend: 0x0, symName: __ZN11spirv_cross8Compiler28set_member_decoration_stringENS_7TypedIDILNS_5TypesE1EEEjN3spv10DecorationERKNSt3__112basic_stringIcNS6_11char_traitsIcEENS6_9allocatorIcEEEE, symObjAddr: 0x6AC0, symBinAddr: 0x3EED0, symSize: 0x10 }
  - { offset: 0x260798, size: 0x8, addend: 0x0, symName: __ZN11spirv_cross8Compiler21set_member_decorationENS_7TypedIDILNS_5TypesE1EEEjN3spv10DecorationEj, symObjAddr: 0x6AD0, symBinAddr: 0x3EEE0, symSize: 0x10 }
  - { offset: 0x2607FE, size: 0x8, addend: 0x0, symName: __ZN11spirv_cross8Compiler15set_member_nameENS_7TypedIDILNS_5TypesE1EEEjRKNSt3__112basic_stringIcNS4_11char_traitsIcEENS4_9allocatorIcEEEE, symObjAddr: 0x6AE0, symBinAddr: 0x3EEF0, symSize: 0x10 }
  - { offset: 0x260855, size: 0x8, addend: 0x0, symName: __ZNK11spirv_cross8Compiler15get_member_nameENS_7TypedIDILNS_5TypesE1EEEj, symObjAddr: 0x6AF0, symBinAddr: 0x3EF00, symSize: 0x10 }
  - { offset: 0x260910, size: 0x8, addend: 0x0, symName: __ZN11spirv_cross8Compiler18set_qualified_nameEjRKNSt3__112basic_stringIcNS1_11char_traitsIcEENS1_9allocatorIcEEEE, symObjAddr: 0x6B00, symBinAddr: 0x3EF10, symSize: 0x50 }
  - { offset: 0x2609FB, size: 0x8, addend: 0x0, symName: __ZNSt3__112__hash_tableINS_17__hash_value_typeIN11spirv_cross7TypedIDILNS2_5TypesE0EEENS2_4MetaEEENS_22__unordered_map_hasherIS5_S7_NS_4hashIS5_EENS_8equal_toIS5_EELb1EEENS_21__unordered_map_equalIS5_S7_SC_SA_Lb1EEENS_9allocatorIS7_EEE25__emplace_unique_key_argsIS5_JRKNS_21piecewise_construct_tENS_5tupleIJOS5_EEENSN_IJEEEEEENS_4pairINS_15__hash_iteratorIPNS_11__hash_nodeIS7_PvEEEEbEERKT_DpOT0_, symObjAddr: 0x27360, symBinAddr: 0x5D420, symSize: 0x520 }
  - { offset: 0x2618D3, size: 0x8, addend: 0x0, symName: __ZN11spirv_cross8Compiler25set_member_qualified_nameEjjRKNSt3__112basic_stringIcNS1_11char_traitsIcEENS1_9allocatorIcEEEE, symObjAddr: 0x6B50, symBinAddr: 0x3EF60, symSize: 0xE0 }
  - { offset: 0x261B99, size: 0x8, addend: 0x0, symName: __ZN11spirv_cross11SmallVectorINS_4Meta10DecorationELm0EE6resizeEm, symObjAddr: 0x6C30, symBinAddr: 0x3F040, symSize: 0x140 }
  - { offset: 0x2625FF, size: 0x8, addend: 0x0, symName: __ZN11spirv_cross11SmallVectorINS_4Meta10DecorationELm0EE7reserveEm, symObjAddr: 0x27880, symBinAddr: 0x5D940, symSize: 0x3F0 }
  - { offset: 0x263104, size: 0x8, addend: 0x0, symName: __ZNK11spirv_cross8Compiler25get_member_qualified_nameENS_7TypedIDILNS_5TypesE1EEEj, symObjAddr: 0x6D70, symBinAddr: 0x3F180, symSize: 0x50 }
  - { offset: 0x2631A1, size: 0x8, addend: 0x0, symName: __ZNK11spirv_cross8Compiler21get_member_decorationENS_7TypedIDILNS_5TypesE1EEEjN3spv10DecorationE, symObjAddr: 0x6DC0, symBinAddr: 0x3F1D0, symSize: 0x10 }
  - { offset: 0x2631DC, size: 0x8, addend: 0x0, symName: __ZNK11spirv_cross8Compiler28get_member_decoration_bitsetENS_7TypedIDILNS_5TypesE1EEEj, symObjAddr: 0x6DD0, symBinAddr: 0x3F1E0, symSize: 0x10 }
  - { offset: 0x26320F, size: 0x8, addend: 0x0, symName: __ZN11spirv_cross8Compiler23unset_member_decorationENS_7TypedIDILNS_5TypesE1EEEjN3spv10DecorationE, symObjAddr: 0x6DE0, symBinAddr: 0x3F1F0, symSize: 0x10 }
  - { offset: 0x263266, size: 0x8, addend: 0x0, symName: __ZN11spirv_cross8Compiler21set_decoration_stringENS_7TypedIDILNS_5TypesE0EEEN3spv10DecorationERKNSt3__112basic_stringIcNS6_11char_traitsIcEENS6_9allocatorIcEEEE, symObjAddr: 0x6DF0, symBinAddr: 0x3F200, symSize: 0x10 }
  - { offset: 0x2632BD, size: 0x8, addend: 0x0, symName: __ZN11spirv_cross8Compiler14set_decorationENS_7TypedIDILNS_5TypesE0EEEN3spv10DecorationEj, symObjAddr: 0x6E00, symBinAddr: 0x3F210, symSize: 0x10 }
  - { offset: 0x263360, size: 0x8, addend: 0x0, symName: __ZN11spirv_cross8Compiler23set_extended_decorationEjNS_19ExtendedDecorationsEj, symObjAddr: 0x6E10, symBinAddr: 0x3F220, symSize: 0x90 }
  - { offset: 0x263509, size: 0x8, addend: 0x0, symName: __ZNSt3__112__hash_tableIjNS_4hashIjEENS_8equal_toIjEENS_9allocatorIjEEE25__emplace_unique_key_argsIjJRKjEEENS_4pairINS_15__hash_iteratorIPNS_11__hash_nodeIjPvEEEEbEERKT_DpOT0_, symObjAddr: 0x23B70, symBinAddr: 0x5A790, symSize: 0x420 }
  - { offset: 0x263C41, size: 0x8, addend: 0x0, symName: __ZN11spirv_cross8Compiler30set_extended_member_decorationEjjNS_19ExtendedDecorationsEj, symObjAddr: 0x6EA0, symBinAddr: 0x3F2B0, symSize: 0x120 }
  - { offset: 0x263FDB, size: 0x8, addend: 0x0, symName: __ZNK11spirv_cross8Compiler23get_extended_decorationEjNS_19ExtendedDecorationsE, symObjAddr: 0x6FC0, symBinAddr: 0x3F3D0, symSize: 0x190 }
  - { offset: 0x264221, size: 0x8, addend: 0x0, symName: __ZNK11spirv_cross8Compiler30get_extended_member_decorationEjjNS_19ExtendedDecorationsE, symObjAddr: 0x7150, symBinAddr: 0x3F560, symSize: 0x1A0 }
  - { offset: 0x26449C, size: 0x8, addend: 0x0, symName: __ZNK11spirv_cross8Compiler30has_extended_member_decorationEjjNS_19ExtendedDecorationsE, symObjAddr: 0x72F0, symBinAddr: 0x3F700, symSize: 0x170 }
  - { offset: 0x264762, size: 0x8, addend: 0x0, symName: __ZN11spirv_cross8Compiler25unset_extended_decorationEjNS_19ExtendedDecorationsE, symObjAddr: 0x7460, symBinAddr: 0x3F870, symSize: 0x80 }
  - { offset: 0x2648CA, size: 0x8, addend: 0x0, symName: __ZNSt3__112__hash_tableIjNS_4hashIjEENS_8equal_toIjEENS_9allocatorIjEEE14__erase_uniqueIjEEmRKT_, symObjAddr: 0x241D0, symBinAddr: 0x5ABB0, symSize: 0x170 }
  - { offset: 0x264C2A, size: 0x8, addend: 0x0, symName: __ZN11spirv_cross8Compiler32unset_extended_member_decorationEjjNS_19ExtendedDecorationsE, symObjAddr: 0x74E0, symBinAddr: 0x3F8F0, symSize: 0x120 }
  - { offset: 0x264F55, size: 0x8, addend: 0x0, symName: __ZNK11spirv_cross8Compiler17get_storage_classENS_7TypedIDILNS_5TypesE2EEE, symObjAddr: 0x7600, symBinAddr: 0x3FA10, symSize: 0x20 }
  - { offset: 0x265007, size: 0x8, addend: 0x0, symName: __ZNK11spirv_cross8Compiler8get_nameENS_7TypedIDILNS_5TypesE0EEE, symObjAddr: 0x7620, symBinAddr: 0x3FA30, symSize: 0x10 }
  - { offset: 0x265032, size: 0x8, addend: 0x0, symName: __ZNK11spirv_cross8Compiler17get_fallback_nameENS_7TypedIDILNS_5TypesE0EEE, symObjAddr: 0x7630, symBinAddr: 0x3FA40, symSize: 0x30 }
  - { offset: 0x265086, size: 0x8, addend: 0x0, symName: __ZN11spirv_cross12StringStreamILm4096ELm4096EElsINS_7TypedIDILNS_5TypesE0EEELi0EEERS1_RKT_, symObjAddr: 0x27C70, symBinAddr: 0x5DD30, symSize: 0x70 }
  - { offset: 0x2653FF, size: 0x8, addend: 0x0, symName: __ZNK11spirv_cross8Compiler23get_block_fallback_nameENS_7TypedIDILNS_5TypesE2EEE, symObjAddr: 0x77F0, symBinAddr: 0x3FC00, symSize: 0xD0 }
  - { offset: 0x26589F, size: 0x8, addend: 0x0, symName: __ZNK11spirv_cross8Compiler21get_decoration_bitsetENS_7TypedIDILNS_5TypesE0EEE, symObjAddr: 0x7A80, symBinAddr: 0x3FE90, symSize: 0x10 }
  - { offset: 0x2658CA, size: 0x8, addend: 0x0, symName: __ZNK11spirv_cross8Compiler21get_decoration_stringENS_7TypedIDILNS_5TypesE0EEEN3spv10DecorationE, symObjAddr: 0x7A90, symBinAddr: 0x3FEA0, symSize: 0x10 }
  - { offset: 0x265912, size: 0x8, addend: 0x0, symName: __ZNK11spirv_cross8Compiler28get_member_decoration_stringENS_7TypedIDILNS_5TypesE1EEEjN3spv10DecorationE, symObjAddr: 0x7AA0, symBinAddr: 0x3FEB0, symSize: 0x10 }
  - { offset: 0x265969, size: 0x8, addend: 0x0, symName: __ZN11spirv_cross8Compiler16unset_decorationENS_7TypedIDILNS_5TypesE0EEEN3spv10DecorationE, symObjAddr: 0x7AB0, symBinAddr: 0x3FEC0, symSize: 0x10 }
  - { offset: 0x265AE7, size: 0x8, addend: 0x0, symName: __ZNK11spirv_cross8Compiler32get_binary_offset_for_decorationENS_7TypedIDILNS_5TypesE2EEEN3spv10DecorationERj, symObjAddr: 0x7AC0, symBinAddr: 0x3FED0, symSize: 0x160 }
  - { offset: 0x265D36, size: 0x8, addend: 0x0, symName: __ZNK11spirv_cross8Compiler13block_is_noopERKNS_9SPIRBlockE, symObjAddr: 0x7C20, symBinAddr: 0x40030, symSize: 0x1D0 }
  - { offset: 0x266216, size: 0x8, addend: 0x0, symName: __ZNK11spirv_cross8Compiler23block_is_loop_candidateERKNS_9SPIRBlockENS1_6MethodE, symObjAddr: 0x7DF0, symBinAddr: 0x40200, symSize: 0x5F0 }
  - { offset: 0x26724A, size: 0x8, addend: 0x0, symName: __ZNK11spirv_cross8Compiler17execution_is_noopERKNS_9SPIRBlockES3_, symObjAddr: 0x83E0, symBinAddr: 0x407F0, symSize: 0xB0 }
  - { offset: 0x267468, size: 0x8, addend: 0x0, symName: __ZNK11spirv_cross8Compiler23execution_is_branchlessERKNS_9SPIRBlockES3_, symObjAddr: 0x8490, symBinAddr: 0x408A0, symSize: 0x60 }
  - { offset: 0x267558, size: 0x8, addend: 0x0, symName: __ZNK11spirv_cross8Compiler26execution_is_direct_branchERKNS_9SPIRBlockES3_, symObjAddr: 0x84F0, symBinAddr: 0x40900, symSize: 0x20 }
  - { offset: 0x26762D, size: 0x8, addend: 0x0, symName: __ZNK11spirv_cross8Compiler19continue_block_typeERKNS_9SPIRBlockE, symObjAddr: 0x8510, symBinAddr: 0x40920, symSize: 0x2A0 }
  - { offset: 0x267EDB, size: 0x8, addend: 0x0, symName: __ZNK11spirv_cross8Compiler18flush_phi_requiredENS_7TypedIDILNS_5TypesE6EEES3_, symObjAddr: 0x87B0, symBinAddr: 0x40BC0, symSize: 0x60 }
  - { offset: 0x2681FB, size: 0x8, addend: 0x0, symName: __ZNK11spirv_cross8Compiler13get_case_listERKNS_9SPIRBlockE, symObjAddr: 0x8810, symBinAddr: 0x40C20, symSize: 0x200 }
  - { offset: 0x26866C, size: 0x8, addend: 0x0, symName: __ZNK11spirv_cross8Compiler25type_struct_member_offsetERKNS_8SPIRTypeEj, symObjAddr: 0x8C70, symBinAddr: 0x41080, symSize: 0xB0 }
  - { offset: 0x2687D4, size: 0x8, addend: 0x0, symName: __ZNK11spirv_cross8Compiler31type_struct_member_array_strideERKNS_8SPIRTypeEj, symObjAddr: 0x8D20, symBinAddr: 0x41130, symSize: 0xA0 }
  - { offset: 0x268913, size: 0x8, addend: 0x0, symName: __ZNK11spirv_cross8Compiler32type_struct_member_matrix_strideERKNS_8SPIRTypeEj, symObjAddr: 0x8DC0, symBinAddr: 0x411D0, symSize: 0xB0 }
  - { offset: 0x268A02, size: 0x8, addend: 0x0, symName: __ZNK11spirv_cross8Compiler24get_declared_struct_sizeERKNS_8SPIRTypeE, symObjAddr: 0x8E70, symBinAddr: 0x41280, symSize: 0xD0 }
  - { offset: 0x268B1A, size: 0x8, addend: 0x0, symName: __ZNK11spirv_cross8Compiler31get_declared_struct_member_sizeERKNS_8SPIRTypeEj, symObjAddr: 0x8F40, symBinAddr: 0x41350, symSize: 0x230 }
  - { offset: 0x26914C, size: 0x8, addend: 0x0, symName: __ZNK11spirv_cross8Compiler26evaluate_spec_constant_u32ERKNS_14SPIRConstantOpE, symObjAddr: 0x9250, symBinAddr: 0x41660, symSize: 0x840 }
  - { offset: 0x269FD2, size: 0x8, addend: 0x0, symName: __ZNK11spirv_cross8Compiler38get_declared_struct_size_runtime_arrayERKNS_8SPIRTypeEm, symObjAddr: 0x9170, symBinAddr: 0x41580, symSize: 0xE0 }
  - { offset: 0x26A202, size: 0x8, addend: 0x0, symName: '__ZZNK11spirv_cross8Compiler26evaluate_spec_constant_u32ERKNS_14SPIRConstantOpEENK3$_0clEj', symObjAddr: 0x9A90, symBinAddr: 0x41EA0, symSize: 0xF0 }
  - { offset: 0x26A46E, size: 0x8, addend: 0x0, symName: __ZNK11spirv_cross8Compiler21evaluate_constant_u32Ej, symObjAddr: 0x9B80, symBinAddr: 0x41F90, symSize: 0x50 }
  - { offset: 0x26A684, size: 0x8, addend: 0x0, symName: __ZN11spirv_cross8Compiler19BufferAccessHandler6handleEN3spv2OpEPKjj, symObjAddr: 0x9BD0, symBinAddr: 0x41FE0, symSize: 0x240 }
  - { offset: 0x26ACC2, size: 0x8, addend: 0x0, symName: __ZNK11spirv_cross8Compiler24get_active_buffer_rangesENS_7TypedIDILNS_5TypesE2EEE, symObjAddr: 0x9E10, symBinAddr: 0x42220, symSize: 0x160 }
  - { offset: 0x26B42F, size: 0x8, addend: 0x0, symName: __ZN11spirv_cross8Compiler19BufferAccessHandlerD1Ev, symObjAddr: 0x9F70, symBinAddr: 0x42380, symSize: 0x50 }
  - { offset: 0x26B782, size: 0x8, addend: 0x0, symName: __ZNK11spirv_cross8Compiler30types_are_logically_equivalentERKNS_8SPIRTypeES3_, symObjAddr: 0x9FC0, symBinAddr: 0x423D0, symSize: 0x120 }
  - { offset: 0x26BA5C, size: 0x8, addend: 0x0, symName: __ZNK11spirv_cross8Compiler25get_execution_mode_bitsetEv, symObjAddr: 0xA0E0, symBinAddr: 0x424F0, symSize: 0x140 }
  - { offset: 0x26BC48, size: 0x8, addend: 0x0, symName: __ZNK11spirv_cross8Compiler15get_entry_pointEv, symObjAddr: 0xA220, symBinAddr: 0x42630, symSize: 0x130 }
  - { offset: 0x26BEBE, size: 0x8, addend: 0x0, symName: __ZN11spirv_cross8Compiler18set_execution_modeEN3spv13ExecutionModeEjjj, symObjAddr: 0xA350, symBinAddr: 0x42760, symSize: 0x290 }
  - { offset: 0x26C19F, size: 0x8, addend: 0x0, symName: __ZN11spirv_cross8Compiler15get_entry_pointEv, symObjAddr: 0xA5E0, symBinAddr: 0x429F0, symSize: 0x130 }
  - { offset: 0x26C36A, size: 0x8, addend: 0x0, symName: __ZN11spirv_cross8Compiler20unset_execution_modeEN3spv13ExecutionModeE, symObjAddr: 0xA710, symBinAddr: 0x42B20, symSize: 0x170 }
  - { offset: 0x26C5E8, size: 0x8, addend: 0x0, symName: __ZNK11spirv_cross8Compiler44get_work_group_size_specialization_constantsERNS_22SpecializationConstantES2_S2_, symObjAddr: 0xA880, symBinAddr: 0x42C90, symSize: 0x2C0 }
  - { offset: 0x26CB8D, size: 0x8, addend: 0x0, symName: __ZNK11spirv_cross8Compiler27get_execution_mode_argumentEN3spv13ExecutionModeEj, symObjAddr: 0xAB40, symBinAddr: 0x42F50, symSize: 0x2F0 }
  - { offset: 0x26CEAA, size: 0x8, addend: 0x0, symName: __ZNK11spirv_cross8Compiler19get_execution_modelEv, symObjAddr: 0xAE30, symBinAddr: 0x43240, symSize: 0xD0 }
  - { offset: 0x26D114, size: 0x8, addend: 0x0, symName: __ZN11spirv_cross8Compiler22is_tessellation_shaderEN3spv14ExecutionModelE, symObjAddr: 0xAF00, symBinAddr: 0x43310, symSize: 0x10 }
  - { offset: 0x26D133, size: 0x8, addend: 0x0, symName: __ZNK11spirv_cross8Compiler21is_vertex_like_shaderEv, symObjAddr: 0xAF10, symBinAddr: 0x43320, symSize: 0xD0 }
  - { offset: 0x26D3DE, size: 0x8, addend: 0x0, symName: __ZNK11spirv_cross8Compiler22is_tessellation_shaderEv, symObjAddr: 0xAFE0, symBinAddr: 0x433F0, symSize: 0xD0 }
  - { offset: 0x26D6A8, size: 0x8, addend: 0x0, symName: __ZNK11spirv_cross8Compiler25is_tessellating_trianglesEv, symObjAddr: 0xB0B0, symBinAddr: 0x434C0, symSize: 0xD0 }
  - { offset: 0x26D94C, size: 0x8, addend: 0x0, symName: __ZN11spirv_cross8Compiler27set_remapped_variable_stateENS_7TypedIDILNS_5TypesE2EEEb, symObjAddr: 0xB180, symBinAddr: 0x43590, symSize: 0x30 }
  - { offset: 0x26DA0F, size: 0x8, addend: 0x0, symName: __ZNK11spirv_cross8Compiler27get_remapped_variable_stateENS_7TypedIDILNS_5TypesE2EEE, symObjAddr: 0xB1B0, symBinAddr: 0x435C0, symSize: 0x30 }
  - { offset: 0x26DAC1, size: 0x8, addend: 0x0, symName: __ZN11spirv_cross8Compiler37set_subpass_input_remapped_componentsENS_7TypedIDILNS_5TypesE2EEEj, symObjAddr: 0xB1E0, symBinAddr: 0x435F0, symSize: 0x30 }
  - { offset: 0x26DB84, size: 0x8, addend: 0x0, symName: __ZNK11spirv_cross8Compiler37get_subpass_input_remapped_componentsENS_7TypedIDILNS_5TypesE2EEE, symObjAddr: 0xB210, symBinAddr: 0x43620, symSize: 0x30 }
  - { offset: 0x26DC6C, size: 0x8, addend: 0x0, symName: __ZN11spirv_cross8Compiler27add_implied_read_expressionERNS_14SPIRExpressionEj, symObjAddr: 0xB240, symBinAddr: 0x43650, symSize: 0x80 }
  - { offset: 0x26DDE8, size: 0x8, addend: 0x0, symName: __ZN11spirv_cross8Compiler27add_implied_read_expressionERNS_15SPIRAccessChainEj, symObjAddr: 0xB2C0, symBinAddr: 0x436D0, symSize: 0x80 }
  - { offset: 0x26DFC2, size: 0x8, addend: 0x0, symName: __ZN11spirv_cross8Compiler29add_active_interface_variableEj, symObjAddr: 0xB340, symBinAddr: 0x43750, symSize: 0x170 }
  - { offset: 0x26E5B9, size: 0x8, addend: 0x0, symName: __ZN11spirv_cross8Compiler31inherit_expression_dependenciesEjj, symObjAddr: 0xB4B0, symBinAddr: 0x438C0, symSize: 0x3E0 }
  - { offset: 0x26F01D, size: 0x8, addend: 0x0, symName: __ZN11spirv_cross11SmallVectorINS_7TypedIDILNS_5TypesE0EEELm8EE6insertEPS3_PKS3_S7_, symObjAddr: 0xB890, symBinAddr: 0x43CA0, symSize: 0x550 }
  - { offset: 0x26F476, size: 0x8, addend: 0x0, symName: __ZNK11spirv_cross8Compiler27get_entry_points_and_stagesEv, symObjAddr: 0xBDE0, symBinAddr: 0x441F0, symSize: 0x110 }
  - { offset: 0x26F852, size: 0x8, addend: 0x0, symName: __ZN11spirv_cross11SmallVectorINS_10EntryPointELm8EE7reserveEm, symObjAddr: 0x28CA0, symBinAddr: 0x5EAC0, symSize: 0x110 }
  - { offset: 0x26FB46, size: 0x8, addend: 0x0, symName: __ZN11spirv_cross11SmallVectorINS_10EntryPointELm8EED1Ev, symObjAddr: 0xBEF0, symBinAddr: 0x44300, symSize: 0x80 }
  - { offset: 0x26FDA1, size: 0x8, addend: 0x0, symName: __ZN11spirv_cross8Compiler18rename_entry_pointERKNSt3__112basic_stringIcNS1_11char_traitsIcEENS1_9allocatorIcEEEES9_N3spv14ExecutionModelE, symObjAddr: 0xBF70, symBinAddr: 0x44380, symSize: 0x40 }
  - { offset: 0x26FE36, size: 0x8, addend: 0x0, symName: __ZN11spirv_cross8Compiler15get_entry_pointERKNSt3__112basic_stringIcNS1_11char_traitsIcEENS1_9allocatorIcEEEEN3spv14ExecutionModelE, symObjAddr: 0xBFB0, symBinAddr: 0x443C0, symSize: 0x260 }
  - { offset: 0x270B51, size: 0x8, addend: 0x0, symName: __ZN11spirv_cross14SPIREntryPointC2ERKS0_, symObjAddr: 0x28DB0, symBinAddr: 0x5EBD0, symSize: 0x210 }
  - { offset: 0x271042, size: 0x8, addend: 0x0, symName: __ZN11spirv_cross8Compiler15set_entry_pointERKNSt3__112basic_stringIcNS1_11char_traitsIcEENS1_9allocatorIcEEEEN3spv14ExecutionModelE, symObjAddr: 0xC210, symBinAddr: 0x44620, symSize: 0x20 }
  - { offset: 0x2710C6, size: 0x8, addend: 0x0, symName: __ZN11spirv_cross8Compiler21get_first_entry_pointERKNSt3__112basic_stringIcNS1_11char_traitsIcEENS1_9allocatorIcEEEE, symObjAddr: 0xC230, symBinAddr: 0x44640, symSize: 0x240 }
  - { offset: 0x271BCB, size: 0x8, addend: 0x0, symName: __ZNK11spirv_cross8Compiler21get_first_entry_pointERKNSt3__112basic_stringIcNS1_11char_traitsIcEENS1_9allocatorIcEEEE, symObjAddr: 0xC470, symBinAddr: 0x44880, symSize: 0x240 }
  - { offset: 0x2726D8, size: 0x8, addend: 0x0, symName: __ZNK11spirv_cross8Compiler15get_entry_pointERKNSt3__112basic_stringIcNS1_11char_traitsIcEENS1_9allocatorIcEEEEN3spv14ExecutionModelE, symObjAddr: 0xC6B0, symBinAddr: 0x44AC0, symSize: 0x260 }
  - { offset: 0x2731CD, size: 0x8, addend: 0x0, symName: __ZNK11spirv_cross8Compiler29get_cleansed_entry_point_nameERKNSt3__112basic_stringIcNS1_11char_traitsIcEENS1_9allocatorIcEEEEN3spv14ExecutionModelE, symObjAddr: 0xC910, symBinAddr: 0x44D20, symSize: 0x10 }
  - { offset: 0x273AA3, size: 0x8, addend: 0x0, symName: __ZN11spirv_cross8Compiler27CombinedImageSamplerHandler21push_remap_parametersERKNS_12SPIRFunctionEPKjj, symObjAddr: 0xC920, symBinAddr: 0x44D30, symSize: 0x200 }
  - { offset: 0x2743E1, size: 0x8, addend: 0x0, symName: __ZN11spirv_cross8Compiler27CombinedImageSamplerHandler15remap_parameterEj, symObjAddr: 0xCB20, symBinAddr: 0x44F30, symSize: 0x1A0 }
  - { offset: 0x2746BF, size: 0x8, addend: 0x0, symName: __ZNSt3__112__hash_tableINS_17__hash_value_typeIjjEENS_22__unordered_map_hasherIjS2_NS_4hashIjEENS_8equal_toIjEELb1EEENS_21__unordered_map_equalIjS2_S7_S5_Lb1EEENS_9allocatorIS2_EEE25__emplace_unique_key_argsIjJRKNS_21piecewise_construct_tENS_5tupleIJOjEEENSI_IJEEEEEENS_4pairINS_15__hash_iteratorIPNS_11__hash_nodeIS2_PvEEEEbEERKT_DpOT0_, symObjAddr: 0x29170, symBinAddr: 0x5EF90, symSize: 0x430 }
  - { offset: 0x274EE3, size: 0x8, addend: 0x0, symName: __ZNSt3__15dequeINS_13unordered_mapIjjNS_4hashIjEENS_8equal_toIjEENS_9allocatorINS_4pairIKjjEEEEEENS6_ISB_EEE19__add_back_capacityEv, symObjAddr: 0x297E0, symBinAddr: 0x5F3C0, symSize: 0x560 }
  - { offset: 0x276363, size: 0x8, addend: 0x0, symName: __ZN11spirv_cross8Compiler27CombinedImageSamplerHandler20pop_remap_parametersEv, symObjAddr: 0xCD10, symBinAddr: 0x450D0, symSize: 0x10 }
  - { offset: 0x2763B3, size: 0x8, addend: 0x0, symName: __ZNSt3__15dequeINS_13unordered_mapIjjNS_4hashIjEENS_8equal_toIjEENS_9allocatorINS_4pairIKjjEEEEEENS6_ISB_EEE8pop_backEv, symObjAddr: 0x2A2C0, symBinAddr: 0x5FCD0, symSize: 0xD0 }
  - { offset: 0x276ADA, size: 0x8, addend: 0x0, symName: __ZN11spirv_cross8Compiler27CombinedImageSamplerHandler20begin_function_scopeEPKjj, symObjAddr: 0xCD20, symBinAddr: 0x450E0, symSize: 0xC0 }
  - { offset: 0x276D40, size: 0x8, addend: 0x0, symName: __ZNSt3__15dequeIPN11spirv_cross12SPIRFunctionENS_9allocatorIS3_EEE19__add_back_capacityEv, symObjAddr: 0x2A390, symBinAddr: 0x5FDA0, symSize: 0x560 }
  - { offset: 0x27811E, size: 0x8, addend: 0x0, symName: __ZN11spirv_cross8Compiler27CombinedImageSamplerHandler18end_function_scopeEPKjj, symObjAddr: 0xCDE0, symBinAddr: 0x451A0, symSize: 0x1F0 }
  - { offset: 0x278867, size: 0x8, addend: 0x0, symName: __ZN11spirv_cross8Compiler27CombinedImageSamplerHandler31register_combined_image_samplerERNS_12SPIRFunctionENS_7TypedIDILNS_5TypesE2EEES6_S6_b, symObjAddr: 0xCFD0, symBinAddr: 0x45390, symSize: 0x530 }
  - { offset: 0x279D21, size: 0x8, addend: 0x0, symName: __ZN11spirv_cross10ObjectPoolINS_8SPIRTypeEE8allocateIJN3spv2OpEEEEPS1_DpOT_, symObjAddr: 0x2AE70, symBinAddr: 0x60300, symSize: 0x210 }
  - { offset: 0x27A12F, size: 0x8, addend: 0x0, symName: __ZN11spirv_cross7Variant3setEPNS_8IVariantENS_5TypesE, symObjAddr: 0x2B080, symBinAddr: 0x60510, symSize: 0xC0 }
  - { offset: 0x27A1D2, size: 0x8, addend: 0x0, symName: __ZN11spirv_cross8SPIRTypeaSERKS0_, symObjAddr: 0xD500, symBinAddr: 0x458C0, symSize: 0x4A0 }
  - { offset: 0x27A472, size: 0x8, addend: 0x0, symName: __ZN11spirv_cross10ObjectPoolINS_12SPIRVariableEE8allocateIJRjN3spv12StorageClassEiEEEPS1_DpOT_, symObjAddr: 0x2BFB0, symBinAddr: 0x61440, symSize: 0x1C0 }
  - { offset: 0x27A8A6, size: 0x8, addend: 0x0, symName: __ZN11spirv_cross11SmallVectorINS_12SPIRFunction29CombinedImageSamplerParameterELm8EE7reserveEm, symObjAddr: 0x2C7F0, symBinAddr: 0x61A40, symSize: 0xC0 }
  - { offset: 0x27A951, size: 0x8, addend: 0x0, symName: __ZN11spirv_cross11SmallVectorINS_12SPIRFunction9ParameterELm8EE7reserveEm, symObjAddr: 0x247C0, symBinAddr: 0x5B080, symSize: 0xE0 }
  - { offset: 0x27AB91, size: 0x8, addend: 0x0, symName: __ZN11spirv_cross11SmallVectorIbLm8EE7reserveEm, symObjAddr: 0x2BE30, symBinAddr: 0x612C0, symSize: 0x180 }
  - { offset: 0x27ACC5, size: 0x8, addend: 0x0, symName: __ZNSt3__112__hash_tableINS_12basic_stringIcNS_11char_traitsIcEENS_9allocatorIcEEEENS_4hashIS6_EENS_8equal_toIS6_EENS4_IS6_EEE14__assign_multiINS_21__hash_const_iteratorIPNS_11__hash_nodeIS6_PvEEEEEEvT_SK_, symObjAddr: 0x222C0, symBinAddr: 0x59420, symSize: 0x1C0 }
  - { offset: 0x27B4C4, size: 0x8, addend: 0x0, symName: __ZN11spirv_cross8Compiler35DummySamplerForCombinedImageHandler6handleEN3spv2OpEPKjj, symObjAddr: 0xDB70, symBinAddr: 0x45F30, symSize: 0x2B0 }
  - { offset: 0x27BB06, size: 0x8, addend: 0x0, symName: __ZN11spirv_cross10ObjectPoolINS_14SPIRExpressionEE8allocateIJRA1_KcRjbEEEPS1_DpOT_, symObjAddr: 0x2C8B0, symBinAddr: 0x61B00, symSize: 0x280 }
  - { offset: 0x27C42C, size: 0x8, addend: 0x0, symName: __ZN11spirv_cross8Compiler3setINS_14SPIRExpressionEJRA1_KcRjbEEERT_jDpOT0_, symObjAddr: 0xDE20, symBinAddr: 0x461E0, symSize: 0x90 }
  - { offset: 0x27C5F7, size: 0x8, addend: 0x0, symName: __ZN11spirv_cross8Compiler27CombinedImageSamplerHandler6handleEN3spv2OpEPKjj, symObjAddr: 0xDEB0, symBinAddr: 0x46270, symSize: 0xA10 }
  - { offset: 0x27D6FB, size: 0x8, addend: 0x0, symName: __ZN11spirv_cross11SmallVectorINS_20CombinedImageSamplerELm8EE7reserveEm, symObjAddr: 0x2D220, symBinAddr: 0x62230, symSize: 0xE0 }
  - { offset: 0x27D825, size: 0x8, addend: 0x0, symName: __ZN11spirv_cross8Compiler39build_dummy_sampler_for_combined_imagesEv, symObjAddr: 0xE8C0, symBinAddr: 0x46C80, symSize: 0x2B0 }
  - { offset: 0x27E42C, size: 0x8, addend: 0x0, symName: __ZN11spirv_cross8Compiler29build_combined_image_samplersEb, symObjAddr: 0xEB80, symBinAddr: 0x46F30, symSize: 0x3E0 }
  - { offset: 0x27FE3A, size: 0x8, addend: 0x0, symName: __ZN11spirv_cross8Compiler27CombinedImageSamplerHandlerD1Ev, symObjAddr: 0xEF60, symBinAddr: 0x47310, symSize: 0x90 }
  - { offset: 0x280227, size: 0x8, addend: 0x0, symName: __ZNSt3__15dequeIPN11spirv_cross12SPIRFunctionENS_9allocatorIS3_EEED2B8ne180100Ev, symObjAddr: 0x22F70, symBinAddr: 0x5A0D0, symSize: 0xD0 }
  - { offset: 0x280657, size: 0x8, addend: 0x0, symName: __ZNSt3__15dequeINS_13unordered_mapIjjNS_4hashIjEENS_8equal_toIjEENS_9allocatorINS_4pairIKjjEEEEEENS6_ISB_EEE5clearEv, symObjAddr: 0x23040, symBinAddr: 0x5A1A0, symSize: 0x160 }
  - { offset: 0x280C68, size: 0x8, addend: 0x0, symName: __ZNK11spirv_cross8Compiler28get_specialization_constantsEv, symObjAddr: 0xEFF0, symBinAddr: 0x473A0, symSize: 0x160 }
  - { offset: 0x281194, size: 0x8, addend: 0x0, symName: __ZN11spirv_cross11SmallVectorINS_22SpecializationConstantELm8EE7reserveEm, symObjAddr: 0x2D300, symBinAddr: 0x62310, symSize: 0xC0 }
  - { offset: 0x281275, size: 0x8, addend: 0x0, symName: __ZN11spirv_cross8Compiler12get_constantENS_7TypedIDILNS_5TypesE3EEE, symObjAddr: 0xF150, symBinAddr: 0x47500, symSize: 0x20 }
  - { offset: 0x281325, size: 0x8, addend: 0x0, symName: __ZNK11spirv_cross8Compiler12get_constantENS_7TypedIDILNS_5TypesE3EEE, symObjAddr: 0xF170, symBinAddr: 0x47520, symSize: 0x20 }
  - { offset: 0x281510, size: 0x8, addend: 0x0, symName: __ZN11spirv_cross8Compiler30analyze_parameter_preservationERNS_12SPIRFunctionERKNS_3CFGERKNSt3__113unordered_mapIjNS6_13unordered_setIjNS6_4hashIjEENS6_8equal_toIjEENS6_9allocatorIjEEEESA_SC_NSD_INS6_4pairIKjSF_EEEEEESM_, symObjAddr: 0xF190, symBinAddr: 0x47540, symSize: 0x360 }
  - { offset: 0x281F23, size: 0x8, addend: 0x0, symName: __ZL32exists_unaccessed_path_to_returnRKN11spirv_cross3CFGEjRKNSt3__113unordered_setIjNS3_4hashIjEENS3_8equal_toIjEENS3_9allocatorIjEEEERSB_, symObjAddr: 0xF4F0, symBinAddr: 0x478A0, symSize: 0x540 }
  - { offset: 0x282AB8, size: 0x8, addend: 0x0, symName: __ZN11spirv_cross8Compiler33AnalyzeVariableScopeAccessHandlerC2ERS0_RNS_12SPIRFunctionE, symObjAddr: 0xFA30, symBinAddr: 0x47DE0, symSize: 0xC0 }
  - { offset: 0x28365D, size: 0x8, addend: 0x0, symName: __ZN11spirv_cross8Compiler33AnalyzeVariableScopeAccessHandlerC1ERS0_RNS_12SPIRFunctionE, symObjAddr: 0xFAF0, symBinAddr: 0x47EA0, symSize: 0xC0 }
  - { offset: 0x2841F5, size: 0x8, addend: 0x0, symName: __ZN11spirv_cross8Compiler33AnalyzeVariableScopeAccessHandler20follow_function_callERKNS_12SPIRFunctionE, symObjAddr: 0xFBB0, symBinAddr: 0x47F60, symSize: 0x10 }
  - { offset: 0x28423F, size: 0x8, addend: 0x0, symName: __ZN11spirv_cross8Compiler33AnalyzeVariableScopeAccessHandler17set_current_blockERKNS_9SPIRBlockE, symObjAddr: 0xFBC0, symBinAddr: 0x47F70, symSize: 0xE0 }
  - { offset: 0x284572, size: 0x8, addend: 0x0, symName: __ZN11spirv_cross8Compiler33AnalyzeVariableScopeAccessHandler22notify_variable_accessEjj, symObjAddr: 0xFCA0, symBinAddr: 0x48050, symSize: 0x220 }
  - { offset: 0x284ADB, size: 0x8, addend: 0x0, symName: '__ZZN11spirv_cross8Compiler33AnalyzeVariableScopeAccessHandler17set_current_blockERKNS_9SPIRBlockEENK3$_0clEj', symObjAddr: 0xFEC0, symBinAddr: 0x48270, symSize: 0x160 }
  - { offset: 0x285035, size: 0x8, addend: 0x0, symName: __ZNSt3__112__hash_tableINS_17__hash_value_typeIjNS_13unordered_setIjNS_4hashIjEENS_8equal_toIjEENS_9allocatorIjEEEEEENS_22__unordered_map_hasherIjSA_S4_S6_Lb1EEENS_21__unordered_map_equalIjSA_S6_S4_Lb1EEENS7_ISA_EEE25__emplace_unique_key_argsIjJRKNS_21piecewise_construct_tENS_5tupleIJRKjEEENSL_IJEEEEEENS_4pairINS_15__hash_iteratorIPNS_11__hash_nodeISA_PvEEEEbEERKT_DpOT0_, symObjAddr: 0x2DAD0, symBinAddr: 0x628A0, symSize: 0x460 }
  - { offset: 0x2859F8, size: 0x8, addend: 0x0, symName: __ZNSt3__112__hash_tableINS_17__hash_value_typeIjNS_13unordered_setIjNS_4hashIjEENS_8equal_toIjEENS_9allocatorIjEEEEEENS_22__unordered_map_hasherIjSA_S4_S6_Lb1EEENS_21__unordered_map_equalIjSA_S6_S4_Lb1EEENS7_ISA_EEE25__emplace_unique_key_argsIjJRKNS_21piecewise_construct_tENS_5tupleIJOjEEENSL_IJEEEEEENS_4pairINS_15__hash_iteratorIPNS_11__hash_nodeISA_PvEEEEbEERKT_DpOT0_, symObjAddr: 0x2D3C0, symBinAddr: 0x623D0, symSize: 0x460 }
  - { offset: 0x28637B, size: 0x8, addend: 0x0, symName: __ZNK11spirv_cross8Compiler33AnalyzeVariableScopeAccessHandler18id_is_phi_variableEj, symObjAddr: 0x10020, symBinAddr: 0x483D0, symSize: 0x40 }
  - { offset: 0x28649D, size: 0x8, addend: 0x0, symName: __ZNK11spirv_cross8Compiler33AnalyzeVariableScopeAccessHandler25id_is_potential_temporaryEj, symObjAddr: 0x10060, symBinAddr: 0x48410, symSize: 0x40 }
  - { offset: 0x286510, size: 0x8, addend: 0x0, symName: __ZN11spirv_cross8Compiler33AnalyzeVariableScopeAccessHandler17handle_terminatorERKNS_9SPIRBlockE, symObjAddr: 0x100A0, symBinAddr: 0x48450, symSize: 0x30 }
  - { offset: 0x2867AB, size: 0x8, addend: 0x0, symName: __ZN11spirv_cross8Compiler33AnalyzeVariableScopeAccessHandler6handleEN3spv2OpEPKjj, symObjAddr: 0x100D0, symBinAddr: 0x48480, symSize: 0x1390 }
  - { offset: 0x288A04, size: 0x8, addend: 0x0, symName: __ZNSt3__112__hash_tableINS_17__hash_value_typeIjjEENS_22__unordered_map_hasherIjS2_NS_4hashIjEENS_8equal_toIjEELb1EEENS_21__unordered_map_equalIjS2_S7_S5_Lb1EEENS_9allocatorIS2_EEE25__emplace_unique_key_argsIjJRKNS_21piecewise_construct_tENS_5tupleIJRKjEEENSI_IJEEEEEENS_4pairINS_15__hash_iteratorIPNS_11__hash_nodeIS2_PvEEEEbEERKT_DpOT0_, symObjAddr: 0x2DF30, symBinAddr: 0x62D00, symSize: 0x430 }
  - { offset: 0x289798, size: 0x8, addend: 0x0, symName: __ZNKSt3__113unordered_setIjNS_4hashIjEENS_8equal_toIjEENS_9allocatorIjEEE5countB8ne180100ERKj, symObjAddr: 0x114C0, symBinAddr: 0x49870, symSize: 0x130 }
  - { offset: 0x289972, size: 0x8, addend: 0x0, symName: __ZN11spirv_cross8Compiler26instruction_to_result_typeERjS1_N3spv2OpEPKjj, symObjAddr: 0x11460, symBinAddr: 0x49810, symSize: 0x60 }
  - { offset: 0x2899F8, size: 0x8, addend: 0x0, symName: __ZNK11spirv_cross8Compiler20type_is_opaque_valueERKNS_8SPIRTypeE, symObjAddr: 0x115F0, symBinAddr: 0x499A0, symSize: 0x20 }
  - { offset: 0x289A26, size: 0x8, addend: 0x0, symName: __ZN11spirv_cross8Compiler29StaticExpressionAccessHandlerC2ERS0_j, symObjAddr: 0x11610, symBinAddr: 0x499C0, symSize: 0x20 }
  - { offset: 0x289A93, size: 0x8, addend: 0x0, symName: __ZN11spirv_cross8Compiler29StaticExpressionAccessHandlerC1ERS0_j, symObjAddr: 0x11630, symBinAddr: 0x499E0, symSize: 0x20 }
  - { offset: 0x289AF3, size: 0x8, addend: 0x0, symName: __ZN11spirv_cross8Compiler29StaticExpressionAccessHandler20follow_function_callERKNS_12SPIRFunctionE, symObjAddr: 0x11650, symBinAddr: 0x49A00, symSize: 0x10 }
  - { offset: 0x289B22, size: 0x8, addend: 0x0, symName: __ZN11spirv_cross8Compiler29StaticExpressionAccessHandler6handleEN3spv2OpEPKjj, symObjAddr: 0x11660, symBinAddr: 0x49A10, symSize: 0x60 }
  - { offset: 0x289D41, size: 0x8, addend: 0x0, symName: __ZN11spirv_cross8Compiler24find_function_local_lutsERNS_12SPIRFunctionERKNS0_33AnalyzeVariableScopeAccessHandlerEb, symObjAddr: 0x116C0, symBinAddr: 0x49A70, symSize: 0x850 }
  - { offset: 0x28B4D6, size: 0x8, addend: 0x0, symName: __ZN11spirv_cross8Compiler22analyze_variable_scopeERNS_12SPIRFunctionERNS0_33AnalyzeVariableScopeAccessHandlerE, symObjAddr: 0x11F20, symBinAddr: 0x4A2C0, symSize: 0x19A0 }
  - { offset: 0x28F5D0, size: 0x8, addend: 0x0, symName: __ZNSt3__112__hash_tableINS_17__hash_value_typeIN11spirv_cross7TypedIDILNS2_5TypesE6EEES5_EENS_22__unordered_map_hasherIS5_S6_NS_4hashIS5_EENS_8equal_toIS5_EELb1EEENS_21__unordered_map_equalIS5_S6_SB_S9_Lb1EEENS_9allocatorIS6_EEE25__emplace_unique_key_argsIS5_JRKNS_21piecewise_construct_tENS_5tupleIJOS5_EEENSM_IJEEEEEENS_4pairINS_15__hash_iteratorIPNS_11__hash_nodeIS6_PvEEEEbEERKT_DpOT0_, symObjAddr: 0x2E5E0, symBinAddr: 0x63130, symSize: 0x430 }
  - { offset: 0x28FE7E, size: 0x8, addend: 0x0, symName: __ZN11spirv_cross8Compiler36may_read_undefined_variable_in_blockERKNS_9SPIRBlockEj, symObjAddr: 0x138C0, symBinAddr: 0x4BC60, symSize: 0x240 }
  - { offset: 0x290132, size: 0x8, addend: 0x0, symName: '__ZNK11spirv_cross3CFG9walk_fromIZNS_8Compiler22analyze_variable_scopeERNS_12SPIRFunctionERNS2_33AnalyzeVariableScopeAccessHandlerEE3$_0EEvRNSt3__113unordered_setIjNS8_4hashIjEENS8_8equal_toIjEENS8_9allocatorIjEEEEjRKT_', symObjAddr: 0x13B00, symBinAddr: 0x4BEA0, symSize: 0x3B0 }
  - { offset: 0x2907D2, size: 0x8, addend: 0x0, symName: __ZNK11spirv_cross8Compiler22get_buffer_block_flagsENS_7TypedIDILNS_5TypesE2EEE, symObjAddr: 0x13EB0, symBinAddr: 0x4C250, symSize: 0x40 }
  - { offset: 0x29087E, size: 0x8, addend: 0x0, symName: __ZN11spirv_cross8Compiler21get_common_basic_typeERKNS_8SPIRTypeERNS1_8BaseTypeE, symObjAddr: 0x13EF0, symBinAddr: 0x4C290, symSize: 0xB0 }
  - { offset: 0x290A39, size: 0x8, addend: 0x0, symName: __ZN11spirv_cross8Compiler20ActiveBuiltinHandler14handle_builtinERKNS_8SPIRTypeEN3spv7BuiltInERKNS_6BitsetE, symObjAddr: 0x13FA0, symBinAddr: 0x4C340, symSize: 0x170 }
  - { offset: 0x290CC4, size: 0x8, addend: 0x0, symName: __ZN11spirv_cross8Compiler20ActiveBuiltinHandler14add_if_builtinEjb, symObjAddr: 0x14110, symBinAddr: 0x4C4B0, symSize: 0x240 }
  - { offset: 0x291358, size: 0x8, addend: 0x0, symName: __ZN11spirv_cross8Compiler20ActiveBuiltinHandler14add_if_builtinEj, symObjAddr: 0x14350, symBinAddr: 0x4C6F0, symSize: 0x10 }
  - { offset: 0x2913A6, size: 0x8, addend: 0x0, symName: __ZN11spirv_cross8Compiler20ActiveBuiltinHandler23add_if_builtin_or_blockEj, symObjAddr: 0x14360, symBinAddr: 0x4C700, symSize: 0x10 }
  - { offset: 0x29141F, size: 0x8, addend: 0x0, symName: __ZN11spirv_cross8Compiler20ActiveBuiltinHandler6handleEN3spv2OpEPKjj, symObjAddr: 0x14370, symBinAddr: 0x4C710, symSize: 0x410 }
  - { offset: 0x291D06, size: 0x8, addend: 0x0, symName: __ZN11spirv_cross8Compiler22update_active_builtinsEv, symObjAddr: 0x14780, symBinAddr: 0x4CB20, symSize: 0x320 }
  - { offset: 0x2926FF, size: 0x8, addend: 0x0, symName: __ZNK11spirv_cross8Compiler18has_active_builtinEN3spv7BuiltInENS1_12StorageClassE, symObjAddr: 0x14AB0, symBinAddr: 0x4CE40, symSize: 0x160 }
  - { offset: 0x292D75, size: 0x8, addend: 0x0, symName: __ZN11spirv_cross8Compiler31analyze_image_and_sampler_usageEv, symObjAddr: 0x14C10, symBinAddr: 0x4CFA0, symSize: 0x610 }
  - { offset: 0x294AF0, size: 0x8, addend: 0x0, symName: __ZNSt3__112__hash_tableIjNS_4hashIjEENS_8equal_toIjEENS_9allocatorIjEEE13__move_assignERS7_NS_17integral_constantIbLb1EEE, symObjAddr: 0x24530, symBinAddr: 0x5AF10, symSize: 0x170 }
  - { offset: 0x294EFC, size: 0x8, addend: 0x0, symName: __ZN11spirv_cross8Compiler32CombinedImageSamplerUsageHandlerD2Ev, symObjAddr: 0x231A0, symBinAddr: 0x5A300, symSize: 0xE0 }
  - { offset: 0x2958DD, size: 0x8, addend: 0x0, symName: __ZN11spirv_cross8Compiler31CombinedImageSamplerDrefHandlerD1Ev, symObjAddr: 0x15230, symBinAddr: 0x4D5C0, symSize: 0x50 }
  - { offset: 0x295C1A, size: 0x8, addend: 0x0, symName: __ZN11spirv_cross8Compiler32CombinedImageSamplerUsageHandlerD1Ev, symObjAddr: 0x15220, symBinAddr: 0x4D5B0, symSize: 0x10 }
  - { offset: 0x295C52, size: 0x8, addend: 0x0, symName: __ZN11spirv_cross8Compiler31CombinedImageSamplerDrefHandler6handleEN3spv2OpEPKjj, symObjAddr: 0x15280, symBinAddr: 0x4D610, symSize: 0x50 }
  - { offset: 0x295DCB, size: 0x8, addend: 0x0, symName: __ZNK11spirv_cross8Compiler28get_cfg_for_current_functionEv, symObjAddr: 0x152D0, symBinAddr: 0x4D660, symSize: 0xD0 }
  - { offset: 0x29600E, size: 0x8, addend: 0x0, symName: __ZNK11spirv_cross8Compiler20get_cfg_for_functionEj, symObjAddr: 0x153A0, symBinAddr: 0x4D730, symSize: 0xD0 }
  - { offset: 0x29659B, size: 0x8, addend: 0x0, symName: __ZN11spirv_cross8Compiler46build_function_control_flow_graphs_and_analyzeEv, symObjAddr: 0x15470, symBinAddr: 0x4D800, symSize: 0x6E0 }
  - { offset: 0x29847C, size: 0x8, addend: 0x0, symName: __ZNSt3__112__hash_tableINS_17__hash_value_typeIjNS_10unique_ptrIN11spirv_cross3CFGENS_14default_deleteIS4_EEEEEENS_22__unordered_map_hasherIjS8_NS_4hashIjEENS_8equal_toIjEELb1EEENS_21__unordered_map_equalIjS8_SD_SB_Lb1EEENS_9allocatorIS8_EEE25__emplace_unique_key_argsIjJRKNS_21piecewise_construct_tENS_5tupleIJOjEEENSO_IJEEEEEENS_4pairINS_15__hash_iteratorIPNS_11__hash_nodeIS8_PvEEEEbEERKT_DpOT0_, symObjAddr: 0x2FB80, symBinAddr: 0x63560, symSize: 0x450 }
  - { offset: 0x298D18, size: 0x8, addend: 0x0, symName: __ZNSt3__112__hash_tableINS_17__hash_value_typeIjNS_10unique_ptrIN11spirv_cross3CFGENS_14default_deleteIS4_EEEEEENS_22__unordered_map_hasherIjS8_NS_4hashIjEENS_8equal_toIjEELb1EEENS_21__unordered_map_equalIjS8_SD_SB_Lb1EEENS_9allocatorIS8_EEE13__move_assignERSJ_NS_17integral_constantIbLb1EEE, symObjAddr: 0x303E0, symBinAddr: 0x63A00, symSize: 0x190 }
  - { offset: 0x29925E, size: 0x8, addend: 0x0, symName: __ZN11spirv_cross8Compiler33AnalyzeVariableScopeAccessHandlerD2Ev, symObjAddr: 0x23280, symBinAddr: 0x5A3E0, symSize: 0x300 }
  - { offset: 0x29B9D5, size: 0x8, addend: 0x0, symName: __ZN11spirv_cross8Compiler10CFGBuilderC1ERS0_, symObjAddr: 0x15B50, symBinAddr: 0x4DEE0, symSize: 0x30 }
  - { offset: 0x29BBB5, size: 0x8, addend: 0x0, symName: __ZN11spirv_cross8Compiler33AnalyzeVariableScopeAccessHandlerD1Ev, symObjAddr: 0x15B80, symBinAddr: 0x4DF10, symSize: 0x10 }
  - { offset: 0x29BBED, size: 0x8, addend: 0x0, symName: __ZN11spirv_cross8Compiler10CFGBuilderD1Ev, symObjAddr: 0x15B90, symBinAddr: 0x4DF20, symSize: 0x80 }
  - { offset: 0x29C06A, size: 0x8, addend: 0x0, symName: __ZN11spirv_cross8Compiler10CFGBuilderC2ERS0_, symObjAddr: 0x15C10, symBinAddr: 0x4DFA0, symSize: 0x30 }
  - { offset: 0x29C223, size: 0x8, addend: 0x0, symName: __ZN11spirv_cross8Compiler10CFGBuilder6handleEN3spv2OpEPKjj, symObjAddr: 0x15C40, symBinAddr: 0x4DFD0, symSize: 0x10 }
  - { offset: 0x29C264, size: 0x8, addend: 0x0, symName: __ZN11spirv_cross8Compiler10CFGBuilder20follow_function_callERKNS_12SPIRFunctionE, symObjAddr: 0x15C50, symBinAddr: 0x4DFE0, symSize: 0x1C0 }
  - { offset: 0x29C52C, size: 0x8, addend: 0x0, symName: __ZN11spirv_cross8Compiler32CombinedImageSamplerUsageHandler14add_dependencyEjj, symObjAddr: 0x15E10, symBinAddr: 0x4E1A0, symSize: 0x180 }
  - { offset: 0x29C86E, size: 0x8, addend: 0x0, symName: __ZN11spirv_cross8Compiler32CombinedImageSamplerUsageHandler20begin_function_scopeEPKjj, symObjAddr: 0x15F90, symBinAddr: 0x4E320, symSize: 0x90 }
  - { offset: 0x29C9E3, size: 0x8, addend: 0x0, symName: __ZN11spirv_cross8Compiler32CombinedImageSamplerUsageHandler31add_hierarchy_to_comparison_idsEj, symObjAddr: 0x16020, symBinAddr: 0x4E3B0, symSize: 0x70 }
  - { offset: 0x29CB6D, size: 0x8, addend: 0x0, symName: __ZN11spirv_cross8Compiler32CombinedImageSamplerUsageHandler6handleEN3spv2OpEPKjj, symObjAddr: 0x16090, symBinAddr: 0x4E420, symSize: 0x300 }
  - { offset: 0x29D082, size: 0x8, addend: 0x0, symName: __ZNK11spirv_cross8Compiler29buffer_is_hlsl_counter_bufferENS_7TypedIDILNS_5TypesE2EEE, symObjAddr: 0x16390, symBinAddr: 0x4E720, symSize: 0x30 }
  - { offset: 0x29D0CE, size: 0x8, addend: 0x0, symName: __ZNK11spirv_cross8Compiler30buffer_get_hlsl_counter_bufferENS_7TypedIDILNS_5TypesE2EEERj, symObjAddr: 0x163C0, symBinAddr: 0x4E750, symSize: 0x30 }
  - { offset: 0x29D453, size: 0x8, addend: 0x0, symName: __ZN11spirv_cross8Compiler18make_constant_nullEjj, symObjAddr: 0x163F0, symBinAddr: 0x4E780, symSize: 0x550 }
  - { offset: 0x29DF43, size: 0x8, addend: 0x0, symName: __ZN11spirv_cross10ObjectPoolINS_12SPIRConstantEE8allocateIJRjEEEPS1_DpOT_, symObjAddr: 0x30570, symBinAddr: 0x63B90, symSize: 0x1F0 }
  - { offset: 0x29E452, size: 0x8, addend: 0x0, symName: __ZN11spirv_cross10ObjectPoolINS_12SPIRConstantEE8allocateIJRjPjjbEEEPS1_DpOT_, symObjAddr: 0x30E80, symBinAddr: 0x64110, symSize: 0x2B0 }
  - { offset: 0x29E9C6, size: 0x8, addend: 0x0, symName: __ZNK11spirv_cross8Compiler25get_declared_capabilitiesEv, symObjAddr: 0x16940, symBinAddr: 0x4ECD0, symSize: 0x10 }
  - { offset: 0x29E9EE, size: 0x8, addend: 0x0, symName: __ZNK11spirv_cross8Compiler23get_declared_extensionsEv, symObjAddr: 0x16950, symBinAddr: 0x4ECE0, symSize: 0x10 }
  - { offset: 0x29EA16, size: 0x8, addend: 0x0, symName: __ZNK11spirv_cross8Compiler19get_precise_outputsEv, symObjAddr: 0x16960, symBinAddr: 0x4ECF0, symSize: 0x10 }
  - { offset: 0x29EA3E, size: 0x8, addend: 0x0, symName: __ZNK11spirv_cross8Compiler32get_remapped_declared_block_nameENS_7TypedIDILNS_5TypesE2EEE, symObjAddr: 0x16970, symBinAddr: 0x4ED00, symSize: 0x20 }
  - { offset: 0x29EC8C, size: 0x8, addend: 0x0, symName: __ZNK11spirv_cross8Compiler30combined_decoration_for_memberERKNS_8SPIRTypeEj, symObjAddr: 0x1CFF0, symBinAddr: 0x55380, symSize: 0x1E0 }
  - { offset: 0x29F6C4, size: 0x8, addend: 0x0, symName: __ZN11spirv_cross8Compiler22is_desktop_only_formatEN3spv11ImageFormatE, symObjAddr: 0x1D1D0, symBinAddr: 0x55560, symSize: 0x20 }
  - { offset: 0x29F6EB, size: 0x8, addend: 0x0, symName: __ZNK11spirv_cross8Compiler14is_depth_imageERKNS_8SPIRTypeEj, symObjAddr: 0x1D1F0, symBinAddr: 0x55580, symSize: 0x150 }
  - { offset: 0x29F8F8, size: 0x8, addend: 0x0, symName: __ZN11spirv_cross8Compiler42force_recompile_guarantee_forward_progressEv, symObjAddr: 0x1D340, symBinAddr: 0x556D0, symSize: 0x10 }
  - { offset: 0x29F93F, size: 0x8, addend: 0x0, symName: __ZNK11spirv_cross8Compiler24is_forcing_recompilationEv, symObjAddr: 0x1D350, symBinAddr: 0x556E0, symSize: 0x10 }
  - { offset: 0x29F967, size: 0x8, addend: 0x0, symName: __ZN11spirv_cross8Compiler21clear_force_recompileEv, symObjAddr: 0x1D360, symBinAddr: 0x556F0, symSize: 0x10 }
  - { offset: 0x29FC0A, size: 0x8, addend: 0x0, symName: __ZN11spirv_cross8Compiler35PhysicalStorageBufferPointerHandlerC2ERS0_, symObjAddr: 0x1D370, symBinAddr: 0x55700, symSize: 0x50 }
  - { offset: 0x2A0121, size: 0x8, addend: 0x0, symName: __ZN11spirv_cross8Compiler35PhysicalStorageBufferPointerHandlerC1ERS0_, symObjAddr: 0x1D3C0, symBinAddr: 0x55750, symSize: 0x50 }
  - { offset: 0x2A076B, size: 0x8, addend: 0x0, symName: __ZNK11spirv_cross8Compiler35PhysicalStorageBufferPointerHandler15find_block_metaEj, symObjAddr: 0x1D410, symBinAddr: 0x557A0, symSize: 0x140 }
  - { offset: 0x2A096C, size: 0x8, addend: 0x0, symName: __ZN11spirv_cross8Compiler35PhysicalStorageBufferPointerHandler19mark_aligned_accessEjPKjj, symObjAddr: 0x1D550, symBinAddr: 0x558E0, symSize: 0x170 }
  - { offset: 0x2A0BB0, size: 0x8, addend: 0x0, symName: __ZNK11spirv_cross8Compiler35PhysicalStorageBufferPointerHandler23type_is_bda_block_entryEj, symObjAddr: 0x1D6C0, symBinAddr: 0x55A50, symSize: 0x40 }
  - { offset: 0x2A0C79, size: 0x8, addend: 0x0, symName: __ZNK11spirv_cross8Compiler35PhysicalStorageBufferPointerHandler28get_minimum_scalar_alignmentERKNS_8SPIRTypeE, symObjAddr: 0x1D700, symBinAddr: 0x55A90, symSize: 0xB0 }
  - { offset: 0x2A0EC6, size: 0x8, addend: 0x0, symName: __ZN11spirv_cross8Compiler35PhysicalStorageBufferPointerHandler16setup_meta_chainEjj, symObjAddr: 0x1D7B0, symBinAddr: 0x55B40, symSize: 0x180 }
  - { offset: 0x2A13E6, size: 0x8, addend: 0x0, symName: __ZNSt3__112__hash_tableINS_17__hash_value_typeIjN11spirv_cross8Compiler17PhysicalBlockMetaEEENS_22__unordered_map_hasherIjS5_NS_4hashIjEENS_8equal_toIjEELb1EEENS_21__unordered_map_equalIjS5_SA_S8_Lb1EEENS_9allocatorIS5_EEE25__emplace_unique_key_argsIjJRKNS_21piecewise_construct_tENS_5tupleIJRKjEEENSL_IJEEEEEENS_4pairINS_15__hash_iteratorIPNS_11__hash_nodeIS5_PvEEEEbEERKT_DpOT0_, symObjAddr: 0x31130, symBinAddr: 0x643C0, symSize: 0x430 }
  - { offset: 0x2A1C4C, size: 0x8, addend: 0x0, symName: __ZNSt3__112__hash_tableINS_17__hash_value_typeIjPN11spirv_cross8Compiler17PhysicalBlockMetaEEENS_22__unordered_map_hasherIjS6_NS_4hashIjEENS_8equal_toIjEELb1EEENS_21__unordered_map_equalIjS6_SB_S9_Lb1EEENS_9allocatorIS6_EEE25__emplace_unique_key_argsIjJRKNS_21piecewise_construct_tENS_5tupleIJRKjEEENSM_IJEEEEEENS_4pairINS_15__hash_iteratorIPNS_11__hash_nodeIS6_PvEEEEbEERKT_DpOT0_, symObjAddr: 0x317A0, symBinAddr: 0x647F0, symSize: 0x430 }
  - { offset: 0x2A24F8, size: 0x8, addend: 0x0, symName: __ZN11spirv_cross8Compiler35PhysicalStorageBufferPointerHandler6handleEN3spv2OpEPKjj, symObjAddr: 0x1D930, symBinAddr: 0x55CC0, symSize: 0x2E0 }
  - { offset: 0x2A27A5, size: 0x8, addend: 0x0, symName: __ZNK11spirv_cross8Compiler35PhysicalStorageBufferPointerHandler26get_base_non_block_type_idEj, symObjAddr: 0x1DC10, symBinAddr: 0x55FA0, symSize: 0x90 }
  - { offset: 0x2A29EE, size: 0x8, addend: 0x0, symName: __ZN11spirv_cross8Compiler35PhysicalStorageBufferPointerHandler34analyze_non_block_types_from_blockERKNS_8SPIRTypeE, symObjAddr: 0x1DCA0, symBinAddr: 0x56030, symSize: 0x1C0 }
  - { offset: 0x2A2F21, size: 0x8, addend: 0x0, symName: __ZN11spirv_cross8Compiler31analyze_non_block_pointer_typesEv, symObjAddr: 0x1DE60, symBinAddr: 0x561F0, symSize: 0x330 }
  - { offset: 0x2A4816, size: 0x8, addend: 0x0, symName: __ZN11spirv_cross8Compiler35PhysicalStorageBufferPointerHandlerD2Ev, symObjAddr: 0x23580, symBinAddr: 0x5A6E0, symSize: 0xB0 }
  - { offset: 0x2A517A, size: 0x8, addend: 0x0, symName: __ZN11spirv_cross8Compiler35PhysicalStorageBufferPointerHandlerD1Ev, symObjAddr: 0x1E2E0, symBinAddr: 0x56670, symSize: 0x10 }
  - { offset: 0x2A51B7, size: 0x8, addend: 0x0, symName: __ZN11spirv_cross8Compiler39InterlockedResourceAccessPrepassHandler6handleEN3spv2OpEPKjj, symObjAddr: 0x1E2F0, symBinAddr: 0x56680, symSize: 0x140 }
  - { offset: 0x2A552F, size: 0x8, addend: 0x0, symName: __ZN11spirv_cross8Compiler39InterlockedResourceAccessPrepassHandler19rearm_current_blockERKNS_9SPIRBlockE, symObjAddr: 0x1E430, symBinAddr: 0x567C0, symSize: 0x10 }
  - { offset: 0x2A5587, size: 0x8, addend: 0x0, symName: __ZN11spirv_cross8Compiler39InterlockedResourceAccessPrepassHandler20begin_function_scopeEPKjj, symObjAddr: 0x1E440, symBinAddr: 0x567D0, symSize: 0x50 }
  - { offset: 0x2A5622, size: 0x8, addend: 0x0, symName: __ZN11spirv_cross8Compiler39InterlockedResourceAccessPrepassHandler18end_function_scopeEPKjj, symObjAddr: 0x1E490, symBinAddr: 0x56820, symSize: 0x20 }
  - { offset: 0x2A56CC, size: 0x8, addend: 0x0, symName: __ZN11spirv_cross8Compiler32InterlockedResourceAccessHandler20begin_function_scopeEPKjj, symObjAddr: 0x1E4B0, symBinAddr: 0x56840, symSize: 0x60 }
  - { offset: 0x2A574F, size: 0x8, addend: 0x0, symName: __ZN11spirv_cross8Compiler32InterlockedResourceAccessHandler18end_function_scopeEPKjj, symObjAddr: 0x1E510, symBinAddr: 0x568A0, symSize: 0x30 }
  - { offset: 0x2A57F8, size: 0x8, addend: 0x0, symName: __ZN11spirv_cross8Compiler32InterlockedResourceAccessHandler25access_potential_resourceEj, symObjAddr: 0x1E540, symBinAddr: 0x568D0, symSize: 0x50 }
  - { offset: 0x2A58BF, size: 0x8, addend: 0x0, symName: __ZN11spirv_cross8Compiler32InterlockedResourceAccessHandler6handleEN3spv2OpEPKjj, symObjAddr: 0x1E590, symBinAddr: 0x56920, symSize: 0xA10 }
  - { offset: 0x2A62B6, size: 0x8, addend: 0x0, symName: __ZN11spirv_cross8Compiler34analyze_interlocked_resource_usageEv, symObjAddr: 0x1EFA0, symBinAddr: 0x57330, symSize: 0x980 }
  - { offset: 0x2A7843, size: 0x8, addend: 0x0, symName: __ZN11spirv_cross8Compiler32InterlockedResourceAccessHandlerD1Ev, symObjAddr: 0x1F920, symBinAddr: 0x57CB0, symSize: 0x30 }
  - { offset: 0x2A78F8, size: 0x8, addend: 0x0, symName: __ZN11spirv_cross8Compiler39InterlockedResourceAccessPrepassHandlerD1Ev, symObjAddr: 0x1F950, symBinAddr: 0x57CE0, symSize: 0x30 }
  - { offset: 0x2A79AD, size: 0x8, addend: 0x0, symName: __ZN11spirv_cross8Compiler24check_internal_recursionERKNS_8SPIRTypeERNSt3__113unordered_setIjNS4_4hashIjEENS4_8equal_toIjEENS4_9allocatorIjEEEE, symObjAddr: 0x1F980, symBinAddr: 0x57D10, symSize: 0x1F0 }
  - { offset: 0x2A7DE7, size: 0x8, addend: 0x0, symName: __ZN11spirv_cross8Compiler23type_contains_recursionERKNS_8SPIRTypeE, symObjAddr: 0x1FB70, symBinAddr: 0x57F00, symSize: 0x90 }
  - { offset: 0x2A82BD, size: 0x8, addend: 0x0, symName: __ZNK11spirv_cross8Compiler25type_is_array_of_pointersERKNS_8SPIRTypeE, symObjAddr: 0x1FC00, symBinAddr: 0x57F90, symSize: 0x60 }
  - { offset: 0x2A840A, size: 0x8, addend: 0x0, symName: __ZN11spirv_cross8Compiler14add_loop_levelEv, symObjAddr: 0x1FC60, symBinAddr: 0x57FF0, symSize: 0x10 }
  - { offset: 0x2A8432, size: 0x8, addend: 0x0, symName: __ZN11spirv_cross8Compiler19BufferAccessHandlerD0Ev, symObjAddr: 0x1FC70, symBinAddr: 0x58000, symSize: 0x60 }
  - { offset: 0x2A87BB, size: 0x8, addend: 0x0, symName: __ZN11spirv_cross8Compiler27CombinedImageSamplerHandlerD0Ev, symObjAddr: 0x1FD40, symBinAddr: 0x58060, symSize: 0x90 }
  - { offset: 0x2A8BB2, size: 0x8, addend: 0x0, symName: __ZN11spirv_cross8Compiler31CombinedImageSamplerDrefHandlerD0Ev, symObjAddr: 0x1FDF0, symBinAddr: 0x580F0, symSize: 0x60 }
  - { offset: 0x2A8F3B, size: 0x8, addend: 0x0, symName: __ZN11spirv_cross8Compiler32CombinedImageSamplerUsageHandlerD0Ev, symObjAddr: 0x1FE50, symBinAddr: 0x58150, symSize: 0x20 }
  - { offset: 0x2A8F9F, size: 0x8, addend: 0x0, symName: __ZN11spirv_cross8Compiler32InterlockedResourceAccessHandlerD0Ev, symObjAddr: 0x1FE70, symBinAddr: 0x58170, symSize: 0x40 }
  - { offset: 0x2A907C, size: 0x8, addend: 0x0, symName: __ZN11spirv_cross8Compiler39InterlockedResourceAccessPrepassHandlerD0Ev, symObjAddr: 0x1FEB0, symBinAddr: 0x581B0, symSize: 0x40 }
  - { offset: 0x2A9159, size: 0x8, addend: 0x0, symName: __ZN11spirv_cross8CompilerD1Ev, symObjAddr: 0x1FEF0, symBinAddr: 0x581F0, symSize: 0x10 }
  - { offset: 0x2AAD20, size: 0x8, addend: 0x0, symName: __ZN11spirv_cross8CompilerD0Ev, symObjAddr: 0x1FF00, symBinAddr: 0x58200, symSize: 0x20 }
  - { offset: 0x2AAD80, size: 0x8, addend: 0x0, symName: __ZNK11spirv_cross8Compiler24get_fallback_member_nameEj, symObjAddr: 0x1FF20, symBinAddr: 0x58220, symSize: 0x30 }
  - { offset: 0x2AADD6, size: 0x8, addend: 0x0, symName: __ZN11spirv_cross8Compiler33AnalyzeVariableScopeAccessHandlerD0Ev, symObjAddr: 0x1FF50, symBinAddr: 0x58250, symSize: 0x20 }
  - { offset: 0x2AAE3A, size: 0x8, addend: 0x0, symName: __ZN11spirv_cross8Compiler10CFGBuilderD0Ev, symObjAddr: 0x1FF80, symBinAddr: 0x58270, symSize: 0x90 }
  - { offset: 0x2AB2D7, size: 0x8, addend: 0x0, symName: __ZN11spirv_cross8Compiler35PhysicalStorageBufferPointerHandlerD0Ev, symObjAddr: 0x20010, symBinAddr: 0x58300, symSize: 0x20 }
  - { offset: 0x2AC1BD, size: 0x8, addend: 0x0, symName: __ZN11spirv_cross13CompilerErrorD0Ev, symObjAddr: 0x20920, symBinAddr: 0x58320, symSize: 0x20 }
  - { offset: 0x2AC3AB, size: 0x8, addend: 0x0, symName: __ZNKSt3__121__murmur2_or_cityhashImLm64EEclB8ne180100EPKvm, symObjAddr: 0x21270, symBinAddr: 0x58560, symSize: 0x4A0 }
  - { offset: 0x2AD57D, size: 0x8, addend: 0x0, symName: __ZNSt3__112__hash_tableINS_12basic_stringIcNS_11char_traitsIcEENS_9allocatorIcEEEENS_4hashIS6_EENS_8equal_toIS6_EENS4_IS6_EEE11__do_rehashILb1EEEvm, symObjAddr: 0x21F30, symBinAddr: 0x591E0, symSize: 0x240 }
  - { offset: 0x2ADA51, size: 0x8, addend: 0x0, symName: __ZNSt3__110unique_ptrINS_11__hash_nodeINS_12basic_stringIcNS_11char_traitsIcEENS_9allocatorIcEEEEPvEENS_22__hash_node_destructorINS5_IS9_EEEEED1B8ne180100Ev, symObjAddr: 0x21EB0, symBinAddr: 0x591A0, symSize: 0x40 }
  - { offset: 0x2AE089, size: 0x8, addend: 0x0, symName: __ZNSt3__112__hash_tableINS_12basic_stringIcNS_11char_traitsIcEENS_9allocatorIcEEEENS_4hashIS6_EENS_8equal_toIS6_EENS4_IS6_EEE19__node_insert_multiEPNS_11__hash_nodeIS6_PvEE, symObjAddr: 0x22480, symBinAddr: 0x595E0, symSize: 0x1D0 }
  - { offset: 0x2AE2EE, size: 0x8, addend: 0x0, symName: __ZNSt3__112__hash_tableINS_12basic_stringIcNS_11char_traitsIcEENS_9allocatorIcEEEENS_4hashIS6_EENS_8equal_toIS6_EENS4_IS6_EEE16__construct_nodeIJRKS6_EEENS_10unique_ptrINS_11__hash_nodeIS6_PvEENS_22__hash_node_destructorINS4_ISJ_EEEEEEDpOT_, symObjAddr: 0x22EB0, symBinAddr: 0x5A010, symSize: 0xC0 }
  - { offset: 0x2AE6F3, size: 0x8, addend: 0x0, symName: __ZNSt3__112__hash_tableINS_12basic_stringIcNS_11char_traitsIcEENS_9allocatorIcEEEENS_4hashIS6_EENS_8equal_toIS6_EENS4_IS6_EEE17__deallocate_nodeEPNS_16__hash_node_baseIPNS_11__hash_nodeIS6_PvEEEE, symObjAddr: 0x22650, symBinAddr: 0x597B0, symSize: 0x50 }
  - { offset: 0x2AE985, size: 0x8, addend: 0x0, symName: __ZNSt3__112__hash_tableINS_12basic_stringIcNS_11char_traitsIcEENS_9allocatorIcEEEENS_4hashIS6_EENS_8equal_toIS6_EENS4_IS6_EEE14__assign_multiINS_21__hash_const_iteratorIPNS_11__hash_nodeIS6_PvEEEEEEvT_SK_.cold.1, symObjAddr: 0x31F80, symBinAddr: 0x1D0350, symSize: 0x2D }
  - { offset: 0x2AEC87, size: 0x8, addend: 0x0, symName: __ZNSt3__112__hash_tableINS_12basic_stringIcNS_11char_traitsIcEENS_9allocatorIcEEEENS_4hashIS6_EENS_8equal_toIS6_EENS4_IS6_EEE27__node_insert_multi_prepareEmRS6_, symObjAddr: 0x226A0, symBinAddr: 0x59800, symSize: 0x480 }
  - { offset: 0x2AF0BD, size: 0x8, addend: 0x0, symName: __ZNSt3__112__hash_tableINS_12basic_stringIcNS_11char_traitsIcEENS_9allocatorIcEEEENS_4hashIS6_EENS_8equal_toIS6_EENS4_IS6_EEE11__do_rehashILb0EEEvm, symObjAddr: 0x22B20, symBinAddr: 0x59C80, symSize: 0x390 }
  - { offset: 0x2AFED8, size: 0x8, addend: 0x0, symName: __ZNSt3__112__hash_tableIjNS_4hashIjEENS_8equal_toIjEENS_9allocatorIjEEE6removeENS_21__hash_const_iteratorIPNS_11__hash_nodeIjPvEEEE, symObjAddr: 0x24340, symBinAddr: 0x5AD20, symSize: 0x1F0 }
  - { offset: 0x2B0441, size: 0x8, addend: 0x0, symName: __ZNSt3__112basic_stringIcNS_11char_traitsIcEENS_9allocatorIcEEE18__insert_with_sizeIPcS7_EENS_11__wrap_iterIS7_EENS8_IPKcEET_T0_m, symObjAddr: 0x24D10, symBinAddr: 0x5B510, symSize: 0xF0 }
  - { offset: 0x2B0A42, size: 0x8, addend: 0x0, symName: __ZN11spirv_cross11SmallVectorINS_12StringStreamILm4096ELm4096EE6BufferELm8EE7reserveEm, symObjAddr: 0x24BC0, symBinAddr: 0x5B3C0, symSize: 0xE0 }
  - { offset: 0x2B0CDF, size: 0x8, addend: 0x0, symName: __ZNSt3__112basic_stringIcNS_11char_traitsIcEENS_9allocatorIcEEE20__init_with_sentinelB8ne180100IPcS7_EEvT_T0_, symObjAddr: 0x252A0, symBinAddr: 0x5BAA0, symSize: 0x90 }
  - { offset: 0x2B0E1B, size: 0x8, addend: 0x0, symName: __ZNSt3__112basic_stringIcNS_11char_traitsIcEENS_9allocatorIcEEE23__insert_from_safe_copyB8ne180100IPcS7_EENS_11__wrap_iterIS7_EEmmT_T0_, symObjAddr: 0x24E00, symBinAddr: 0x5B600, symSize: 0x250 }
  - { offset: 0x2B12A0, size: 0x8, addend: 0x0, symName: __ZNSt3__112basic_stringIcNS_11char_traitsIcEENS_9allocatorIcEEE23__insert_from_safe_copyB8ne180100INS_11__wrap_iterIPKcEESA_EENS7_IPcEEmmT_T0_, symObjAddr: 0x25050, symBinAddr: 0x5B850, symSize: 0x250 }
  - { offset: 0x2B21DD, size: 0x8, addend: 0x0, symName: __ZNSt3__110unique_ptrINS_11__hash_nodeINS_17__hash_value_typeIN11spirv_cross7TypedIDILNS3_5TypesE0EEENS3_4MetaEEEPvEENS_22__hash_node_destructorINS_9allocatorISA_EEEEED1B8ne180100Ev, symObjAddr: 0x25950, symBinAddr: 0x5C150, symSize: 0x40 }
  - { offset: 0x2B3360, size: 0x8, addend: 0x0, symName: __ZNSt3__113unordered_setIjNS_4hashIjEENS_8equal_toIjEENS_9allocatorIjEEEC2ERKS7_, symObjAddr: 0x28FC0, symBinAddr: 0x5EDE0, symSize: 0x1B0 }
  - { offset: 0x2B47E0, size: 0x8, addend: 0x0, symName: __ZNSt3__114__split_bufferIPNS_13unordered_mapIjjNS_4hashIjEENS_8equal_toIjEENS_9allocatorINS_4pairIKjjEEEEEENS6_ISC_EEE9push_backEOSC_, symObjAddr: 0x29D40, symBinAddr: 0x5F920, symSize: 0x1E0 }
  - { offset: 0x2B4CD7, size: 0x8, addend: 0x0, symName: __ZNSt3__114__split_bufferIPNS_13unordered_mapIjjNS_4hashIjEENS_8equal_toIjEENS_9allocatorINS_4pairIKjjEEEEEENS6_ISC_EEE10push_frontEOSC_, symObjAddr: 0x29F20, symBinAddr: 0x5FB00, symSize: 0x1D0 }
  - { offset: 0x2B67A1, size: 0x8, addend: 0x0, symName: __ZN11spirv_cross11SmallVectorIPNS_8SPIRTypeELm0EE7reserveEm, symObjAddr: 0x2B140, symBinAddr: 0x605D0, symSize: 0x150 }
  - { offset: 0x2B685E, size: 0x8, addend: 0x0, symName: __ZN11spirv_cross11SmallVectorINSt3__110unique_ptrINS_8SPIRTypeENS_10ObjectPoolIS3_E13MallocDeleterEEELm8EE7reserveEm, symObjAddr: 0x2B290, symBinAddr: 0x60720, symSize: 0xF0 }
  - { offset: 0x2B6C81, size: 0x8, addend: 0x0, symName: __ZN11spirv_cross8SPIRTypeD1Ev, symObjAddr: 0x2B380, symBinAddr: 0x60810, symSize: 0x10 }
  - { offset: 0x2B6CB9, size: 0x8, addend: 0x0, symName: __ZN11spirv_cross8SPIRTypeD2Ev, symObjAddr: 0x2B3D0, symBinAddr: 0x60860, symSize: 0x100 }
  - { offset: 0x2B7342, size: 0x8, addend: 0x0, symName: __ZN11spirv_cross8SPIRTypeD0Ev, symObjAddr: 0x2B390, symBinAddr: 0x60820, symSize: 0x20 }
  - { offset: 0x2B73A6, size: 0x8, addend: 0x0, symName: __ZN11spirv_cross8SPIRType5cloneEPNS_14ObjectPoolBaseE, symObjAddr: 0x2B3B0, symBinAddr: 0x60840, symSize: 0x20 }
  - { offset: 0x2B73FD, size: 0x8, addend: 0x0, symName: __ZN11spirv_cross10ObjectPoolINS_8SPIRTypeEE8allocateIJRS1_EEEPS1_DpOT_, symObjAddr: 0x2B540, symBinAddr: 0x609D0, symSize: 0x120 }
  - { offset: 0x2B77B8, size: 0x8, addend: 0x0, symName: __ZNSt3__112__hash_tableINS_12basic_stringIcNS_11char_traitsIcEENS_9allocatorIcEEEENS_4hashIS6_EENS_8equal_toIS6_EENS4_IS6_EEED1Ev, symObjAddr: 0x2B4D0, symBinAddr: 0x60960, symSize: 0x70 }
  - { offset: 0x2B7BC8, size: 0x8, addend: 0x0, symName: __ZN11spirv_cross8SPIRTypeC2ERKS0_, symObjAddr: 0x2B660, symBinAddr: 0x60AF0, symSize: 0x620 }
  - { offset: 0x2B8165, size: 0x8, addend: 0x0, symName: __ZNSt3__113unordered_setINS_12basic_stringIcNS_11char_traitsIcEENS_9allocatorIcEEEENS_4hashIS6_EENS_8equal_toIS6_EENS4_IS6_EEEC2ERKSC_, symObjAddr: 0x2BC80, symBinAddr: 0x61110, symSize: 0x1B0 }
  - { offset: 0x2B8E51, size: 0x8, addend: 0x0, symName: __ZN11spirv_cross12SPIRVariableD1Ev, symObjAddr: 0x2C3B0, symBinAddr: 0x61600, symSize: 0x60 }
  - { offset: 0x2B8F97, size: 0x8, addend: 0x0, symName: __ZN11spirv_cross12SPIRVariableD0Ev, symObjAddr: 0x2C410, symBinAddr: 0x61660, symSize: 0x60 }
  - { offset: 0x2B90E8, size: 0x8, addend: 0x0, symName: __ZN11spirv_cross12SPIRVariable5cloneEPNS_14ObjectPoolBaseE, symObjAddr: 0x2C470, symBinAddr: 0x616C0, symSize: 0x20 }
  - { offset: 0x2B913F, size: 0x8, addend: 0x0, symName: __ZN11spirv_cross10ObjectPoolINS_12SPIRVariableEE8allocateIJRS1_EEEPS1_DpOT_, symObjAddr: 0x2C490, symBinAddr: 0x616E0, symSize: 0x360 }
  - { offset: 0x2B9C24, size: 0x8, addend: 0x0, symName: __ZN11spirv_cross14SPIRExpressionD1Ev, symObjAddr: 0x2CD70, symBinAddr: 0x61D80, symSize: 0x70 }
  - { offset: 0x2B9E6C, size: 0x8, addend: 0x0, symName: __ZN11spirv_cross14SPIRExpressionD0Ev, symObjAddr: 0x2CDE0, symBinAddr: 0x61DF0, symSize: 0x70 }
  - { offset: 0x2BA0E3, size: 0x8, addend: 0x0, symName: __ZN11spirv_cross14SPIRExpression5cloneEPNS_14ObjectPoolBaseE, symObjAddr: 0x2CE50, symBinAddr: 0x61E60, symSize: 0x20 }
  - { offset: 0x2BA13A, size: 0x8, addend: 0x0, symName: __ZN11spirv_cross10ObjectPoolINS_14SPIRExpressionEE8allocateIJRS1_EEEPS1_DpOT_, symObjAddr: 0x2CE70, symBinAddr: 0x61E80, symSize: 0x120 }
  - { offset: 0x2BA3E3, size: 0x8, addend: 0x0, symName: __ZN11spirv_cross14SPIRExpressionC2ERKS0_, symObjAddr: 0x2CF90, symBinAddr: 0x61FA0, symSize: 0x290 }
  - { offset: 0x2BAE33, size: 0x8, addend: 0x0, symName: __ZNSt3__110unique_ptrINS_11__hash_nodeINS_17__hash_value_typeIjNS_13unordered_setIjNS_4hashIjEENS_8equal_toIjEENS_9allocatorIjEEEEEEPvEENS_22__hash_node_destructorINS8_ISD_EEEEED1B8ne180100Ev, symObjAddr: 0x2D820, symBinAddr: 0x62830, symSize: 0x70 }
  - { offset: 0x2BCB06, size: 0x8, addend: 0x0, symName: __ZNSt3__110unique_ptrINS_11__hash_nodeINS_17__hash_value_typeIjNS0_IN11spirv_cross3CFGENS_14default_deleteIS4_EEEEEEPvEENS_22__hash_node_destructorINS_9allocatorISA_EEEEED1B8ne180100Ev, symObjAddr: 0x2FFD0, symBinAddr: 0x639B0, symSize: 0x50 }
  - { offset: 0x2BDAD1, size: 0x8, addend: 0x0, symName: __ZN11spirv_cross12SPIRConstantD1Ev, symObjAddr: 0x309A0, symBinAddr: 0x63D80, symSize: 0x60 }
  - { offset: 0x2BDCCD, size: 0x8, addend: 0x0, symName: __ZN11spirv_cross12SPIRConstantD0Ev, symObjAddr: 0x30A00, symBinAddr: 0x63DE0, symSize: 0x60 }
  - { offset: 0x2BDED6, size: 0x8, addend: 0x0, symName: __ZN11spirv_cross12SPIRConstant5cloneEPNS_14ObjectPoolBaseE, symObjAddr: 0x30A60, symBinAddr: 0x63E40, symSize: 0x20 }
  - { offset: 0x2BDF2D, size: 0x8, addend: 0x0, symName: __ZN11spirv_cross10ObjectPoolINS_12SPIRConstantEE8allocateIJRS1_EEEPS1_DpOT_, symObjAddr: 0x30A80, symBinAddr: 0x63E60, symSize: 0x2B0 }
  - { offset: 0x2C15B8, size: 0x8, addend: 0x0, symName: __ZNSt3__1L19piecewise_constructE, symObjAddr: 0x13E67, symBinAddr: 0x1EBB97, symSize: 0x0 }
  - { offset: 0x2D289A, size: 0x8, addend: 0x0, symName: __ZNSt3__1eqB8ne180100IcNS_11char_traitsIcEENS_9allocatorIcEEEEbRKNS_12basic_stringIT_T0_T1_EEPKS6_, symObjAddr: 0x4650, symBinAddr: 0x69230, symSize: 0x70 }
  - { offset: 0x2DB7F6, size: 0x8, addend: 0x0, symName: __ZN11spirv_crossL14extract_stringERKNSt3__16vectorIjNS0_9allocatorIjEEEEj, symObjAddr: 0x4450, symBinAddr: 0x69030, symSize: 0x140 }
  - { offset: 0x2DBAED, size: 0x8, addend: 0x0, symName: __ZN11spirv_crossL18to_signed_basetypeEj, symObjAddr: 0x49E0, symBinAddr: 0x69530, symSize: 0x80 }
  - { offset: 0x2DBB2C, size: 0x8, addend: 0x0, symName: __ZN11spirv_crossL20to_unsigned_basetypeEj, symObjAddr: 0x4A60, symBinAddr: 0x695B0, symSize: 0x80 }
  - { offset: 0x2DE632, size: 0x8, addend: 0x0, symName: __ZN11spirv_cross6ParserC2ENSt3__16vectorIjNS1_9allocatorIjEEEE, symObjAddr: 0x0, symBinAddr: 0x64C20, symSize: 0xC0 }
  - { offset: 0x2DE864, size: 0x8, addend: 0x0, symName: __ZN11spirv_cross6ParserC1ENSt3__16vectorIjNS1_9allocatorIjEEEE, symObjAddr: 0xC0, symBinAddr: 0x64CE0, symSize: 0xC0 }
  - { offset: 0x2DEDE6, size: 0x8, addend: 0x0, symName: __ZN11spirv_cross6ParserC2EPKjm, symObjAddr: 0x180, symBinAddr: 0x64DA0, symSize: 0x170 }
  - { offset: 0x2DF5AE, size: 0x8, addend: 0x0, symName: __ZNKSt3__16vectorIjNS_9allocatorIjEEE20__throw_length_errorB8ne180100Ev, symObjAddr: 0x8810, symBinAddr: 0x69FC0, symSize: 0x10 }
  - { offset: 0x2E05DA, size: 0x8, addend: 0x0, symName: __ZN11spirv_cross6ParserC1EPKjm, symObjAddr: 0x2F0, symBinAddr: 0x64F10, symSize: 0x10 }
  - { offset: 0x2E0669, size: 0x8, addend: 0x0, symName: __ZN11spirv_cross6Parser5parseEv, symObjAddr: 0x300, symBinAddr: 0x64F20, symSize: 0x750 }
  - { offset: 0x2E1148, size: 0x8, addend: 0x0, symName: __ZN11spirv_cross6Parser5parseERKNS_11InstructionE, symObjAddr: 0xAD0, symBinAddr: 0x656B0, symSize: 0x3890 }
  - { offset: 0x2E551C, size: 0x8, addend: 0x0, symName: __ZN11spirv_cross11SmallVectorINS_11InstructionELm8EE9push_backERKS1_, symObjAddr: 0xA90, symBinAddr: 0x65670, symSize: 0x40 }
  - { offset: 0x2E65E9, size: 0x8, addend: 0x0, symName: __ZN11spirv_cross6Parser3setINS_8SPIRTypeEJRN3spv2OpEEEERT_jDpOT0_, symObjAddr: 0x4970, symBinAddr: 0x694C0, symSize: 0x70 }
  - { offset: 0x2E6777, size: 0x8, addend: 0x0, symName: __ZN11spirv_cross7Variant3getINS_14SPIRConstantOpEEERT_v, symObjAddr: 0xF7C0, symBinAddr: 0x6C9A0, symSize: 0x80 }
  - { offset: 0x2E67C3, size: 0x8, addend: 0x0, symName: __ZN11spirv_cross7Variant3getINS_9SPIRUndefEEERT_v, symObjAddr: 0xF840, symBinAddr: 0x6CA20, symSize: 0x80 }
  - { offset: 0x2E7501, size: 0x8, addend: 0x0, symName: __ZN11spirv_cross6Parser3setINS_12SPIRConstantEJRKjybEEERT_jDpOT0_, symObjAddr: 0x5270, symBinAddr: 0x69920, symSize: 0x80 }
  - { offset: 0x2E772E, size: 0x8, addend: 0x0, symName: __ZN11spirv_cross6Parser3setINS_9SPIRBlockEJEEERT_jDpOT0_, symObjAddr: 0x5620, symBinAddr: 0x69BF0, symSize: 0x60 }
  - { offset: 0x2E78D7, size: 0x8, addend: 0x0, symName: __ZN11spirv_cross6Parser3setINS_12SPIRVariableEJRjRN3spv12StorageClassES3_EEERT_jDpOT0_, symObjAddr: 0x5180, symBinAddr: 0x69830, symSize: 0x80 }
  - { offset: 0x2E7A89, size: 0x8, addend: 0x0, symName: __ZN11spirv_cross6Parser3setINS_12SPIRVariableEJRjN3spv12StorageClassEEEERT_jDpOT0_, symObjAddr: 0x5200, symBinAddr: 0x698B0, symSize: 0x70 }
  - { offset: 0x2E7C92, size: 0x8, addend: 0x0, symName: __ZN11spirv_cross6Parser3setINS_8SPIRTypeEJN3spv2OpEEEERT_jDpOT0_, symObjAddr: 0x5680, symBinAddr: 0x69C50, symSize: 0x70 }
  - { offset: 0x2E7DE6, size: 0x8, addend: 0x0, symName: __ZN11spirv_cross6Parser3setINS_12SPIRConstantEJRjEEERT_jDpOT0_, symObjAddr: 0x56F0, symBinAddr: 0x69CC0, symSize: 0x70 }
  - { offset: 0x2E7F3A, size: 0x8, addend: 0x0, symName: __ZNSt3__112__hash_tableINS_17__hash_value_typeIN11spirv_cross7TypedIDILNS2_5TypesE4EEENS2_14SPIREntryPointEEENS_22__unordered_map_hasherIS5_S7_NS_4hashIS5_EENS_8equal_toIS5_EELb1EEENS_21__unordered_map_equalIS5_S7_SC_SA_Lb1EEENS_9allocatorIS7_EEE25__emplace_unique_key_argsIS5_JRKNS_21piecewise_construct_tENS_5tupleIJOS5_EEENSN_IJEEEEEENS_4pairINS_15__hash_iteratorIPNS_11__hash_nodeIS7_PvEEEEbEERKT_DpOT0_, symObjAddr: 0xB080, symBinAddr: 0x6B760, symSize: 0x4E0 }
  - { offset: 0x2E8A42, size: 0x8, addend: 0x0, symName: __ZN11spirv_cross6Bitset3setEj, symObjAddr: 0x4930, symBinAddr: 0x69480, symSize: 0x40 }
  - { offset: 0x2E8AE7, size: 0x8, addend: 0x0, symName: __ZN11spirv_cross6Parser3setINS_21SPIRFunctionPrototypeEJRjEEERT_jDpOT0_, symObjAddr: 0x5110, symBinAddr: 0x697C0, symSize: 0x70 }
  - { offset: 0x2E8C9C, size: 0x8, addend: 0x0, symName: __ZNSt3__112__hash_tableINS_17__hash_value_typeIN11spirv_cross7TypedIDILNS2_5TypesE0EEEjEENS_22__unordered_map_hasherIS5_S6_NS_4hashIS5_EENS_8equal_toIS5_EELb1EEENS_21__unordered_map_equalIS5_S6_SB_S9_Lb1EEENS_9allocatorIS6_EEE25__emplace_unique_key_argsIS5_JNS_4pairIKS5_jEEEEENSJ_INS_15__hash_iteratorIPNS_11__hash_nodeIS6_PvEEEEbEERKT_DpOT0_, symObjAddr: 0x9DC0, symBinAddr: 0x6A920, symSize: 0x420 }
  - { offset: 0x2E94F1, size: 0x8, addend: 0x0, symName: __ZN11spirv_cross6Parser3setINS_12SPIRFunctionEJRjS3_EEERT_jDpOT0_, symObjAddr: 0x5550, symBinAddr: 0x69B20, symSize: 0x70 }
  - { offset: 0x2E9671, size: 0x8, addend: 0x0, symName: __ZN11spirv_cross11SmallVectorINSt3__112basic_stringIcNS1_11char_traitsIcEENS1_9allocatorIcEEEELm8EE9push_backEOS7_, symObjAddr: 0x4600, symBinAddr: 0x691E0, symSize: 0x50 }
  - { offset: 0x2E96FE, size: 0x8, addend: 0x0, symName: __ZN11spirv_cross6Parser3setINS_8SPIRTypeEJRS2_EEERT_jDpOT0_, symObjAddr: 0x4AE0, symBinAddr: 0x69630, symSize: 0x70 }
  - { offset: 0x2E9952, size: 0x8, addend: 0x0, symName: __ZN11spirv_cross6Parser3setINS_10SPIRStringEJNSt3__112basic_stringIcNS3_11char_traitsIcEENS3_9allocatorIcEEEEEEERT_jDpOT0_, symObjAddr: 0x43E0, symBinAddr: 0x68FC0, symSize: 0x70 }
  - { offset: 0x2E9AAD, size: 0x8, addend: 0x0, symName: __ZN11spirv_cross6Parser3setINS_14SPIRConstantOpEJRjRN3spv2OpEPKjjEEERT_jDpOT0_, symObjAddr: 0x5760, symBinAddr: 0x69D30, symSize: 0x80 }
  - { offset: 0x2E9C8A, size: 0x8, addend: 0x0, symName: __ZN11spirv_cross6Parser3setINS_9SPIRUndefEJRjEEERT_jDpOT0_, symObjAddr: 0x4590, symBinAddr: 0x69170, symSize: 0x70 }
  - { offset: 0x2E9F6C, size: 0x8, addend: 0x0, symName: __ZNSt3__112__hash_tableINS_17__hash_value_typeIN11spirv_cross7TypedIDILNS2_5TypesE6EEES5_EENS_22__unordered_map_hasherIS5_S6_NS_4hashIS5_EENS_8equal_toIS5_EELb1EEENS_21__unordered_map_equalIS5_S6_SB_S9_Lb1EEENS_9allocatorIS6_EEE25__emplace_unique_key_argsIS5_JRKNS_21piecewise_construct_tENS_5tupleIJRKS5_EEENSM_IJEEEEEENS_4pairINS_15__hash_iteratorIPNS_11__hash_nodeIS6_PvEEEEbEERKT_DpOT0_, symObjAddr: 0x12400, symBinAddr: 0x6E950, symSize: 0x430 }
  - { offset: 0x2EA81A, size: 0x8, addend: 0x0, symName: __ZN11spirv_cross14SPIREntryPointC2ENS_7TypedIDILNS_5TypesE4EEEN3spv14ExecutionModelERKNSt3__112basic_stringIcNS6_11char_traitsIcEENS6_9allocatorIcEEEE, symObjAddr: 0x6200, symBinAddr: 0x69EC0, symSize: 0x100 }
  - { offset: 0x2EACF9, size: 0x8, addend: 0x0, symName: __ZNSt3__14pairIjN11spirv_cross14SPIREntryPointEEC2B8ne180100IRKjS2_Li0EEEOT_OT0_, symObjAddr: 0xA420, symBinAddr: 0x6AD40, symSize: 0x260 }
  - { offset: 0x2EB20F, size: 0x8, addend: 0x0, symName: __ZNSt3__112__hash_tableINS_17__hash_value_typeIN11spirv_cross7TypedIDILNS2_5TypesE4EEENS2_14SPIREntryPointEEENS_22__unordered_map_hasherIS5_S7_NS_4hashIS5_EENS_8equal_toIS5_EELb1EEENS_21__unordered_map_equalIS5_S7_SC_SA_Lb1EEENS_9allocatorIS7_EEE21__emplace_unique_implIJNS_4pairIjS6_EEEEENSK_INS_15__hash_iteratorIPNS_11__hash_nodeIS7_PvEEEEbEEDpOT_, symObjAddr: 0xA680, symBinAddr: 0x6AFA0, symSize: 0x1D0 }
  - { offset: 0x2EBD9B, size: 0x8, addend: 0x0, symName: __ZN11spirv_cross14SPIREntryPointD1Ev, symObjAddr: 0x48A0, symBinAddr: 0x693F0, symSize: 0x90 }
  - { offset: 0x2EC3E5, size: 0x8, addend: 0x0, symName: '__ZZN11spirv_cross6Parser5parseERKNS_11InstructionEENK3$_0clEj', symObjAddr: 0xC370, symBinAddr: 0x6BC40, symSize: 0x150 }
  - { offset: 0x2EC64C, size: 0x8, addend: 0x0, symName: __ZN11spirv_cross12SPIRFunction13add_parameterENS_7TypedIDILNS_5TypesE1EEENS1_ILS2_0EEEb, symObjAddr: 0x55C0, symBinAddr: 0x69B90, symSize: 0x60 }
  - { offset: 0x2EC74E, size: 0x8, addend: 0x0, symName: __ZN11spirv_cross6Parser3setINS_12SPIRConstantEJRjPKjjbEEERT_jDpOT0_, symObjAddr: 0x53F0, symBinAddr: 0x69A20, symSize: 0x80 }
  - { offset: 0x2EC92A, size: 0x8, addend: 0x0, symName: __ZN11spirv_cross6Parser3setINS_12SPIRConstantEJRKjS4_bEEERT_jDpOT0_, symObjAddr: 0x52F0, symBinAddr: 0x699A0, symSize: 0x80 }
  - { offset: 0x2ECAEA, size: 0x8, addend: 0x0, symName: __ZN11spirv_cross6Parser3setINS_12SPIRConstantEJRjRA4_PKS2_S3_bEEERT_jDpOT0_, symObjAddr: 0x54D0, symBinAddr: 0x69AA0, symSize: 0x80 }
  - { offset: 0x2ECCE2, size: 0x8, addend: 0x0, symName: __ZNK11spirv_cross6Parser30types_are_logically_equivalentERKNS_8SPIRTypeES3_, symObjAddr: 0x4FF0, symBinAddr: 0x696A0, symSize: 0x120 }
  - { offset: 0x2ECF9C, size: 0x8, addend: 0x0, symName: __ZNKSt3__112basic_stringIcNS_11char_traitsIcEENS_9allocatorIcEEE4findB8ne180100EPKcm, symObjAddr: 0x46C0, symBinAddr: 0x692A0, symSize: 0xE0 }
  - { offset: 0x2ED273, size: 0x8, addend: 0x0, symName: __ZN11spirv_cross6Parser3setINS_13SPIRExtensionEJRNS2_9ExtensionEEEERT_jDpOT0_, symObjAddr: 0x47A0, symBinAddr: 0x69380, symSize: 0x70 }
  - { offset: 0x2ED4CE, size: 0x8, addend: 0x0, symName: __ZNK11spirv_cross6Parser6streamERKNS_11InstructionE, symObjAddr: 0x4360, symBinAddr: 0x68F40, symSize: 0x80 }
  - { offset: 0x2ED5B5, size: 0x8, addend: 0x0, symName: __ZN11spirv_cross10ObjectPoolINS_10SPIRStringEE8allocateIJNSt3__112basic_stringIcNS4_11char_traitsIcEENS4_9allocatorIcEEEEEEEPS1_DpOT_, symObjAddr: 0x8AD0, symBinAddr: 0x69FD0, symSize: 0x190 }
  - { offset: 0x2EDA16, size: 0x8, addend: 0x0, symName: __ZN11spirv_cross10ObjectPoolINS_9SPIRUndefEE8allocateIJRjEEEPS1_DpOT_, symObjAddr: 0x9140, symBinAddr: 0x6A340, symSize: 0x120 }
  - { offset: 0x2EDD64, size: 0x8, addend: 0x0, symName: __ZN11spirv_cross11SmallVectorINSt3__112basic_stringIcNS1_11char_traitsIcEENS1_9allocatorIcEEEELm8EE7reserveEm, symObjAddr: 0x9750, symBinAddr: 0x6A5A0, symSize: 0x120 }
  - { offset: 0x2EE144, size: 0x8, addend: 0x0, symName: __ZN11spirv_cross10ObjectPoolINS_13SPIRExtensionEE8allocateIJRNS1_9ExtensionEEEEPS1_DpOT_, symObjAddr: 0x9900, symBinAddr: 0x6A6C0, symSize: 0x120 }
  - { offset: 0x2EEC36, size: 0x8, addend: 0x0, symName: __ZN11spirv_cross10ObjectPoolINS_8SPIRTypeEE8allocateIJRN3spv2OpEEEEPS1_DpOT_, symObjAddr: 0xC4C0, symBinAddr: 0x6BD90, symSize: 0x210 }
  - { offset: 0x2EF839, size: 0x8, addend: 0x0, symName: __ZN11spirv_cross10ObjectPoolINS_21SPIRFunctionPrototypeEE8allocateIJRjEEEPS1_DpOT_, symObjAddr: 0xDC40, symBinAddr: 0x6BFA0, symSize: 0x140 }
  - { offset: 0x2EFEF3, size: 0x8, addend: 0x0, symName: __ZN11spirv_cross10ObjectPoolINS_12SPIRVariableEE8allocateIJRjN3spv12StorageClassEEEEPS1_DpOT_, symObjAddr: 0xEC20, symBinAddr: 0x6C3B0, symSize: 0x1B0 }
  - { offset: 0x2F0384, size: 0x8, addend: 0x0, symName: __ZN11spirv_cross10ObjectPoolINS_12SPIRConstantEE8allocateIJRKjybEEEPS1_DpOT_, symObjAddr: 0xEEB0, symBinAddr: 0x6C560, symSize: 0x220 }
  - { offset: 0x2F090B, size: 0x8, addend: 0x0, symName: __ZN11spirv_cross10ObjectPoolINS_12SPIRConstantEE8allocateIJRKjS5_bEEEPS1_DpOT_, symObjAddr: 0xF0D0, symBinAddr: 0x6C780, symSize: 0x220 }
  - { offset: 0x2F15DF, size: 0x8, addend: 0x0, symName: __ZN11spirv_cross10ObjectPoolINS_12SPIRConstantEE8allocateIJRjRA4_PKS1_S4_bEEEPS1_DpOT_, symObjAddr: 0xF940, symBinAddr: 0x6CAA0, symSize: 0x140 }
  - { offset: 0x2F191B, size: 0x8, addend: 0x0, symName: __ZN11spirv_cross10ObjectPoolINS_12SPIRFunctionEE8allocateIJRjS4_EEEPS1_DpOT_, symObjAddr: 0xFCA0, symBinAddr: 0x6CE00, symSize: 0x240 }
  - { offset: 0x2F1F87, size: 0x8, addend: 0x0, symName: __ZN11spirv_cross10ObjectPoolINS_9SPIRBlockEE8allocateIJEEEPS1_DpOT_, symObjAddr: 0x10F50, symBinAddr: 0x6DC60, symSize: 0x230 }
  - { offset: 0x2F2B64, size: 0x8, addend: 0x0, symName: __ZN11spirv_cross10ObjectPoolINS_14SPIRConstantOpEE8allocateIJRjRN3spv2OpEPKjjEEEPS1_DpOT_, symObjAddr: 0x12A70, symBinAddr: 0x6ED80, symSize: 0x1C0 }
  - { offset: 0x2F2F94, size: 0x8, addend: 0x0, symName: __ZNK11spirv_cross6Parser27variable_storage_is_aliasedERKNS_12SPIRVariableE, symObjAddr: 0x57E0, symBinAddr: 0x69DB0, symSize: 0x110 }
  - { offset: 0x2F84CD, size: 0x8, addend: 0x0, symName: __ZN11spirv_cross10SPIRStringD1Ev, symObjAddr: 0x8F60, symBinAddr: 0x6A160, symSize: 0x30 }
  - { offset: 0x2F8630, size: 0x8, addend: 0x0, symName: __ZN11spirv_cross10SPIRStringD0Ev, symObjAddr: 0x8F90, symBinAddr: 0x6A190, symSize: 0x40 }
  - { offset: 0x2F87C2, size: 0x8, addend: 0x0, symName: __ZN11spirv_cross10SPIRString5cloneEPNS_14ObjectPoolBaseE, symObjAddr: 0x8FD0, symBinAddr: 0x6A1D0, symSize: 0x20 }
  - { offset: 0x2F8819, size: 0x8, addend: 0x0, symName: __ZN11spirv_cross10ObjectPoolINS_10SPIRStringEE8allocateIJRS1_EEEPS1_DpOT_, symObjAddr: 0x8FF0, symBinAddr: 0x6A1F0, symSize: 0x150 }
  - { offset: 0x2F91A8, size: 0x8, addend: 0x0, symName: __ZN11spirv_cross9SPIRUndef5cloneEPNS_14ObjectPoolBaseE, symObjAddr: 0x94C0, symBinAddr: 0x6A460, symSize: 0x20 }
  - { offset: 0x2F91FF, size: 0x8, addend: 0x0, symName: __ZN11spirv_cross10ObjectPoolINS_9SPIRUndefEE8allocateIJRS1_EEEPS1_DpOT_, symObjAddr: 0x94E0, symBinAddr: 0x6A480, symSize: 0x120 }
  - { offset: 0x2F9B64, size: 0x8, addend: 0x0, symName: __ZN11spirv_cross13SPIRExtension5cloneEPNS_14ObjectPoolBaseE, symObjAddr: 0x9C80, symBinAddr: 0x6A7E0, symSize: 0x20 }
  - { offset: 0x2F9BBB, size: 0x8, addend: 0x0, symName: __ZN11spirv_cross10ObjectPoolINS_13SPIRExtensionEE8allocateIJRS1_EEEPS1_DpOT_, symObjAddr: 0x9CA0, symBinAddr: 0x6A800, symSize: 0x120 }
  - { offset: 0x2FAE86, size: 0x8, addend: 0x0, symName: __ZNSt3__14pairIKN11spirv_cross7TypedIDILNS1_5TypesE4EEENS1_14SPIREntryPointEEC2B8ne180100IjS6_Li0EEEONS0_IT_T0_EE, symObjAddr: 0xA890, symBinAddr: 0x6B1B0, symSize: 0x270 }
  - { offset: 0x2FB3DD, size: 0x8, addend: 0x0, symName: __ZNSt3__112__hash_tableINS_17__hash_value_typeIN11spirv_cross7TypedIDILNS2_5TypesE4EEENS2_14SPIREntryPointEEENS_22__unordered_map_hasherIS5_S7_NS_4hashIS5_EENS_8equal_toIS5_EELb1EEENS_21__unordered_map_equalIS5_S7_SC_SA_Lb1EEENS_9allocatorIS7_EEE28__node_insert_unique_prepareB8ne180100EmRS7_, symObjAddr: 0xAB00, symBinAddr: 0x6B420, symSize: 0x340 }
  - { offset: 0x2FB6E4, size: 0x8, addend: 0x0, symName: __ZNSt3__110unique_ptrINS_11__hash_nodeINS_17__hash_value_typeIN11spirv_cross7TypedIDILNS3_5TypesE4EEENS3_14SPIREntryPointEEEPvEENS_22__hash_node_destructorINS_9allocatorISA_EEEEED1B8ne180100Ev, symObjAddr: 0xA850, symBinAddr: 0x6B170, symSize: 0x40 }
  - { offset: 0x2FF88A, size: 0x8, addend: 0x0, symName: __ZN11spirv_cross21SPIRFunctionPrototypeD1Ev, symObjAddr: 0xDFC0, symBinAddr: 0x6C0E0, symSize: 0x40 }
  - { offset: 0x2FF95C, size: 0x8, addend: 0x0, symName: __ZN11spirv_cross21SPIRFunctionPrototypeD0Ev, symObjAddr: 0xE000, symBinAddr: 0x6C120, symSize: 0x40 }
  - { offset: 0x2FFA39, size: 0x8, addend: 0x0, symName: __ZN11spirv_cross21SPIRFunctionPrototype5cloneEPNS_14ObjectPoolBaseE, symObjAddr: 0xE040, symBinAddr: 0x6C160, symSize: 0x20 }
  - { offset: 0x2FFA90, size: 0x8, addend: 0x0, symName: __ZN11spirv_cross10ObjectPoolINS_21SPIRFunctionPrototypeEE8allocateIJRS1_EEEPS1_DpOT_, symObjAddr: 0xE060, symBinAddr: 0x6C180, symSize: 0x230 }
  - { offset: 0x3007BA, size: 0x8, addend: 0x0, symName: __ZN11spirv_cross12SPIRConstantC2ENS_7TypedIDILNS_5TypesE1EEEPKPKS0_jb, symObjAddr: 0xFA80, symBinAddr: 0x6CBE0, symSize: 0x220 }
  - { offset: 0x30120F, size: 0x8, addend: 0x0, symName: __ZN11spirv_cross12SPIRFunctionD1Ev, symObjAddr: 0x10120, symBinAddr: 0x6D040, symSize: 0x10 }
  - { offset: 0x301247, size: 0x8, addend: 0x0, symName: __ZN11spirv_cross12SPIRFunctionD2Ev, symObjAddr: 0x10170, symBinAddr: 0x6D090, symSize: 0x200 }
  - { offset: 0x301741, size: 0x8, addend: 0x0, symName: __ZN11spirv_cross12SPIRFunctionD0Ev, symObjAddr: 0x10130, symBinAddr: 0x6D050, symSize: 0x20 }
  - { offset: 0x3017A5, size: 0x8, addend: 0x0, symName: __ZN11spirv_cross12SPIRFunction5cloneEPNS_14ObjectPoolBaseE, symObjAddr: 0x10150, symBinAddr: 0x6D070, symSize: 0x20 }
  - { offset: 0x3017FC, size: 0x8, addend: 0x0, symName: __ZN11spirv_cross10ObjectPoolINS_12SPIRFunctionEE8allocateIJRS1_EEEPS1_DpOT_, symObjAddr: 0x10370, symBinAddr: 0x6D290, symSize: 0x120 }
  - { offset: 0x301C89, size: 0x8, addend: 0x0, symName: __ZN11spirv_cross12SPIRFunctionC2ERKS0_, symObjAddr: 0x10490, symBinAddr: 0x6D3B0, symSize: 0x620 }
  - { offset: 0x3023F6, size: 0x8, addend: 0x0, symName: __ZN11spirv_cross11SmallVectorINSt3__18functionIFvvEEELm0EEaSERKS5_, symObjAddr: 0x10CC0, symBinAddr: 0x6D9D0, symSize: 0x110 }
  - { offset: 0x302653, size: 0x8, addend: 0x0, symName: __ZN11spirv_cross11SmallVectorINSt3__18functionIFvvEEELm0EE7reserveEm, symObjAddr: 0x10DD0, symBinAddr: 0x6DAE0, symSize: 0x180 }
  - { offset: 0x302F2E, size: 0x8, addend: 0x0, symName: __ZN11spirv_cross9SPIRBlockD1Ev, symObjAddr: 0x113C0, symBinAddr: 0x6DE90, symSize: 0x10 }
  - { offset: 0x302F66, size: 0x8, addend: 0x0, symName: __ZN11spirv_cross9SPIRBlockD2Ev, symObjAddr: 0x11410, symBinAddr: 0x6DEE0, symSize: 0x160 }
  - { offset: 0x3033C3, size: 0x8, addend: 0x0, symName: __ZN11spirv_cross9SPIRBlockD0Ev, symObjAddr: 0x113D0, symBinAddr: 0x6DEA0, symSize: 0x20 }
  - { offset: 0x303427, size: 0x8, addend: 0x0, symName: __ZN11spirv_cross9SPIRBlock5cloneEPNS_14ObjectPoolBaseE, symObjAddr: 0x113F0, symBinAddr: 0x6DEC0, symSize: 0x20 }
  - { offset: 0x30347E, size: 0x8, addend: 0x0, symName: __ZN11spirv_cross10ObjectPoolINS_9SPIRBlockEE8allocateIJRS1_EEEPS1_DpOT_, symObjAddr: 0x11570, symBinAddr: 0x6E040, symSize: 0x120 }
  - { offset: 0x303840, size: 0x8, addend: 0x0, symName: __ZN11spirv_cross9SPIRBlockC2ERKS0_, symObjAddr: 0x11690, symBinAddr: 0x6E160, symSize: 0x7F0 }
  - { offset: 0x3050B6, size: 0x8, addend: 0x0, symName: __ZN11spirv_cross14SPIRConstantOpD1Ev, symObjAddr: 0x12E70, symBinAddr: 0x6EF40, symSize: 0x40 }
  - { offset: 0x305188, size: 0x8, addend: 0x0, symName: __ZN11spirv_cross14SPIRConstantOpD0Ev, symObjAddr: 0x12EB0, symBinAddr: 0x6EF80, symSize: 0x40 }
  - { offset: 0x305265, size: 0x8, addend: 0x0, symName: __ZN11spirv_cross14SPIRConstantOp5cloneEPNS_14ObjectPoolBaseE, symObjAddr: 0x12EF0, symBinAddr: 0x6EFC0, symSize: 0x20 }
  - { offset: 0x3052BC, size: 0x8, addend: 0x0, symName: __ZN11spirv_cross10ObjectPoolINS_14SPIRConstantOpEE8allocateIJRS1_EEEPS1_DpOT_, symObjAddr: 0x12F10, symBinAddr: 0x6EFE0, symSize: 0x220 }
  - { offset: 0x307553, size: 0x8, addend: 0x0, symName: __ZNSt3__1L19piecewise_constructE, symObjAddr: 0x13496, symBinAddr: 0x1EBFEE, symSize: 0x0 }
  - { offset: 0x31D106, size: 0x8, addend: 0x0, symName: __ZN11spirv_crossL22is_reserved_identifierERKNSt3__112basic_stringIcNS0_11char_traitsIcEENS0_9allocatorIcEEEEbb, symObjAddr: 0x2E50, symBinAddr: 0x71930, symSize: 0x260 }
  - { offset: 0x3232C5, size: 0x8, addend: 0x0, symName: __ZN11spirv_cross8ParsedIRC2Ev, symObjAddr: 0x0, symBinAddr: 0x6F200, symSize: 0xC90 }
  - { offset: 0x3257BA, size: 0x8, addend: 0x0, symName: __ZNSt3__113unordered_mapIN11spirv_cross7TypedIDILNS1_5TypesE4EEENS1_14SPIREntryPointENS_4hashIS4_EENS_8equal_toIS4_EENS_9allocatorINS_4pairIKS4_S5_EEEEED1B8ne180100Ev, symObjAddr: 0xD30, symBinAddr: 0x6FE90, symSize: 0x70 }
  - { offset: 0x325F05, size: 0x8, addend: 0x0, symName: __ZNSt3__113unordered_mapIN11spirv_cross7TypedIDILNS1_5TypesE0EEENS1_4MetaENS_4hashIS4_EENS_8equal_toIS4_EENS_9allocatorINS_4pairIKS4_S5_EEEEED1B8ne180100Ev, symObjAddr: 0xEC0, symBinAddr: 0x6FF00, symSize: 0x70 }
  - { offset: 0x326220, size: 0x8, addend: 0x0, symName: __ZN11spirv_cross11SmallVectorINS_7VariantELm8EED1Ev, symObjAddr: 0xF30, symBinAddr: 0x6FF70, symSize: 0xA0 }
  - { offset: 0x3262E8, size: 0x8, addend: 0x0, symName: __ZNSt3__110unique_ptrIN11spirv_cross15ObjectPoolGroupENS_14default_deleteIS2_EEED1B8ne180100Ev, symObjAddr: 0xFD0, symBinAddr: 0x70010, symSize: 0x40 }
  - { offset: 0x326F08, size: 0x8, addend: 0x0, symName: __ZN11spirv_cross8ParsedIRC1Ev, symObjAddr: 0x1010, symBinAddr: 0x70050, symSize: 0x10 }
  - { offset: 0x326F40, size: 0x8, addend: 0x0, symName: __ZN11spirv_cross8ParsedIRC2EOS0_, symObjAddr: 0x1020, symBinAddr: 0x70060, symSize: 0x3A0 }
  - { offset: 0x327BB8, size: 0x8, addend: 0x0, symName: __ZN11spirv_cross8ParsedIRaSEOS0_, symObjAddr: 0x13D0, symBinAddr: 0x70400, symSize: 0x7B0 }
  - { offset: 0x3285DE, size: 0x8, addend: 0x0, symName: __ZNSt3__112__hash_tableINS_17__hash_value_typeIN11spirv_cross7TypedIDILNS2_5TypesE0EEENS2_4MetaEEENS_22__unordered_map_hasherIS5_S7_NS_4hashIS5_EENS_8equal_toIS5_EELb1EEENS_21__unordered_map_equalIS5_S7_SC_SA_Lb1EEENS_9allocatorIS7_EEE13__move_assignERSI_NS_17integral_constantIbLb1EEE, symObjAddr: 0xAF80, symBinAddr: 0x772D0, symSize: 0x180 }
  - { offset: 0x328B44, size: 0x8, addend: 0x0, symName: __ZN11spirv_cross11SmallVectorINSt3__112basic_stringIcNS1_11char_traitsIcEENS1_9allocatorIcEEEELm8EEaSEOS8_, symObjAddr: 0x1B90, symBinAddr: 0x70BC0, symSize: 0x130 }
  - { offset: 0x328ED2, size: 0x8, addend: 0x0, symName: __ZN11spirv_cross11SmallVectorIhLm8EE7reserveEm, symObjAddr: 0xB4C0, symBinAddr: 0x77450, symSize: 0xC0 }
  - { offset: 0x3291C7, size: 0x8, addend: 0x0, symName: __ZNSt3__112__hash_tableINS_17__hash_value_typeIN11spirv_cross7TypedIDILNS2_5TypesE4EEENS2_14SPIREntryPointEEENS_22__unordered_map_hasherIS5_S7_NS_4hashIS5_EENS_8equal_toIS5_EELb1EEENS_21__unordered_map_equalIS5_S7_SC_SA_Lb1EEENS_9allocatorIS7_EEE13__move_assignERSI_NS_17integral_constantIbLb1EEE, symObjAddr: 0xB6F0, symBinAddr: 0x77510, symSize: 0x180 }
  - { offset: 0x32962B, size: 0x8, addend: 0x0, symName: __ZN11spirv_cross11SmallVectorINS_7VariantELm8EEaSEOS2_, symObjAddr: 0x1CC0, symBinAddr: 0x70CF0, symSize: 0x180 }
  - { offset: 0x329C7E, size: 0x8, addend: 0x0, symName: __ZN11spirv_cross8ParsedIRC1EOS0_, symObjAddr: 0x1B80, symBinAddr: 0x70BB0, symSize: 0x10 }
  - { offset: 0x329EE5, size: 0x8, addend: 0x0, symName: __ZN11spirv_cross11SmallVectorINS_7VariantELm8EE7reserveEm, symObjAddr: 0x2BE0, symBinAddr: 0x716C0, symSize: 0x150 }
  - { offset: 0x32A073, size: 0x8, addend: 0x0, symName: __ZN11spirv_cross8ParsedIRC2ERKS0_, symObjAddr: 0x1E40, symBinAddr: 0x70E70, symSize: 0x40 }
  - { offset: 0x32A0FA, size: 0x8, addend: 0x0, symName: __ZN11spirv_cross8ParsedIRaSERKS0_, symObjAddr: 0x1E80, symBinAddr: 0x70EB0, symSize: 0x6F0 }
  - { offset: 0x32BE3F, size: 0x8, addend: 0x0, symName: __ZNSt3__16vectorIjNS_9allocatorIjEEE18__assign_with_sizeB8ne180100IPjS5_EEvT_T0_l, symObjAddr: 0xB9E0, symBinAddr: 0x77690, symSize: 0x150 }
  - { offset: 0x32C90C, size: 0x8, addend: 0x0, symName: __ZNSt3__112__hash_tableINS_17__hash_value_typeIN11spirv_cross7TypedIDILNS2_5TypesE0EEENS2_4MetaEEENS_22__unordered_map_hasherIS5_S7_NS_4hashIS5_EENS_8equal_toIS5_EELb1EEENS_21__unordered_map_equalIS5_S7_SC_SA_Lb1EEENS_9allocatorIS7_EEE14__assign_multiINS_21__hash_const_iteratorIPNS_11__hash_nodeIS7_PvEEEEEEvT_SQ_, symObjAddr: 0xBB40, symBinAddr: 0x777E0, symSize: 0x1D0 }
  - { offset: 0x32D07E, size: 0x8, addend: 0x0, symName: __ZN11spirv_cross11SmallVectorINSt3__112basic_stringIcNS1_11char_traitsIcEENS1_9allocatorIcEEEELm8EEaSERKS8_, symObjAddr: 0x2B00, symBinAddr: 0x715E0, symSize: 0xE0 }
  - { offset: 0x32D2E1, size: 0x8, addend: 0x0, symName: __ZNSt3__112__hash_tableINS_17__hash_value_typeIN11spirv_cross7TypedIDILNS2_5TypesE6EEES5_EENS_22__unordered_map_hasherIS5_S6_NS_4hashIS5_EENS_8equal_toIS5_EELb1EEENS_21__unordered_map_equalIS5_S6_SB_S9_Lb1EEENS_9allocatorIS6_EEE14__assign_multiINS_21__hash_const_iteratorIPNS_11__hash_nodeIS6_PvEEEEEEvT_SP_, symObjAddr: 0xE0A0, symBinAddr: 0x793D0, symSize: 0x1B0 }
  - { offset: 0x32DAC0, size: 0x8, addend: 0x0, symName: __ZNSt3__112__hash_tableINS_17__hash_value_typeIN11spirv_cross7TypedIDILNS2_5TypesE4EEENS2_14SPIREntryPointEEENS_22__unordered_map_hasherIS5_S7_NS_4hashIS5_EENS_8equal_toIS5_EELb1EEENS_21__unordered_map_equalIS5_S7_SC_SA_Lb1EEENS_9allocatorIS7_EEE14__assign_multiINS_21__hash_const_iteratorIPNS_11__hash_nodeIS7_PvEEEEEEvT_SQ_, symObjAddr: 0xEA20, symBinAddr: 0x79AE0, symSize: 0x1D0 }
  - { offset: 0x32E25F, size: 0x8, addend: 0x0, symName: __ZNSt3__112__hash_tableIjNS_4hashIjEENS_8equal_toIjEENS_9allocatorIjEEE14__assign_multiINS_21__hash_const_iteratorIPNS_11__hash_nodeIjPvEEEEEEvT_SF_, symObjAddr: 0xF8C0, symBinAddr: 0x7A3B0, symSize: 0x1A0 }
  - { offset: 0x32E986, size: 0x8, addend: 0x0, symName: __ZNSt3__112__hash_tableINS_17__hash_value_typeIN11spirv_cross7TypedIDILNS2_5TypesE0EEEjEENS_22__unordered_map_hasherIS5_S6_NS_4hashIS5_EENS_8equal_toIS5_EELb1EEENS_21__unordered_map_equalIS5_S6_SB_S9_Lb1EEENS_9allocatorIS6_EEE14__assign_multiINS_21__hash_const_iteratorIPNS_11__hash_nodeIS6_PvEEEEEEvT_SP_, symObjAddr: 0x10230, symBinAddr: 0x7AAB0, symSize: 0x1B0 }
  - { offset: 0x32F274, size: 0x8, addend: 0x0, symName: __ZN11spirv_cross8ParsedIRC1ERKS0_, symObjAddr: 0x2AC0, symBinAddr: 0x715A0, symSize: 0x40 }
  - { offset: 0x32F66B, size: 0x8, addend: 0x0, symName: __ZN11spirv_cross8ParsedIR13set_id_boundsEj, symObjAddr: 0x2D30, symBinAddr: 0x71810, symSize: 0x110 }
  - { offset: 0x32F7C5, size: 0x8, addend: 0x0, symName: __ZN11spirv_cross8ParsedIR31is_globally_reserved_identifierERNSt3__112basic_stringIcNS1_11char_traitsIcEENS1_9allocatorIcEEEEb, symObjAddr: 0x2E40, symBinAddr: 0x71920, symSize: 0x10 }
  - { offset: 0x32F995, size: 0x8, addend: 0x0, symName: __ZNK11spirv_cross8ParsedIR17get_spirv_versionEv, symObjAddr: 0x30B0, symBinAddr: 0x71B90, symSize: 0x10 }
  - { offset: 0x32FAC2, size: 0x8, addend: 0x0, symName: __ZN11spirv_cross8ParsedIR20sanitize_underscoresERNSt3__112basic_stringIcNS1_11char_traitsIcEENS1_9allocatorIcEEEE, symObjAddr: 0x30C0, symBinAddr: 0x71BA0, symSize: 0xB0 }
  - { offset: 0x32FE99, size: 0x8, addend: 0x0, symName: __ZNK11spirv_cross8ParsedIR8get_nameENS_7TypedIDILNS_5TypesE0EEE, symObjAddr: 0x3170, symBinAddr: 0x71C50, symSize: 0x150 }
  - { offset: 0x3300C0, size: 0x8, addend: 0x0, symName: __ZNK11spirv_cross8ParsedIR9find_metaENS_7TypedIDILNS_5TypesE0EEE, symObjAddr: 0x32C0, symBinAddr: 0x71DA0, symSize: 0x140 }
  - { offset: 0x3302B0, size: 0x8, addend: 0x0, symName: __ZNK11spirv_cross8ParsedIR15get_member_nameENS_7TypedIDILNS_5TypesE1EEEj, symObjAddr: 0x3400, symBinAddr: 0x71EE0, symSize: 0x160 }
  - { offset: 0x330915, size: 0x8, addend: 0x0, symName: __ZN11spirv_cross8ParsedIR19sanitize_identifierERNSt3__112basic_stringIcNS1_11char_traitsIcEENS1_9allocatorIcEEEEbb, symObjAddr: 0x3560, symBinAddr: 0x72040, symSize: 0x790 }
  - { offset: 0x331CDF, size: 0x8, addend: 0x0, symName: __ZN11spirv_cross8ParsedIR20fixup_reserved_namesEv, symObjAddr: 0x3CF0, symBinAddr: 0x727D0, symSize: 0x1C0 }
  - { offset: 0x332A12, size: 0x8, addend: 0x0, symName: __ZN11spirv_cross8ParsedIR8set_nameENS_7TypedIDILNS_5TypesE0EEERKNSt3__112basic_stringIcNS4_11char_traitsIcEENS4_9allocatorIcEEEE, symObjAddr: 0x3EB0, symBinAddr: 0x72990, symSize: 0x180 }
  - { offset: 0x333BC8, size: 0x8, addend: 0x0, symName: __ZN11spirv_cross8ParsedIR15set_member_nameENS_7TypedIDILNS_5TypesE1EEEjRKNSt3__112basic_stringIcNS4_11char_traitsIcEENS4_9allocatorIcEEEE, symObjAddr: 0x4030, symBinAddr: 0x72B10, symSize: 0x1A0 }
  - { offset: 0x334E32, size: 0x8, addend: 0x0, symName: __ZN11spirv_cross8ParsedIR21set_decoration_stringENS_7TypedIDILNS_5TypesE0EEEN3spv10DecorationERKNSt3__112basic_stringIcNS6_11char_traitsIcEENS6_9allocatorIcEEEE, symObjAddr: 0x4310, symBinAddr: 0x72CB0, symSize: 0xB0 }
  - { offset: 0x3353DF, size: 0x8, addend: 0x0, symName: __ZN11spirv_cross8ParsedIR14set_decorationENS_7TypedIDILNS_5TypesE0EEEN3spv10DecorationEj, symObjAddr: 0x43C0, symBinAddr: 0x72D60, symSize: 0x240 }
  - { offset: 0x335642, size: 0x8, addend: 0x0, symName: __ZN11spirv_cross8ParsedIR21set_member_decorationENS_7TypedIDILNS_5TypesE1EEEjN3spv10DecorationEj, symObjAddr: 0x4600, symBinAddr: 0x72FA0, symSize: 0x240 }
  - { offset: 0x3358F4, size: 0x8, addend: 0x0, symName: __ZN11spirv_cross8ParsedIR25mark_used_as_array_lengthENS_7TypedIDILNS_5TypesE0EEE, symObjAddr: 0x4840, symBinAddr: 0x731E0, symSize: 0xB0 }
  - { offset: 0x335C8F, size: 0x8, addend: 0x0, symName: __ZNK11spirv_cross8ParsedIR27get_buffer_block_type_flagsERKNS_8SPIRTypeE, symObjAddr: 0x48F0, symBinAddr: 0x73290, symSize: 0x380 }
  - { offset: 0x336637, size: 0x8, addend: 0x0, symName: __ZN11spirv_cross6Bitset9merge_andERKS0_, symObjAddr: 0x4DE0, symBinAddr: 0x73780, symSize: 0x210 }
  - { offset: 0x336E33, size: 0x8, addend: 0x0, symName: __ZNK11spirv_cross8ParsedIR28get_member_decoration_bitsetENS_7TypedIDILNS_5TypesE1EEEj, symObjAddr: 0x4C70, symBinAddr: 0x73610, symSize: 0x170 }
  - { offset: 0x33725F, size: 0x8, addend: 0x0, symName: __ZNK11spirv_cross8ParsedIR22get_buffer_block_flagsERKNS_12SPIRVariableE, symObjAddr: 0x4FF0, symBinAddr: 0x73990, symSize: 0x260 }
  - { offset: 0x337D12, size: 0x8, addend: 0x0, symName: __ZNK11spirv_cross8ParsedIR14has_decorationENS_7TypedIDILNS_5TypesE0EEEN3spv10DecorationE, symObjAddr: 0x5250, symBinAddr: 0x73BF0, symSize: 0x2A0 }
  - { offset: 0x338146, size: 0x8, addend: 0x0, symName: __ZNK11spirv_cross8ParsedIR21get_decoration_bitsetENS_7TypedIDILNS_5TypesE0EEE, symObjAddr: 0x54F0, symBinAddr: 0x73E90, symSize: 0x150 }
  - { offset: 0x338358, size: 0x8, addend: 0x0, symName: __ZNK11spirv_cross8ParsedIR14get_decorationENS_7TypedIDILNS_5TypesE0EEEN3spv10DecorationE, symObjAddr: 0x5640, symBinAddr: 0x73FE0, symSize: 0x3C0 }
  - { offset: 0x338741, size: 0x8, addend: 0x0, symName: __ZNK11spirv_cross8ParsedIR21get_decoration_stringENS_7TypedIDILNS_5TypesE0EEEN3spv10DecorationE, symObjAddr: 0x5A00, symBinAddr: 0x743A0, symSize: 0x280 }
  - { offset: 0x338BB4, size: 0x8, addend: 0x0, symName: __ZN11spirv_cross8ParsedIR16unset_decorationENS_7TypedIDILNS_5TypesE0EEEN3spv10DecorationE, symObjAddr: 0x5C80, symBinAddr: 0x74620, symSize: 0x2A0 }
  - { offset: 0x3390AC, size: 0x8, addend: 0x0, symName: __ZNK11spirv_cross8ParsedIR21has_member_decorationENS_7TypedIDILNS_5TypesE1EEEjN3spv10DecorationE, symObjAddr: 0x5F20, symBinAddr: 0x748C0, symSize: 0x2B0 }
  - { offset: 0x339523, size: 0x8, addend: 0x0, symName: __ZNK11spirv_cross8ParsedIR21get_member_decorationENS_7TypedIDILNS_5TypesE1EEEjN3spv10DecorationE, symObjAddr: 0x61D0, symBinAddr: 0x74B70, symSize: 0x400 }
  - { offset: 0x339905, size: 0x8, addend: 0x0, symName: __ZN11spirv_cross8ParsedIR28set_member_decoration_stringENS_7TypedIDILNS_5TypesE1EEEjN3spv10DecorationERKNSt3__112basic_stringIcNS6_11char_traitsIcEENS6_9allocatorIcEEEE, symObjAddr: 0x65D0, symBinAddr: 0x74F70, symSize: 0x100 }
  - { offset: 0x339BE2, size: 0x8, addend: 0x0, symName: __ZNK11spirv_cross8ParsedIR28get_member_decoration_stringENS_7TypedIDILNS_5TypesE1EEEjN3spv10DecorationE, symObjAddr: 0x66D0, symBinAddr: 0x75070, symSize: 0x190 }
  - { offset: 0x339E8F, size: 0x8, addend: 0x0, symName: __ZN11spirv_cross8ParsedIR23unset_member_decorationENS_7TypedIDILNS_5TypesE1EEEjN3spv10DecorationE, symObjAddr: 0x6860, symBinAddr: 0x75200, symSize: 0x230 }
  - { offset: 0x33A12A, size: 0x8, addend: 0x0, symName: __ZN11spirv_cross8ParsedIR17increase_bound_byEj, symObjAddr: 0x6A90, symBinAddr: 0x75430, symSize: 0x130 }
  - { offset: 0x33A3D4, size: 0x8, addend: 0x0, symName: __ZN11spirv_cross8ParsedIR15remove_typed_idENS_5TypesENS_7TypedIDILS1_0EEE, symObjAddr: 0x6BC0, symBinAddr: 0x75560, symSize: 0xF0 }
  - { offset: 0x33A63E, size: 0x8, addend: 0x0, symName: __ZN11spirv_cross8ParsedIR17reset_all_of_typeENS_5TypesE, symObjAddr: 0x6CB0, symBinAddr: 0x75650, symSize: 0xE0 }
  - { offset: 0x33A810, size: 0x8, addend: 0x0, symName: __ZN11spirv_cross8ParsedIR12add_typed_idENS_5TypesENS_7TypedIDILS1_0EEE, symObjAddr: 0x6D90, symBinAddr: 0x75730, symSize: 0x300 }
  - { offset: 0x33ACC9, size: 0x8, addend: 0x0, symName: __ZN11spirv_cross8ParsedIR9find_metaENS_7TypedIDILNS_5TypesE0EEE, symObjAddr: 0x70D0, symBinAddr: 0x75A30, symSize: 0x140 }
  - { offset: 0x33AF00, size: 0x8, addend: 0x0, symName: __ZNK11spirv_cross8ParsedIR21create_loop_hard_lockEv, symObjAddr: 0x7210, symBinAddr: 0x75B70, symSize: 0x20 }
  - { offset: 0x33AF76, size: 0x8, addend: 0x0, symName: __ZN11spirv_cross8ParsedIR8LoopLockC1EPj, symObjAddr: 0x7230, symBinAddr: 0x75B90, symSize: 0x10 }
  - { offset: 0x33AFC6, size: 0x8, addend: 0x0, symName: __ZNK11spirv_cross8ParsedIR21create_loop_soft_lockEv, symObjAddr: 0x7240, symBinAddr: 0x75BA0, symSize: 0x20 }
  - { offset: 0x33B03C, size: 0x8, addend: 0x0, symName: __ZN11spirv_cross8ParsedIR8LoopLockD2Ev, symObjAddr: 0x7260, symBinAddr: 0x75BC0, symSize: 0x10 }
  - { offset: 0x33B07A, size: 0x8, addend: 0x0, symName: __ZN11spirv_cross8ParsedIR8LoopLockD1Ev, symObjAddr: 0x7270, symBinAddr: 0x75BD0, symSize: 0x10 }
  - { offset: 0x33B0C5, size: 0x8, addend: 0x0, symName: __ZN11spirv_cross8ParsedIR8LoopLockC2EPj, symObjAddr: 0x7280, symBinAddr: 0x75BE0, symSize: 0x10 }
  - { offset: 0x33B114, size: 0x8, addend: 0x0, symName: __ZN11spirv_cross8ParsedIR8LoopLockC2EOS1_, symObjAddr: 0x7290, symBinAddr: 0x75BF0, symSize: 0x20 }
  - { offset: 0x33B164, size: 0x8, addend: 0x0, symName: __ZN11spirv_cross8ParsedIR8LoopLockaSEOS1_, symObjAddr: 0x72B0, symBinAddr: 0x75C10, symSize: 0x20 }
  - { offset: 0x33B1B9, size: 0x8, addend: 0x0, symName: __ZN11spirv_cross8ParsedIR8LoopLockC1EOS1_, symObjAddr: 0x72D0, symBinAddr: 0x75C30, symSize: 0x20 }
  - { offset: 0x33B5B2, size: 0x8, addend: 0x0, symName: __ZN11spirv_cross8ParsedIR18make_constant_nullEjjb, symObjAddr: 0x72F0, symBinAddr: 0x75C50, symSize: 0x580 }
  - { offset: 0x33D58E, size: 0x8, addend: 0x0, symName: __ZNSt3__112__hash_tableINS_17__hash_value_typeIN11spirv_cross7TypedIDILNS2_5TypesE0EEENS2_4MetaEEENS_22__unordered_map_hasherIS5_S7_NS_4hashIS5_EENS_8equal_toIS5_EELb1EEENS_21__unordered_map_equalIS5_S7_SC_SA_Lb1EEENS_9allocatorIS7_EEE17__deallocate_nodeEPNS_16__hash_node_baseIPNS_11__hash_nodeIS7_PvEEEE, symObjAddr: 0x8690, symBinAddr: 0x761D0, symSize: 0x40 }
  - { offset: 0x33DBA6, size: 0x8, addend: 0x0, symName: __ZNSt3__112__hash_tableINS_17__hash_value_typeIN11spirv_cross7TypedIDILNS2_5TypesE4EEENS2_14SPIREntryPointEEENS_22__unordered_map_hasherIS5_S7_NS_4hashIS5_EENS_8equal_toIS5_EELb1EEENS_21__unordered_map_equalIS5_S7_SC_SA_Lb1EEENS_9allocatorIS7_EEE17__deallocate_nodeEPNS_16__hash_node_baseIPNS_11__hash_nodeIS7_PvEEEE, symObjAddr: 0x88C0, symBinAddr: 0x76210, symSize: 0x40 }
  - { offset: 0x33DF84, size: 0x8, addend: 0x0, symName: __ZN11spirv_cross10ObjectPoolINS_8SPIRTypeEED1Ev, symObjAddr: 0x8AF0, symBinAddr: 0x76250, symSize: 0xA0 }
  - { offset: 0x33E18E, size: 0x8, addend: 0x0, symName: __ZN11spirv_cross10ObjectPoolINS_8SPIRTypeEED0Ev, symObjAddr: 0x8B90, symBinAddr: 0x762F0, symSize: 0xA0 }
  - { offset: 0x33E3E9, size: 0x8, addend: 0x0, symName: __ZN11spirv_cross10ObjectPoolINS_8SPIRTypeEE17deallocate_opaqueEPv, symObjAddr: 0x8C30, symBinAddr: 0x76390, symSize: 0x40 }
  - { offset: 0x33E672, size: 0x8, addend: 0x0, symName: __ZN11spirv_cross10ObjectPoolINS_12SPIRVariableEED1Ev, symObjAddr: 0x8DC0, symBinAddr: 0x763D0, symSize: 0xA0 }
  - { offset: 0x33E87C, size: 0x8, addend: 0x0, symName: __ZN11spirv_cross10ObjectPoolINS_12SPIRVariableEED0Ev, symObjAddr: 0x8E60, symBinAddr: 0x76470, symSize: 0xA0 }
  - { offset: 0x33EBEE, size: 0x8, addend: 0x0, symName: __ZN11spirv_cross10ObjectPoolINS_12SPIRConstantEED1Ev, symObjAddr: 0x9090, symBinAddr: 0x76510, symSize: 0xA0 }
  - { offset: 0x33EDF8, size: 0x8, addend: 0x0, symName: __ZN11spirv_cross10ObjectPoolINS_12SPIRConstantEED0Ev, symObjAddr: 0x9130, symBinAddr: 0x765B0, symSize: 0xA0 }
  - { offset: 0x33F1EB, size: 0x8, addend: 0x0, symName: __ZN11spirv_cross10ObjectPoolINS_12SPIRFunctionEED1Ev, symObjAddr: 0x9360, symBinAddr: 0x76650, symSize: 0xA0 }
  - { offset: 0x33F3F5, size: 0x8, addend: 0x0, symName: __ZN11spirv_cross10ObjectPoolINS_12SPIRFunctionEED0Ev, symObjAddr: 0x9400, symBinAddr: 0x766F0, symSize: 0xA0 }
  - { offset: 0x33F767, size: 0x8, addend: 0x0, symName: __ZN11spirv_cross10ObjectPoolINS_21SPIRFunctionPrototypeEED1Ev, symObjAddr: 0x9630, symBinAddr: 0x76790, symSize: 0xA0 }
  - { offset: 0x33F971, size: 0x8, addend: 0x0, symName: __ZN11spirv_cross10ObjectPoolINS_21SPIRFunctionPrototypeEED0Ev, symObjAddr: 0x96D0, symBinAddr: 0x76830, symSize: 0xA0 }
  - { offset: 0x33FCE3, size: 0x8, addend: 0x0, symName: __ZN11spirv_cross10ObjectPoolINS_9SPIRBlockEED1Ev, symObjAddr: 0x9900, symBinAddr: 0x768D0, symSize: 0xA0 }
  - { offset: 0x33FEED, size: 0x8, addend: 0x0, symName: __ZN11spirv_cross10ObjectPoolINS_9SPIRBlockEED0Ev, symObjAddr: 0x99A0, symBinAddr: 0x76970, symSize: 0xA0 }
  - { offset: 0x34025F, size: 0x8, addend: 0x0, symName: __ZN11spirv_cross10ObjectPoolINS_13SPIRExtensionEED1Ev, symObjAddr: 0x9BD0, symBinAddr: 0x76A10, symSize: 0xA0 }
  - { offset: 0x340469, size: 0x8, addend: 0x0, symName: __ZN11spirv_cross10ObjectPoolINS_13SPIRExtensionEED0Ev, symObjAddr: 0x9C70, symBinAddr: 0x76AB0, symSize: 0xA0 }
  - { offset: 0x3407DB, size: 0x8, addend: 0x0, symName: __ZN11spirv_cross10ObjectPoolINS_14SPIRExpressionEED1Ev, symObjAddr: 0x9EA0, symBinAddr: 0x76B50, symSize: 0xA0 }
  - { offset: 0x3409E5, size: 0x8, addend: 0x0, symName: __ZN11spirv_cross10ObjectPoolINS_14SPIRExpressionEED0Ev, symObjAddr: 0x9F40, symBinAddr: 0x76BF0, symSize: 0xA0 }
  - { offset: 0x340D57, size: 0x8, addend: 0x0, symName: __ZN11spirv_cross10ObjectPoolINS_14SPIRConstantOpEED1Ev, symObjAddr: 0xA170, symBinAddr: 0x76C90, symSize: 0xA0 }
  - { offset: 0x340F61, size: 0x8, addend: 0x0, symName: __ZN11spirv_cross10ObjectPoolINS_14SPIRConstantOpEED0Ev, symObjAddr: 0xA210, symBinAddr: 0x76D30, symSize: 0xA0 }
  - { offset: 0x3412D3, size: 0x8, addend: 0x0, symName: __ZN11spirv_cross10ObjectPoolINS_24SPIRCombinedImageSamplerEED1Ev, symObjAddr: 0xA440, symBinAddr: 0x76DD0, symSize: 0xA0 }
  - { offset: 0x3414DD, size: 0x8, addend: 0x0, symName: __ZN11spirv_cross10ObjectPoolINS_24SPIRCombinedImageSamplerEED0Ev, symObjAddr: 0xA4E0, symBinAddr: 0x76E70, symSize: 0xA0 }
  - { offset: 0x34184F, size: 0x8, addend: 0x0, symName: __ZN11spirv_cross10ObjectPoolINS_15SPIRAccessChainEED1Ev, symObjAddr: 0xA710, symBinAddr: 0x76F10, symSize: 0xA0 }
  - { offset: 0x341A59, size: 0x8, addend: 0x0, symName: __ZN11spirv_cross10ObjectPoolINS_15SPIRAccessChainEED0Ev, symObjAddr: 0xA7B0, symBinAddr: 0x76FB0, symSize: 0xA0 }
  - { offset: 0x341DCB, size: 0x8, addend: 0x0, symName: __ZN11spirv_cross10ObjectPoolINS_9SPIRUndefEED1Ev, symObjAddr: 0xA9E0, symBinAddr: 0x77050, symSize: 0xA0 }
  - { offset: 0x341FD5, size: 0x8, addend: 0x0, symName: __ZN11spirv_cross10ObjectPoolINS_9SPIRUndefEED0Ev, symObjAddr: 0xAA80, symBinAddr: 0x770F0, symSize: 0xA0 }
  - { offset: 0x342347, size: 0x8, addend: 0x0, symName: __ZN11spirv_cross10ObjectPoolINS_10SPIRStringEED1Ev, symObjAddr: 0xACB0, symBinAddr: 0x77190, symSize: 0xA0 }
  - { offset: 0x342551, size: 0x8, addend: 0x0, symName: __ZN11spirv_cross10ObjectPoolINS_10SPIRStringEED0Ev, symObjAddr: 0xAD50, symBinAddr: 0x77230, symSize: 0xA0 }
  - { offset: 0x342CEB, size: 0x8, addend: 0x0, symName: __ZNSt3__112__hash_tableINS_17__hash_value_typeIN11spirv_cross7TypedIDILNS2_5TypesE0EEENS2_4MetaEEENS_22__unordered_map_hasherIS5_S7_NS_4hashIS5_EENS_8equal_toIS5_EELb1EEENS_21__unordered_map_equalIS5_S7_SC_SA_Lb1EEENS_9allocatorIS7_EEE14__assign_multiINS_21__hash_const_iteratorIPNS_11__hash_nodeIS7_PvEEEEEEvT_SQ_, symObjAddr: 0xBB40, symBinAddr: 0x777E0, symSize: 0x1D0 }
  - { offset: 0x3430F7, size: 0x8, addend: 0x0, symName: __ZN11spirv_cross4MetaaSERKS0_, symObjAddr: 0xBEA0, symBinAddr: 0x77B40, symSize: 0x1D0 }
  - { offset: 0x3433D8, size: 0x8, addend: 0x0, symName: __ZNSt3__112__hash_tableINS_17__hash_value_typeIN11spirv_cross7TypedIDILNS2_5TypesE0EEENS2_4MetaEEENS_22__unordered_map_hasherIS5_S7_NS_4hashIS5_EENS_8equal_toIS5_EELb1EEENS_21__unordered_map_equalIS5_S7_SC_SA_Lb1EEENS_9allocatorIS7_EEE19__node_insert_multiEPNS_11__hash_nodeIS7_PvEE, symObjAddr: 0xBD10, symBinAddr: 0x779B0, symSize: 0x190 }
  - { offset: 0x343630, size: 0x8, addend: 0x0, symName: __ZNSt3__14pairIKN11spirv_cross7TypedIDILNS1_5TypesE0EEENS1_4MetaEEC2B8ne180100ERKS7_, symObjAddr: 0xD7C0, symBinAddr: 0x78D30, symSize: 0xD0 }
  - { offset: 0x3438E7, size: 0x8, addend: 0x0, symName: __ZNSt3__112__hash_tableINS_17__hash_value_typeIN11spirv_cross7TypedIDILNS2_5TypesE0EEENS2_4MetaEEENS_22__unordered_map_hasherIS5_S7_NS_4hashIS5_EENS_8equal_toIS5_EELb1EEENS_21__unordered_map_equalIS5_S7_SC_SA_Lb1EEENS_9allocatorIS7_EEE27__node_insert_multi_prepareEmRS7_, symObjAddr: 0xD140, symBinAddr: 0x78960, symSize: 0x3D0 }
  - { offset: 0x343CCD, size: 0x8, addend: 0x0, symName: __ZN11spirv_cross11SmallVectorINS_4Meta10DecorationELm0EEaSERKS3_, symObjAddr: 0xC070, symBinAddr: 0x77D10, symSize: 0xB0 }
  - { offset: 0x343DB3, size: 0x8, addend: 0x0, symName: __ZNSt3__112__hash_tableINS_17__hash_value_typeIjjEENS_22__unordered_map_hasherIjS2_NS_4hashIjEENS_8equal_toIjEELb1EEENS_21__unordered_map_equalIjS2_S7_S5_Lb1EEENS_9allocatorIS2_EEE14__assign_multiINS_21__hash_const_iteratorIPNS_11__hash_nodeIS2_PvEEEEEEvT_SL_, symObjAddr: 0xC7C0, symBinAddr: 0x77FE0, symSize: 0x1B0 }
  - { offset: 0x344594, size: 0x8, addend: 0x0, symName: __ZN11spirv_cross4Meta10DecorationC2ERKS1_, symObjAddr: 0xC510, symBinAddr: 0x77DC0, symSize: 0x220 }
  - { offset: 0x34548D, size: 0x8, addend: 0x0, symName: __ZNSt3__112__hash_tableINS_17__hash_value_typeIjjEENS_22__unordered_map_hasherIjS2_NS_4hashIjEENS_8equal_toIjEELb1EEENS_21__unordered_map_equalIjS2_S7_S5_Lb1EEENS_9allocatorIS2_EEE19__node_insert_multiEPNS_11__hash_nodeIS2_PvEE, symObjAddr: 0xC970, symBinAddr: 0x78190, symSize: 0x190 }
  - { offset: 0x34572A, size: 0x8, addend: 0x0, symName: __ZNSt3__112__hash_tableINS_17__hash_value_typeIjjEENS_22__unordered_map_hasherIjS2_NS_4hashIjEENS_8equal_toIjEELb1EEENS_21__unordered_map_equalIjS2_S7_S5_Lb1EEENS_9allocatorIS2_EEE27__node_insert_multi_prepareEmRS2_, symObjAddr: 0xCB00, symBinAddr: 0x78320, symSize: 0x3D0 }
  - { offset: 0x345ADC, size: 0x8, addend: 0x0, symName: __ZNSt3__112__hash_tableINS_17__hash_value_typeIjjEENS_22__unordered_map_hasherIjS2_NS_4hashIjEENS_8equal_toIjEELb1EEENS_21__unordered_map_equalIjS2_S7_S5_Lb1EEENS_9allocatorIS2_EEE11__do_rehashILb0EEEvm, symObjAddr: 0xCED0, symBinAddr: 0x786F0, symSize: 0x270 }
  - { offset: 0x346671, size: 0x8, addend: 0x0, symName: __ZNSt3__113unordered_mapIjjNS_4hashIjEENS_8equal_toIjEENS_9allocatorINS_4pairIKjjEEEEEC2ERKSA_, symObjAddr: 0xD890, symBinAddr: 0x78E00, symSize: 0x1B0 }
  - { offset: 0x346ACE, size: 0x8, addend: 0x0, symName: __ZNSt3__14pairIKN11spirv_cross7TypedIDILNS1_5TypesE0EEENS1_4MetaEEC2B8ne180100ERKS7_.cold.1, symObjAddr: 0x12A00, symBinAddr: 0x1D0380, symSize: 0x3A }
  - { offset: 0x347185, size: 0x8, addend: 0x0, symName: __ZNSt3__112__hash_tableINS_17__hash_value_typeIjjEENS_22__unordered_map_hasherIjS2_NS_4hashIjEENS_8equal_toIjEELb1EEENS_21__unordered_map_equalIjS2_S7_S5_Lb1EEENS_9allocatorIS2_EEE25__emplace_unique_key_argsIjJRKNS_4pairIKjjEEEEENSF_INS_15__hash_iteratorIPNS_11__hash_nodeIS2_PvEEEEbEERKT_DpOT0_, symObjAddr: 0xDC80, symBinAddr: 0x78FB0, symSize: 0x420 }
  - { offset: 0x347D79, size: 0x8, addend: 0x0, symName: __ZNSt3__112__hash_tableINS_17__hash_value_typeIN11spirv_cross7TypedIDILNS2_5TypesE6EEES5_EENS_22__unordered_map_hasherIS5_S6_NS_4hashIS5_EENS_8equal_toIS5_EELb1EEENS_21__unordered_map_equalIS5_S6_SB_S9_Lb1EEENS_9allocatorIS6_EEE19__node_insert_multiEPNS_11__hash_nodeIS6_PvEE, symObjAddr: 0xE250, symBinAddr: 0x79580, symSize: 0x190 }
  - { offset: 0x348059, size: 0x8, addend: 0x0, symName: __ZNSt3__112__hash_tableINS_17__hash_value_typeIN11spirv_cross7TypedIDILNS2_5TypesE6EEES5_EENS_22__unordered_map_hasherIS5_S6_NS_4hashIS5_EENS_8equal_toIS5_EELb1EEENS_21__unordered_map_equalIS5_S6_SB_S9_Lb1EEENS_9allocatorIS6_EEE27__node_insert_multi_prepareEmRS6_, symObjAddr: 0xE3E0, symBinAddr: 0x79710, symSize: 0x3D0 }
  - { offset: 0x348BDA, size: 0x8, addend: 0x0, symName: __ZNSt3__14pairIRN11spirv_cross7TypedIDILNS1_5TypesE4EEERNS1_14SPIREntryPointEEaSB8ne180100IKS4_S6_LPv0EEERS8_RKNS0_IT_T0_EE, symObjAddr: 0xED80, symBinAddr: 0x79E40, symSize: 0x1A0 }
  - { offset: 0x348D62, size: 0x8, addend: 0x0, symName: __ZNSt3__112__hash_tableINS_17__hash_value_typeIN11spirv_cross7TypedIDILNS2_5TypesE4EEENS2_14SPIREntryPointEEENS_22__unordered_map_hasherIS5_S7_NS_4hashIS5_EENS_8equal_toIS5_EELb1EEENS_21__unordered_map_equalIS5_S7_SC_SA_Lb1EEENS_9allocatorIS7_EEE19__node_insert_multiEPNS_11__hash_nodeIS7_PvEE, symObjAddr: 0xEBF0, symBinAddr: 0x79CB0, symSize: 0x190 }
  - { offset: 0x3492F8, size: 0x8, addend: 0x0, symName: __ZNSt3__112__hash_tableINS_17__hash_value_typeIN11spirv_cross7TypedIDILNS2_5TypesE4EEENS2_14SPIREntryPointEEENS_22__unordered_map_hasherIS5_S7_NS_4hashIS5_EENS_8equal_toIS5_EELb1EEENS_21__unordered_map_equalIS5_S7_SC_SA_Lb1EEENS_9allocatorIS7_EEE27__node_insert_multi_prepareEmRS7_, symObjAddr: 0xF070, symBinAddr: 0x79FE0, symSize: 0x3D0 }
  - { offset: 0x349C89, size: 0x8, addend: 0x0, symName: __ZNSt3__112__hash_tableIjNS_4hashIjEENS_8equal_toIjEENS_9allocatorIjEEE19__node_insert_multiEPNS_11__hash_nodeIjPvEE, symObjAddr: 0xFA60, symBinAddr: 0x7A550, symSize: 0x190 }
  - { offset: 0x349ECC, size: 0x8, addend: 0x0, symName: __ZNSt3__112__hash_tableIjNS_4hashIjEENS_8equal_toIjEENS_9allocatorIjEEE27__node_insert_multi_prepareEmRj, symObjAddr: 0xFBF0, symBinAddr: 0x7A6E0, symSize: 0x3D0 }
  - { offset: 0x34A89E, size: 0x8, addend: 0x0, symName: __ZNSt3__112__hash_tableINS_17__hash_value_typeIN11spirv_cross7TypedIDILNS2_5TypesE0EEEjEENS_22__unordered_map_hasherIS5_S6_NS_4hashIS5_EENS_8equal_toIS5_EELb1EEENS_21__unordered_map_equalIS5_S6_SB_S9_Lb1EEENS_9allocatorIS6_EEE19__node_insert_multiEPNS_11__hash_nodeIS6_PvEE, symObjAddr: 0x103E0, symBinAddr: 0x7AC60, symSize: 0x190 }
  - { offset: 0x34AB68, size: 0x8, addend: 0x0, symName: __ZNSt3__112__hash_tableINS_17__hash_value_typeIN11spirv_cross7TypedIDILNS2_5TypesE0EEEjEENS_22__unordered_map_hasherIS5_S6_NS_4hashIS5_EENS_8equal_toIS5_EELb1EEENS_21__unordered_map_equalIS5_S6_SB_S9_Lb1EEENS_9allocatorIS6_EEE27__node_insert_multi_prepareEmRS6_, symObjAddr: 0x10570, symBinAddr: 0x7ADF0, symSize: 0x3D0 }
  - { offset: 0x34E55F, size: 0x8, addend: 0x0, symName: __ZN11spirv_cross3CFGC2ERNS_8CompilerERKNS_12SPIRFunctionE, symObjAddr: 0x0, symBinAddr: 0x7B1C0, symSize: 0x160 }
  - { offset: 0x34E596, size: 0x8, addend: 0x0, symName: __ZNSt3__1L19piecewise_constructE, symObjAddr: 0x3CF0, symBinAddr: 0x1EBFEF, symSize: 0x0 }
  - { offset: 0x369471, size: 0x8, addend: 0x0, symName: __ZN11spirv_cross3CFGC2ERNS_8CompilerERKNS_12SPIRFunctionE, symObjAddr: 0x0, symBinAddr: 0x7B1C0, symSize: 0x160 }
  - { offset: 0x369CF7, size: 0x8, addend: 0x0, symName: __ZN11spirv_cross3CFG16post_order_visitEj, symObjAddr: 0xC00, symBinAddr: 0x7BCA0, symSize: 0x670 }
  - { offset: 0x36A8BD, size: 0x8, addend: 0x0, symName: __ZN11spirv_cross3CFG26build_immediate_dominatorsEv, symObjAddr: 0x280, symBinAddr: 0x7B440, symSize: 0x260 }
  - { offset: 0x36B4AD, size: 0x8, addend: 0x0, symName: __ZN11spirv_cross3CFG28build_post_order_visit_orderEv, symObjAddr: 0x160, symBinAddr: 0x7B320, symSize: 0x120 }
  - { offset: 0x36BE79, size: 0x8, addend: 0x0, symName: __ZNSt3__112__hash_tableINS_17__hash_value_typeIjN11spirv_cross11SmallVectorIjLm8EEEEENS_22__unordered_map_hasherIjS5_NS_4hashIjEENS_8equal_toIjEELb1EEENS_21__unordered_map_equalIjS5_SA_S8_Lb1EEENS_9allocatorIS5_EEE25__emplace_unique_key_argsIjJRKNS_21piecewise_construct_tENS_5tupleIJRKjEEENSL_IJEEEEEENS_4pairINS_15__hash_iteratorIPNS_11__hash_nodeIS5_PvEEEEbEERKT_DpOT0_, symObjAddr: 0x2A00, symBinAddr: 0x7D1C0, symSize: 0x460 }
  - { offset: 0x36CB8F, size: 0x8, addend: 0x0, symName: __ZNK11spirv_cross3CFG21find_common_dominatorEjj, symObjAddr: 0x610, symBinAddr: 0x7B6B0, symSize: 0x390 }
  - { offset: 0x36D6BE, size: 0x8, addend: 0x0, symName: __ZN11spirv_cross3CFGC1ERNS_8CompilerERKNS_12SPIRFunctionE, symObjAddr: 0x600, symBinAddr: 0x7B6A0, symSize: 0x10 }
  - { offset: 0x36D9D8, size: 0x8, addend: 0x0, symName: __ZNK11spirv_cross3CFG12is_back_edgeEj, symObjAddr: 0x9A0, symBinAddr: 0x7BA40, symSize: 0x130 }
  - { offset: 0x36DB9A, size: 0x8, addend: 0x0, symName: __ZNK11spirv_cross3CFG24has_visited_forward_edgeEj, symObjAddr: 0xAD0, symBinAddr: 0x7BB70, symSize: 0x130 }
  - { offset: 0x36DFDB, size: 0x8, addend: 0x0, symName: __ZNSt3__112__hash_tableINS_17__hash_value_typeIjN11spirv_cross3CFG10VisitOrderEEENS_22__unordered_map_hasherIjS5_NS_4hashIjEENS_8equal_toIjEELb1EEENS_21__unordered_map_equalIjS5_SA_S8_Lb1EEENS_9allocatorIS5_EEE25__emplace_unique_key_argsIjJRKNS_21piecewise_construct_tENS_5tupleIJRKjEEENSL_IJEEEEEENS_4pairINS_15__hash_iteratorIPNS_11__hash_nodeIS5_PvEEEEbEERKT_DpOT0_, symObjAddr: 0x3520, symBinAddr: 0x7D670, symSize: 0x430 }
  - { offset: 0x36E87A, size: 0x8, addend: 0x0, symName: __ZN11spirv_cross3CFG10add_branchEjj, symObjAddr: 0x1270, symBinAddr: 0x7C310, symSize: 0x120 }
  - { offset: 0x36EE92, size: 0x8, addend: 0x0, symName: __ZNK11spirv_cross3CFG19find_loop_dominatorEj, symObjAddr: 0x1390, symBinAddr: 0x7C430, symSize: 0x270 }
  - { offset: 0x36F2C0, size: 0x8, addend: 0x0, symName: __ZNK11spirv_cross3CFG41node_terminates_control_flow_in_sub_graphENS_7TypedIDILNS_5TypesE6EEES3_, symObjAddr: 0x1600, symBinAddr: 0x7C6A0, symSize: 0x540 }
  - { offset: 0x36FBCA, size: 0x8, addend: 0x0, symName: __ZN11spirv_cross16DominatorBuilderC1ERKNS_3CFGE, symObjAddr: 0x1B40, symBinAddr: 0x7CBE0, symSize: 0x10 }
  - { offset: 0x36FC2C, size: 0x8, addend: 0x0, symName: __ZN11spirv_cross16DominatorBuilder9add_blockEj, symObjAddr: 0x1B50, symBinAddr: 0x7CBF0, symSize: 0x160 }
  - { offset: 0x36FE3D, size: 0x8, addend: 0x0, symName: __ZN11spirv_cross16DominatorBuilderC2ERKNS_3CFGE, symObjAddr: 0x1CB0, symBinAddr: 0x7CD50, symSize: 0x10 }
  - { offset: 0x36FEEA, size: 0x8, addend: 0x0, symName: __ZN11spirv_cross16DominatorBuilder29lift_continue_block_dominatorEv, symObjAddr: 0x1CC0, symBinAddr: 0x7CD60, symSize: 0x460 }
  - { offset: 0x371950, size: 0x8, addend: 0x0, symName: __ZNSt3__110unique_ptrINS_11__hash_nodeINS_17__hash_value_typeIjN11spirv_cross11SmallVectorIjLm8EEEEEPvEENS_22__hash_node_destructorINS_9allocatorIS8_EEEEED1B8ne180100Ev, symObjAddr: 0x2E60, symBinAddr: 0x7D620, symSize: 0x50 }
  - { offset: 0x38A969, size: 0x8, addend: 0x0, symName: __ZN11spirv_cross5mergeERKNS_11SmallVectorINSt3__112basic_stringIcNS1_11char_traitsIcEENS1_9allocatorIcEEEELm8EEEPKc, symObjAddr: 0x111B0, symBinAddr: 0x8DDC0, symSize: 0x200 }
  - { offset: 0x38B01E, size: 0x8, addend: 0x0, symName: __ZN11spirv_cross4joinIJRA12_KcEEENSt3__112basic_stringIcNS4_11char_traitsIcEENS4_9allocatorIcEEEEDpOT_, symObjAddr: 0x8E0E0, symBinAddr: 0xF7850, symSize: 0x180 }
  - { offset: 0x38BB8B, size: 0x8, addend: 0x0, symName: __ZN11spirv_cross4joinIJRA16_KcRNSt3__112basic_stringIcNS4_11char_traitsIcEENS4_9allocatorIcEEEEEEESA_DpOT_, symObjAddr: 0x9480, symBinAddr: 0x86A70, symSize: 0x1A0 }
  - { offset: 0x38E679, size: 0x8, addend: 0x0, symName: __ZN11spirv_cross5inner11join_helperIRA2_KcJRA32_cRA5_S2_RPS2_S8_EEEvRNS_12StringStreamILm4096ELm4096EEEOT_DpOT0_, symObjAddr: 0xA5480, symBinAddr: 0xFCF70, symSize: 0xB0 }
  - { offset: 0x38ECC8, size: 0x8, addend: 0x0, symName: __ZN11spirv_cross5inner11join_helperINSt3__112basic_stringIcNS2_11char_traitsIcEENS2_9allocatorIcEEEEJRA2_KcRPS9_S8_SB_EEEvRNS_12StringStreamILm4096ELm4096EEEOT_DpOT0_, symObjAddr: 0xA5D40, symBinAddr: 0xFD210, symSize: 0xC0 }
  - { offset: 0x38F087, size: 0x8, addend: 0x0, symName: __ZN11spirv_cross5inner11join_helperINSt3__112basic_stringIcNS2_11char_traitsIcEENS2_9allocatorIcEEEEJRA2_KcRPS9_SB_S8_EEEvRNS_12StringStreamILm4096ELm4096EEEOT_DpOT0_, symObjAddr: 0xA61B0, symBinAddr: 0xFD2D0, symSize: 0xC0 }
  - { offset: 0x390B11, size: 0x8, addend: 0x0, symName: __ZN11spirv_cross5inner11join_helperIRPKcJRA2_S2_NSt3__112basic_stringIcNS7_11char_traitsIcEENS7_9allocatorIcEEEERA3_S2_SD_SF_SD_SF_SD_S6_EEEvRNS_12StringStreamILm4096ELm4096EEEOT_DpOT0_, symObjAddr: 0xA66F0, symBinAddr: 0xFD390, symSize: 0x110 }
  - { offset: 0x393489, size: 0x8, addend: 0x0, symName: __ZN11spirv_cross5inner11join_helperIRA4_KcJNSt3__112basic_stringIcNS5_11char_traitsIcEENS5_9allocatorIcEEEES4_RPS2_RA3_S2_EEEvRNS_12StringStreamILm4096ELm4096EEEOT_DpOT0_, symObjAddr: 0xA83D0, symBinAddr: 0xFDC90, symSize: 0xC0 }
  - { offset: 0x393806, size: 0x8, addend: 0x0, symName: __ZN11spirv_cross5inner11join_helperIRA6_KcJRPS2_RA4_S2_NSt3__112basic_stringIcNS9_11char_traitsIcEENS9_9allocatorIcEEEES4_S6_S8_SF_RA9_S2_S5_EEEvRNS_12StringStreamILm4096ELm4096EEEOT_DpOT0_, symObjAddr: 0xA8490, symBinAddr: 0xFDD50, symSize: 0x100 }
  - { offset: 0x3947C2, size: 0x8, addend: 0x0, symName: __ZN11spirv_cross5inner11join_helperIRA7_KcJNSt3__112basic_stringIcNS5_11char_traitsIcEENS5_9allocatorIcEEEERA4_S2_SB_RA2_S2_EEEvRNS_12StringStreamILm4096ELm4096EEEOT_DpOT0_, symObjAddr: 0x969D0, symBinAddr: 0xF9C10, symSize: 0xC0 }
  - { offset: 0x396ACF, size: 0x8, addend: 0x0, symName: __ZN11spirv_cross5inner11join_helperIRA3_KcJNSt3__112basic_stringIcNS5_11char_traitsIcEENS5_9allocatorIcEEEERPS2_SB_RA2_S2_EEEvRNS_12StringStreamILm4096ELm4096EEEOT_DpOT0_, symObjAddr: 0xAD660, symBinAddr: 0xFF9F0, symSize: 0xC0 }
  - { offset: 0x3970D0, size: 0x8, addend: 0x0, symName: __ZN11spirv_cross5inner11join_helperINSt3__112basic_stringIcNS2_11char_traitsIcEENS2_9allocatorIcEEEEJRA3_KcRA6_S9_S8_SB_EEEvRNS_12StringStreamILm4096ELm4096EEEOT_DpOT0_, symObjAddr: 0xAF520, symBinAddr: 0x100CF0, symSize: 0xB0 }
  - { offset: 0x397C0E, size: 0x8, addend: 0x0, symName: __ZN11spirv_cross5inner11join_helperIRA13_KcJPS2_RA2_S2_RNSt3__112basic_stringIcNS8_11char_traitsIcEENS8_9allocatorIcEEEES7_EEEvRNS_12StringStreamILm4096ELm4096EEEOT_DpOT0_, symObjAddr: 0xAF760, symBinAddr: 0x100DA0, symSize: 0xC0 }
  - { offset: 0x39813C, size: 0x8, addend: 0x0, symName: __ZN11spirv_cross5inner11join_helperIPKcJRNSt3__112basic_stringIcNS4_11char_traitsIcEENS4_9allocatorIcEEEESA_RA2_S2_SB_EEEvRNS_12StringStreamILm4096ELm4096EEEOT_DpOT0_, symObjAddr: 0xB0350, symBinAddr: 0x101590, symSize: 0xD0 }
  - { offset: 0x398D09, size: 0x8, addend: 0x0, symName: __ZN11spirv_cross5inner11join_helperIRPKcJRA2_S2_NSt3__112basic_stringIcNS7_11char_traitsIcEENS7_9allocatorIcEEEES6_SD_EEEvRNS_12StringStreamILm4096ELm4096EEEOT_DpOT0_, symObjAddr: 0xB87F0, symBinAddr: 0x1042E0, symSize: 0xC0 }
  - { offset: 0x39946E, size: 0x8, addend: 0x0, symName: __ZN11spirv_cross5inner11join_helperIPKcJNSt3__112basic_stringIcNS4_11char_traitsIcEENS4_9allocatorIcEEEERA5_S2_RKyRS3_S3_EEEvRNS_12StringStreamILm4096ELm4096EEEOT_DpOT0_, symObjAddr: 0x8B810, symBinAddr: 0xF6D30, symSize: 0xD0 }
  - { offset: 0x39A1B0, size: 0x8, addend: 0x0, symName: __ZN11spirv_cross5inner11join_helperIRA10_KcJRPS2_RA2_S2_S5_S6_EEEvRNS_12StringStreamILm4096ELm4096EEEOT_DpOT0_, symObjAddr: 0x92060, symBinAddr: 0xF7E30, symSize: 0xB0 }
  - { offset: 0x39AA49, size: 0x8, addend: 0x0, symName: __ZN11spirv_cross5inner11join_helperINSt3__112basic_stringIcNS2_11char_traitsIcEENS2_9allocatorIcEEEEJRA2_KcRS8_RA9_S9_SC_EEEvRNS_12StringStreamILm4096ELm4096EEEOT_DpOT0_, symObjAddr: 0x945A0, symBinAddr: 0xF8360, symSize: 0xC0 }
  - { offset: 0x39AF54, size: 0x8, addend: 0x0, symName: __ZN11spirv_cross5inner11join_helperIRA8_KcJRNSt3__112basic_stringIcNS5_11char_traitsIcEENS5_9allocatorIcEEEERA44_S2_RjRA10_S2_SC_EEEvRNS_12StringStreamILm4096ELm4096EEEOT_DpOT0_, symObjAddr: 0x948E0, symBinAddr: 0xF86A0, symSize: 0xE0 }
  - { offset: 0x39B84D, size: 0x8, addend: 0x0, symName: __ZN11spirv_cross5inner11join_helperIPKcJS3_S3_S3_RNSt3__112basic_stringIcNS4_11char_traitsIcEENS4_9allocatorIcEEEEEEEvRNS_12StringStreamILm4096ELm4096EEEOT_DpOT0_, symObjAddr: 0x95810, symBinAddr: 0xF8DF0, symSize: 0xC0 }
  - { offset: 0x39BDCE, size: 0x8, addend: 0x0, symName: __ZN11spirv_cross5inner11join_helperINSt3__112basic_stringIcNS2_11char_traitsIcEENS2_9allocatorIcEEEEJRA2_KcRS8_SB_RmRA3_S9_EEEvRNS_12StringStreamILm4096ELm4096EEEOT_DpOT0_, symObjAddr: 0x95BC0, symBinAddr: 0xF91A0, symSize: 0xD0 }
  - { offset: 0x39D316, size: 0x8, addend: 0x0, symName: __ZN11spirv_cross5inner11join_helperIRA7_KcJNSt3__112basic_stringIcNS5_11char_traitsIcEENS5_9allocatorIcEEEERA2_S2_RSB_SB_RA4_S2_SB_SD_SB_RA3_S2_EEEvRNS_12StringStreamILm4096ELm4096EEEOT_DpOT0_, symObjAddr: 0x99880, symBinAddr: 0xFA300, symSize: 0x110 }
  - { offset: 0x39DE29, size: 0x8, addend: 0x0, symName: __ZN11spirv_cross5inner11join_helperIRNSt3__112basic_stringIcNS2_11char_traitsIcEENS2_9allocatorIcEEEEJRA4_KcRKS8_RA2_SA_RKjRA3_SA_EEEvRNS_12StringStreamILm4096ELm4096EEEOT_DpOT0_, symObjAddr: 0x9B7C0, symBinAddr: 0xFB240, symSize: 0xD0 }
  - { offset: 0x39E8C3, size: 0x8, addend: 0x0, symName: __ZN11spirv_cross5inner11join_helperIRNSt3__112basic_stringIcNS2_11char_traitsIcEENS2_9allocatorIcEEEEJS8_RA4_KcS8_RA2_SA_EEEvRNS_12StringStreamILm4096ELm4096EEEOT_DpOT0_, symObjAddr: 0x9BE00, symBinAddr: 0xFB500, symSize: 0xC0 }
  - { offset: 0x39EDD0, size: 0x8, addend: 0x0, symName: __ZN11spirv_cross5inner11join_helperINSt3__112basic_stringIcNS2_11char_traitsIcEENS2_9allocatorIcEEEEJRA2_KcRjRA5_S9_S8_SB_EEEvRNS_12StringStreamILm4096ELm4096EEEOT_DpOT0_, symObjAddr: 0x9CB60, symBinAddr: 0xFC080, symSize: 0xD0 }
  - { offset: 0x3A1157, size: 0x8, addend: 0x0, symName: __ZN11spirv_cross5inner11join_helperIRA18_KcJRPS2_RA2_S2_S6_RA8_S2_EEEvRNS_12StringStreamILm4096ELm4096EEEOT_DpOT0_, symObjAddr: 0xA0F30, symBinAddr: 0xFCA60, symSize: 0xB0 }
  - { offset: 0x3A36D5, size: 0x8, addend: 0x0, symName: __ZN11spirv_cross5inner11join_helperIRA2_KcJNSt3__112basic_stringIcNS5_11char_traitsIcEENS5_9allocatorIcEEEERA4_S2_RA6_S2_SB_RA3_S2_SB_S4_SB_SH_EEEvRNS_12StringStreamILm4096ELm4096EEEOT_DpOT0_, symObjAddr: 0xA74D0, symBinAddr: 0xFD8F0, symSize: 0x110 }
  - { offset: 0x3A40DC, size: 0x8, addend: 0x0, symName: __ZN11spirv_cross5inner11join_helperINSt3__112basic_stringIcNS2_11char_traitsIcEENS2_9allocatorIcEEEEJRA2_KcS8_RA4_S9_S8_SB_S8_SB_S8_SD_EEEvRNS_12StringStreamILm4096ELm4096EEEOT_DpOT0_, symObjAddr: 0xA7930, symBinAddr: 0xFDB80, symSize: 0x110 }
  - { offset: 0x3A595E, size: 0x8, addend: 0x0, symName: __ZN11spirv_cross5inner11join_helperIRPKcJRA4_S2_NSt3__112basic_stringIcNS7_11char_traitsIcEENS7_9allocatorIcEEEERA9_S2_S3_EEEvRNS_12StringStreamILm4096ELm4096EEEOT_DpOT0_, symObjAddr: 0xA8590, symBinAddr: 0xFDE50, symSize: 0xC0 }
  - { offset: 0x3A6063, size: 0x8, addend: 0x0, symName: __ZN11spirv_cross5inner11join_helperIRKNSt3__112basic_stringIcNS2_11char_traitsIcEENS2_9allocatorIcEEEEJRA2_KcRcRA3_SB_RS8_SD_EEEvRNS_12StringStreamILm4096ELm4096EEEOT_DpOT0_, symObjAddr: 0xA9770, symBinAddr: 0xFE790, symSize: 0xD0 }
  - { offset: 0x3A656E, size: 0x8, addend: 0x0, symName: __ZN11spirv_cross5inner11join_helperINSt3__112basic_stringIcNS2_11char_traitsIcEENS2_9allocatorIcEEEEJRA2_KcS8_S8_SB_EEEvRNS_12StringStreamILm4096ELm4096EEEOT_DpOT0_, symObjAddr: 0xA9D80, symBinAddr: 0xFE9C0, symSize: 0xC0 }
  - { offset: 0x3A972B, size: 0x8, addend: 0x0, symName: __ZN11spirv_cross5inner11join_helperINSt3__112basic_stringIcNS2_11char_traitsIcEENS2_9allocatorIcEEEEJRA3_KcS8_SB_S8_SB_S8_SB_S8_SB_S8_SB_S8_SB_S8_SB_S8_SB_S8_SB_EEEvRNS_12StringStreamILm4096ELm4096EEEOT_DpOT0_, symObjAddr: 0xAD9B0, symBinAddr: 0xFFD40, symSize: 0x110 }
  - { offset: 0x3AA174, size: 0x8, addend: 0x0, symName: __ZN11spirv_cross5inner11join_helperIRA3_KcJNSt3__112basic_stringIcNS5_11char_traitsIcEENS5_9allocatorIcEEEES4_SB_S4_SB_S4_SB_S4_SB_S4_SB_S4_SB_S4_EEEvRNS_12StringStreamILm4096ELm4096EEEOT_DpOT0_, symObjAddr: 0xADAC0, symBinAddr: 0xFFE50, symSize: 0x100 }
  - { offset: 0x3AB279, size: 0x8, addend: 0x0, symName: __ZN11spirv_cross5inner11join_helperIRA3_KcJNSt3__112basic_stringIcNS5_11char_traitsIcEENS5_9allocatorIcEEEES4_SB_S4_SB_S4_SB_S4_SB_S4_SB_S4_SB_S4_SB_S4_SB_S4_jS4_EEEvRNS_12StringStreamILm4096ELm4096EEEOT_DpOT0_, symObjAddr: 0xAE1D0, symBinAddr: 0x100320, symSize: 0x120 }
  - { offset: 0x3ABD1F, size: 0x8, addend: 0x0, symName: __ZN11spirv_cross5inner11join_helperINSt3__112basic_stringIcNS2_11char_traitsIcEENS2_9allocatorIcEEEEJRA3_KcS8_SB_S8_SB_S8_SB_S8_SB_S8_SB_S8_SB_jSB_EEEvRNS_12StringStreamILm4096ELm4096EEEOT_DpOT0_, symObjAddr: 0xAE2F0, symBinAddr: 0x100440, symSize: 0x100 }
  - { offset: 0x3AC604, size: 0x8, addend: 0x0, symName: __ZN11spirv_cross5inner11join_helperIRA3_KcJNSt3__112basic_stringIcNS5_11char_traitsIcEENS5_9allocatorIcEEEES4_SB_S4_SB_S4_SB_S4_jS4_EEEvRNS_12StringStreamILm4096ELm4096EEEOT_DpOT0_, symObjAddr: 0xAE3F0, symBinAddr: 0x100540, symSize: 0xF0 }
  - { offset: 0x3ADA9D, size: 0x8, addend: 0x0, symName: __ZN11spirv_cross5inner11join_helperINSt3__112basic_stringIcNS2_11char_traitsIcEENS2_9allocatorIcEEEEJRA5_KcRjRA2_S9_SC_RA3_S9_EEEvRNS_12StringStreamILm4096ELm4096EEEOT_DpOT0_, symObjAddr: 0xAFAF0, symBinAddr: 0x101130, symSize: 0xB0 }
  - { offset: 0x3AE3FC, size: 0x8, addend: 0x0, symName: __ZN11spirv_cross5inner11join_helperIRNSt3__112basic_stringIcNS2_11char_traitsIcEENS2_9allocatorIcEEEEJRKS8_S8_S8_RA2_KcEEEvRNS_12StringStreamILm4096ELm4096EEEOT_DpOT0_, symObjAddr: 0xB0200, symBinAddr: 0x1014C0, symSize: 0xD0 }
  - { offset: 0x3AEA40, size: 0x8, addend: 0x0, symName: __ZN11spirv_cross5inner11join_helperIRA2_KcJRNS_7TypedIDILNS_5TypesE2EEERA6_S2_RA4_S2_NSt3__112basic_stringIcNSD_11char_traitsIcEENSD_9allocatorIcEEEES4_EEEvRNS_12StringStreamILm4096ELm4096EEEOT_DpOT0_, symObjAddr: 0xB36E0, symBinAddr: 0x1021E0, symSize: 0xD0 }
  - { offset: 0x3AF429, size: 0x8, addend: 0x0, symName: __ZN11spirv_cross5inner11join_helperIRA18_KcJRjRA15_S2_S5_S7_S5_RA4_S2_EEEvRNS_12StringStreamILm4096ELm4096EEEOT_DpOT0_, symObjAddr: 0xB7220, symBinAddr: 0x104020, symSize: 0xD0 }
  - { offset: 0x3B0210, size: 0x8, addend: 0x0, symName: __ZN11spirv_cross5inner11join_helperINSt3__112basic_stringIcNS2_11char_traitsIcEENS2_9allocatorIcEEEEJPKcRA4_S9_S8_RA2_S9_EEEvRNS_12StringStreamILm4096ELm4096EEEOT_DpOT0_, symObjAddr: 0xB9B80, symBinAddr: 0x1055F0, symSize: 0xC0 }
  - { offset: 0x3B0DD4, size: 0x8, addend: 0x0, symName: __ZN11spirv_cross4joinIJRA10_KcRjPS1_EEENSt3__112basic_stringIcNS6_11char_traitsIcEENS6_9allocatorIcEEEEDpOT_, symObjAddr: 0x8E860, symBinAddr: 0xF79D0, symSize: 0x1B0 }
  - { offset: 0x3B4CE0, size: 0x8, addend: 0x0, symName: __ZN11spirv_cross4joinIJPKcRA10_S1_RS2_RA2_S1_S2_S5_EEENSt3__112basic_stringIcNS8_11char_traitsIcEENS8_9allocatorIcEEEEDpOT_, symObjAddr: 0x91DB0, symBinAddr: 0xF7B80, symSize: 0x1B0 }
  - { offset: 0x3B5315, size: 0x8, addend: 0x0, symName: __ZN11spirv_cross4joinIJRA12_KcRPS1_RA11_S1_EEENSt3__112basic_stringIcNS8_11char_traitsIcEENS8_9allocatorIcEEEEDpOT_, symObjAddr: 0x922D0, symBinAddr: 0xF7EE0, symSize: 0x1B0 }
  - { offset: 0x3B8905, size: 0x8, addend: 0x0, symName: __ZN11spirv_cross4joinIJRA8_KcNSt3__112basic_stringIcNS4_11char_traitsIcEENS4_9allocatorIcEEEERA2_S1_RSA_RA9_S1_SD_EEESA_DpOT_, symObjAddr: 0x942D0, symBinAddr: 0xF8090, symSize: 0x1B0 }
  - { offset: 0x3B8C8A, size: 0x8, addend: 0x0, symName: __ZN11spirv_cross4joinIJRA8_KcRNSt3__112basic_stringIcNS4_11char_traitsIcEENS4_9allocatorIcEEEERA44_S1_RjRA10_S1_SB_EEESA_DpOT_, symObjAddr: 0x94660, symBinAddr: 0xF8420, symSize: 0x170 }
  - { offset: 0x3B987F, size: 0x8, addend: 0x0, symName: __ZN11spirv_cross4joinIJNSt3__112basic_stringIcNS1_11char_traitsIcEENS1_9allocatorIcEEEEPKcS9_S9_S9_S9_RS7_EEES7_DpOT_, symObjAddr: 0x95640, symBinAddr: 0xF8C20, symSize: 0x1D0 }
  - { offset: 0x3B9D18, size: 0x8, addend: 0x0, symName: __ZN11spirv_cross4joinIJRA9_KcNSt3__112basic_stringIcNS4_11char_traitsIcEENS4_9allocatorIcEEEESA_RA2_S1_RSA_SC_RmRA3_S1_EEESA_DpOT_, symObjAddr: 0x959E0, symBinAddr: 0xF8FC0, symSize: 0x1E0 }
  - { offset: 0x3BA3E2, size: 0x8, addend: 0x0, symName: __ZN11spirv_cross4joinIJNSt3__112basic_stringIcNS1_11char_traitsIcEENS1_9allocatorIcEEEES7_EEES7_DpOT_, symObjAddr: 0x1C800, symBinAddr: 0x97E50, symSize: 0x1B0 }
  - { offset: 0x3BA7EE, size: 0x8, addend: 0x0, symName: __ZN11spirv_cross4joinIJNSt3__112basic_stringIcNS1_11char_traitsIcEENS1_9allocatorIcEEEERPKcSA_RS7_EEES7_DpOT_, symObjAddr: 0x96490, symBinAddr: 0xF9830, symSize: 0x1F0 }
  - { offset: 0x3BAD52, size: 0x8, addend: 0x0, symName: __ZN11spirv_cross4joinIJNSt3__112basic_stringIcNS1_11char_traitsIcEENS1_9allocatorIcEEEES7_S7_RA2_KcEEES7_DpOT_, symObjAddr: 0x96680, symBinAddr: 0xF9A20, symSize: 0x1F0 }
  - { offset: 0x3BB76F, size: 0x8, addend: 0x0, symName: __ZN11spirv_cross4joinIJRA22_KcjRA9_S1_NSt3__112basic_stringIcNS6_11char_traitsIcEENS6_9allocatorIcEEEERA4_S1_SC_RA2_S1_EEESC_DpOT_, symObjAddr: 0x96A90, symBinAddr: 0xF9CD0, symSize: 0x1C0 }
  - { offset: 0x3BCCC5, size: 0x8, addend: 0x0, symName: __ZN11spirv_cross4joinIJRA13_KcRjRA2_S1_EEENSt3__112basic_stringIcNS7_11char_traitsIcEENS7_9allocatorIcEEEEDpOT_, symObjAddr: 0x21430, symBinAddr: 0x9C880, symSize: 0x1A0 }
  - { offset: 0x3BD097, size: 0x8, addend: 0x0, symName: __ZN11spirv_cross4joinIJcRKNSt3__112basic_stringIcNS1_11char_traitsIcEENS1_9allocatorIcEEEEcEEES7_DpOT_, symObjAddr: 0x2F1D0, symBinAddr: 0xA9F00, symSize: 0x1D0 }
  - { offset: 0x3BD4EA, size: 0x8, addend: 0x0, symName: __ZN11spirv_cross4joinIJNSt3__112basic_stringIcNS1_11char_traitsIcEENS1_9allocatorIcEEEERA2_KcRKS7_SA_EEES7_DpOT_, symObjAddr: 0x218E0, symBinAddr: 0x9CD30, symSize: 0x1E0 }
  - { offset: 0x3BDC7C, size: 0x8, addend: 0x0, symName: __ZN11spirv_cross4joinIJPKcRNSt3__112basic_stringIcNS3_11char_traitsIcEENS3_9allocatorIcEEEES9_RA2_S1_SA_EEES9_DpOT_, symObjAddr: 0x77CA0, symBinAddr: 0xE90C0, symSize: 0x160 }
  - { offset: 0x3BE0EE, size: 0x8, addend: 0x0, symName: __ZN11spirv_cross4joinIJRA14_KcRjRA16_S1_S4_EEENSt3__112basic_stringIcNS7_11char_traitsIcEENS7_9allocatorIcEEEEDpOT_, symObjAddr: 0x24FD0, symBinAddr: 0xA0420, symSize: 0x1C0 }
  - { offset: 0x3BE526, size: 0x8, addend: 0x0, symName: __ZN11spirv_cross4joinIJRPKcRA2_S1_RjS5_EEENSt3__112basic_stringIcNS7_11char_traitsIcEENS7_9allocatorIcEEEEDpOT_, symObjAddr: 0x25C40, symBinAddr: 0xA1090, symSize: 0x1D0 }
  - { offset: 0x3BE9AC, size: 0x8, addend: 0x0, symName: __ZN11spirv_cross4joinIJRPKcRA3_S1_EEENSt3__112basic_stringIcNS6_11char_traitsIcEENS6_9allocatorIcEEEEDpOT_, symObjAddr: 0x25E10, symBinAddr: 0xA1260, symSize: 0x190 }
  - { offset: 0x3BFB2D, size: 0x8, addend: 0x0, symName: __ZN11spirv_cross4joinIJRA21_KcRjRA25_S1_S4_RA3_S1_EEENSt3__112basic_stringIcNS9_11char_traitsIcEENS9_9allocatorIcEEEEDpOT_, symObjAddr: 0x98C20, symBinAddr: 0xF9F90, symSize: 0x1F0 }
  - { offset: 0x3C0ADD, size: 0x8, addend: 0x0, symName: __ZN11spirv_cross4joinIJRA2_KcRKNS_7TypedIDILNS_5TypesE0EEES3_RjRA6_S1_EEENSt3__112basic_stringIcNSC_11char_traitsIcEENSC_9allocatorIcEEEEDpOT_, symObjAddr: 0x27CF0, symBinAddr: 0xA2D50, symSize: 0x1F0 }
  - { offset: 0x3C0FD7, size: 0x8, addend: 0x0, symName: __ZN11spirv_cross4joinIJRA2_KcRKNS_7TypedIDILNS_5TypesE0EEERA6_S1_EEENSt3__112basic_stringIcNSB_11char_traitsIcEENSB_9allocatorIcEEEEDpOT_, symObjAddr: 0x29190, symBinAddr: 0xA40D0, symSize: 0x1A0 }
  - { offset: 0x3C13D9, size: 0x8, addend: 0x0, symName: __ZN11spirv_cross4joinIJNSt3__112basic_stringIcNS1_11char_traitsIcEENS1_9allocatorIcEEEEPKcEEES7_DpOT_, symObjAddr: 0x32B80, symBinAddr: 0xACC30, symSize: 0x1A0 }
  - { offset: 0x3C179C, size: 0x8, addend: 0x0, symName: __ZN11spirv_cross4joinIJRA7_KcNSt3__112basic_stringIcNS4_11char_traitsIcEENS4_9allocatorIcEEEERA2_S1_RSA_SA_RA4_S1_SA_SC_SA_RA3_S1_EEESA_DpOT_, symObjAddr: 0x99700, symBinAddr: 0xFA180, symSize: 0x180 }
  - { offset: 0x3C1AC7, size: 0x8, addend: 0x0, symName: __ZN11spirv_cross4joinIJRA7_KcNSt3__112basic_stringIcNS4_11char_traitsIcEENS4_9allocatorIcEEEERA2_S1_RSA_SA_RA4_S1_SA_SC_EEESA_DpOT_, symObjAddr: 0x9BC10, symBinAddr: 0xFB310, symSize: 0x1F0 }
  - { offset: 0x3C41E1, size: 0x8, addend: 0x0, symName: __ZN11spirv_cross4joinIJPKcRA10_S1_RS2_RA2_S1_EEENSt3__112basic_stringIcNS8_11char_traitsIcEENS8_9allocatorIcEEEEDpOT_, symObjAddr: 0x9EDD0, symBinAddr: 0xFC5D0, symSize: 0x1E0 }
  - { offset: 0x3C6C7B, size: 0x8, addend: 0x0, symName: __ZN11spirv_cross4joinIJRPKcRA18_S1_S3_RA2_S1_S3_RA8_S1_EEENSt3__112basic_stringIcNSA_11char_traitsIcEENSA_9allocatorIcEEEEDpOT_, symObjAddr: 0xA0C80, symBinAddr: 0xFC7B0, symSize: 0x1B0 }
  - { offset: 0x3C8465, size: 0x8, addend: 0x0, symName: __ZN11spirv_cross4joinIJRPKcNSt3__112basic_stringIcNS4_11char_traitsIcEENS4_9allocatorIcEEEEEEESA_DpOT_, symObjAddr: 0x2E9F0, symBinAddr: 0xA9720, symSize: 0x1A0 }
  - { offset: 0x3C8913, size: 0x8, addend: 0x0, symName: __ZN11spirv_cross4joinIJcRKNSt3__112basic_stringIcNS1_11char_traitsIcEENS1_9allocatorIcEEEEEEES7_DpOT_, symObjAddr: 0x2F5F0, symBinAddr: 0xAA230, symSize: 0x1A0 }
  - { offset: 0x3C8CD0, size: 0x8, addend: 0x0, symName: __ZN11spirv_cross4joinIJNSt3__112basic_stringIcNS1_11char_traitsIcEENS1_9allocatorIcEEEERA7_KcEEES7_DpOT_, symObjAddr: 0x2F790, symBinAddr: 0xAA3D0, symSize: 0x1A0 }
  - { offset: 0x3C92BD, size: 0x8, addend: 0x0, symName: __ZN11spirv_cross4joinIJRNSt3__112basic_stringIcNS1_11char_traitsIcEENS1_9allocatorIcEEEERA2_KcRjSB_EEES7_DpOT_, symObjAddr: 0x307E0, symBinAddr: 0xAB280, symSize: 0x1D0 }
  - { offset: 0x3C9786, size: 0x8, addend: 0x0, symName: __ZN11spirv_cross4joinIJRNSt3__112basic_stringIcNS1_11char_traitsIcEENS1_9allocatorIcEEEERA2_KcPS9_EEES7_DpOT_, symObjAddr: 0x309B0, symBinAddr: 0xAB450, symSize: 0x1C0 }
  - { offset: 0x3C9F58, size: 0x8, addend: 0x0, symName: __ZN11spirv_cross4joinIJNSt3__112basic_stringIcNS1_11char_traitsIcEENS1_9allocatorIcEEEERPKcRA2_S8_S7_SC_S7_EEES7_DpOT_, symObjAddr: 0x853E0, symBinAddr: 0xF4CB0, symSize: 0x1B0 }
  - { offset: 0x3CA406, size: 0x8, addend: 0x0, symName: __ZN11spirv_cross4joinIJNSt3__112basic_stringIcNS1_11char_traitsIcEENS1_9allocatorIcEEEERA4_KcS7_SA_RA2_S8_S7_SA_S7_SC_EEES7_DpOT_, symObjAddr: 0x35B10, symBinAddr: 0xAFBC0, symSize: 0x210 }
  - { offset: 0x3CAAA0, size: 0x8, addend: 0x0, symName: __ZN11spirv_crossL24opcode_is_sign_invariantEN3spv2OpE, symObjAddr: 0x38BA0, symBinAddr: 0xB2C50, symSize: 0x150 }
  - { offset: 0x3CAAD1, size: 0x8, addend: 0x0, symName: __ZN11spirv_cross4joinIJRNSt3__112basic_stringIcNS1_11char_traitsIcEENS1_9allocatorIcEEEERA2_KcS8_SB_S8_EEES7_DpOT_, symObjAddr: 0x39060, symBinAddr: 0xB3110, symSize: 0x160 }
  - { offset: 0x3CAD98, size: 0x8, addend: 0x0, symName: __ZN11spirv_cross4joinIJRA2_KcRNSt3__112basic_stringIcNS4_11char_traitsIcEENS4_9allocatorIcEEEESA_S3_EEESA_DpOT_, symObjAddr: 0x393A0, symBinAddr: 0xB3450, symSize: 0x200 }
  - { offset: 0x3CB631, size: 0x8, addend: 0x0, symName: __ZN11spirv_cross4joinIJRA2_KcRNSt3__112basic_stringIcNS4_11char_traitsIcEENS4_9allocatorIcEEEES3_SB_S3_SB_S3_EEESA_DpOT_, symObjAddr: 0x391C0, symBinAddr: 0xB3270, symSize: 0x1E0 }
  - { offset: 0x3CC4FF, size: 0x8, addend: 0x0, symName: __ZN11spirv_cross4joinIJRA20_KcNSt3__112basic_stringIcNS4_11char_traitsIcEENS4_9allocatorIcEEEERA3_S1_RSA_EEESA_DpOT_, symObjAddr: 0x56010, symBinAddr: 0xCC8A0, symSize: 0x200 }
  - { offset: 0x3CD556, size: 0x8, addend: 0x0, symName: __ZN11spirv_crossL18to_signed_basetypeEj, symObjAddr: 0x38CF0, symBinAddr: 0xB2DA0, symSize: 0x80 }
  - { offset: 0x3CD583, size: 0x8, addend: 0x0, symName: __ZN11spirv_crossL20to_unsigned_basetypeEj, symObjAddr: 0x38D70, symBinAddr: 0xB2E20, symSize: 0x80 }
  - { offset: 0x3CDA1C, size: 0x8, addend: 0x0, symName: __ZN11spirv_cross17convert_to_stringEfc, symObjAddr: 0x87140, symBinAddr: 0xF6710, symSize: 0x150 }
  - { offset: 0x3CE31A, size: 0x8, addend: 0x0, symName: __ZN11spirv_cross4joinIJNSt3__112basic_stringIcNS1_11char_traitsIcEENS1_9allocatorIcEEEERA2_KcRA32_cRA5_S8_RPS8_SE_EEES7_DpOT_, symObjAddr: 0x3B050, symBinAddr: 0xB46C0, symSize: 0x1B0 }
  - { offset: 0x3CE6E8, size: 0x8, addend: 0x0, symName: __ZN11spirv_cross17convert_to_stringEdc, symObjAddr: 0x87290, symBinAddr: 0xF6860, symSize: 0x150 }
  - { offset: 0x3CF038, size: 0x8, addend: 0x0, symName: __ZN11spirv_cross4joinIJRKNSt3__112basic_stringIcNS1_11char_traitsIcEENS1_9allocatorIcEEEERA21_KcPSA_RA2_SA_EEES7_DpOT_, symObjAddr: 0x8B450, symBinAddr: 0xF69E0, symSize: 0x1E0 }
  - { offset: 0x3CF8A7, size: 0x8, addend: 0x0, symName: __ZN11spirv_cross4joinIJNSt3__112basic_stringIcNS1_11char_traitsIcEENS1_9allocatorIcEEEES7_RA4_KcEEES7_DpOT_, symObjAddr: 0x3ED80, symBinAddr: 0xB8240, symSize: 0x1C0 }
  - { offset: 0x3D0045, size: 0x8, addend: 0x0, symName: __ZN11spirv_cross4joinIJNSt3__112basic_stringIcNS1_11char_traitsIcEENS1_9allocatorIcEEEERA2_KcRPS8_S7_SA_EEES7_DpOT_, symObjAddr: 0x3F570, symBinAddr: 0xB8A30, symSize: 0x160 }
  - { offset: 0x3D05EA, size: 0x8, addend: 0x0, symName: __ZN11spirv_cross4joinIJNSt3__112basic_stringIcNS1_11char_traitsIcEENS1_9allocatorIcEEEERA2_KcRPS8_SA_S7_EEES7_DpOT_, symObjAddr: 0x3FB10, symBinAddr: 0xB8FD0, symSize: 0x160 }
  - { offset: 0x3D08B1, size: 0x8, addend: 0x0, symName: __ZN11spirv_cross4joinIJRA33_KcNSt3__112basic_stringIcNS4_11char_traitsIcEENS4_9allocatorIcEEEERA3_S1_EEESA_DpOT_, symObjAddr: 0x406E0, symBinAddr: 0xB9BA0, symSize: 0x1C0 }
  - { offset: 0x3D116A, size: 0x8, addend: 0x0, symName: __ZN11spirv_cross4joinIJNSt3__112basic_stringIcNS1_11char_traitsIcEENS1_9allocatorIcEEEEcRS7_cEEES7_DpOT_, symObjAddr: 0x410F0, symBinAddr: 0xBA290, symSize: 0x1F0 }
  - { offset: 0x3D16AC, size: 0x8, addend: 0x0, symName: __ZN11spirv_cross4joinIJRPKcRA2_S1_NSt3__112basic_stringIcNS6_11char_traitsIcEENS6_9allocatorIcEEEES5_EEESC_DpOT_, symObjAddr: 0x413E0, symBinAddr: 0xBA580, symSize: 0x1F0 }
  - { offset: 0x3D1BC5, size: 0x8, addend: 0x0, symName: __ZN11spirv_cross4joinIJRPKcRA2_S1_NSt3__112basic_stringIcNS6_11char_traitsIcEENS6_9allocatorIcEEEERA3_S1_SC_S5_EEESC_DpOT_, symObjAddr: 0x41780, symBinAddr: 0xBA920, symSize: 0x1B0 }
  - { offset: 0x3D1F54, size: 0x8, addend: 0x0, symName: __ZN11spirv_cross4joinIJRPKcRA2_S1_NSt3__112basic_stringIcNS6_11char_traitsIcEENS6_9allocatorIcEEEERA3_S1_SC_SE_SC_S5_EEESC_DpOT_, symObjAddr: 0x41D90, symBinAddr: 0xBAF30, symSize: 0x1F0 }
  - { offset: 0x3D2FDA, size: 0x8, addend: 0x0, symName: __ZN11spirv_cross4joinIJRPKcRA2_S1_NSt3__112basic_stringIcNS6_11char_traitsIcEENS6_9allocatorIcEEEERA3_S1_SC_SE_SC_SE_SC_S5_EEESC_DpOT_, symObjAddr: 0x44900, symBinAddr: 0xBD360, symSize: 0x180 }
  - { offset: 0x3D350A, size: 0x8, addend: 0x0, symName: __ZN11spirv_cross4joinIJRNSt3__112basic_stringIcNS1_11char_traitsIcEENS1_9allocatorIcEEEERPKcRA4_S9_EEES7_DpOT_, symObjAddr: 0x463D0, symBinAddr: 0xBE970, symSize: 0x1C0 }
  - { offset: 0x3D3970, size: 0x8, addend: 0x0, symName: __ZN11spirv_cross4joinIJRNSt3__112basic_stringIcNS1_11char_traitsIcEENS1_9allocatorIcEEEERPKcSA_EEES7_DpOT_, symObjAddr: 0x46730, symBinAddr: 0xBEB30, symSize: 0x1C0 }
  - { offset: 0x3D44ED, size: 0x8, addend: 0x0, symName: __ZN11spirv_cross4joinIJRA12_KcRPS1_EEENSt3__112basic_stringIcNS6_11char_traitsIcEENS6_9allocatorIcEEEEDpOT_, symObjAddr: 0x46C70, symBinAddr: 0xBECF0, symSize: 0x1A0 }
  - { offset: 0x3D518C, size: 0x8, addend: 0x0, symName: __ZN11spirv_cross4joinIJNSt3__112basic_stringIcNS1_11char_traitsIcEENS1_9allocatorIcEEEERA2_KcS7_RA3_S8_S7_SA_EEES7_DpOT_, symObjAddr: 0x48620, symBinAddr: 0xC0200, symSize: 0x1B0 }
  - { offset: 0x3D5FBC, size: 0x8, addend: 0x0, symName: __ZN11spirv_cross4joinIJRA6_KcNSt3__112basic_stringIcNS4_11char_traitsIcEENS4_9allocatorIcEEEERA10_S1_SA_RA4_S1_EEESA_DpOT_, symObjAddr: 0x4C020, symBinAddr: 0xC3C00, symSize: 0x160 }
  - { offset: 0x3D6BD1, size: 0x8, addend: 0x0, symName: __ZN11spirv_cross4joinIJRA2_KcNSt3__112basic_stringIcNS4_11char_traitsIcEENS4_9allocatorIcEEEERA4_S1_SA_RA6_S1_SA_SC_SA_S3_EEESA_DpOT_, symObjAddr: 0x50450, symBinAddr: 0xC7360, symSize: 0x220 }
  - { offset: 0x3D75D5, size: 0x8, addend: 0x0, symName: __ZN11spirv_cross4joinIJNSt3__112basic_stringIcNS1_11char_traitsIcEENS1_9allocatorIcEEEERA4_KcS7_RA2_S8_S7_SC_S7_SA_EEES7_DpOT_, symObjAddr: 0xA6F30, symBinAddr: 0xFD520, symSize: 0x1F0 }
  - { offset: 0x3D7B8E, size: 0x8, addend: 0x0, symName: __ZN11spirv_cross4joinIJNSt3__112basic_stringIcNS1_11char_traitsIcEENS1_9allocatorIcEEEERA2_KcS7_RA4_S8_RA6_S8_S7_RA3_S8_S7_SA_S7_SG_EEES7_DpOT_, symObjAddr: 0xA72F0, symBinAddr: 0xFD710, symSize: 0x1E0 }
  - { offset: 0x3D7FF2, size: 0x8, addend: 0x0, symName: __ZN11spirv_cross4joinIJNSt3__112basic_stringIcNS1_11char_traitsIcEENS1_9allocatorIcEEEERA2_KcS7_RA4_S8_S7_SA_S7_SA_S7_SC_EEES7_DpOT_, symObjAddr: 0xA77B0, symBinAddr: 0xFDA00, symSize: 0x180 }
  - { offset: 0x3D8522, size: 0x8, addend: 0x0, symName: __ZN11spirv_cross4joinIJRA6_KcRPS1_RA4_S1_NSt3__112basic_stringIcNS8_11char_traitsIcEENS8_9allocatorIcEEEES3_S5_S7_SE_RA9_S1_S4_EEESE_DpOT_, symObjAddr: 0x51690, symBinAddr: 0xC8440, symSize: 0x180 }
  - { offset: 0x3D884D, size: 0x8, addend: 0x0, symName: __ZN11spirv_cross4joinIJRA5_KcNSt3__112basic_stringIcNS4_11char_traitsIcEENS4_9allocatorIcEEEERA9_S1_SA_RA4_S1_SA_SE_RPS1_RA3_S1_EEESA_DpOT_, symObjAddr: 0x51470, symBinAddr: 0xC8220, symSize: 0x220 }
  - { offset: 0x3D9C22, size: 0x8, addend: 0x0, symName: __ZN11spirv_cross4joinIJRKNSt3__112basic_stringIcNS1_11char_traitsIcEENS1_9allocatorIcEEEERA2_KcS7_EEES7_DpOT_, symObjAddr: 0x57030, symBinAddr: 0xCCF80, symSize: 0x1C0 }
  - { offset: 0x3DA6D6, size: 0x8, addend: 0x0, symName: __ZN11spirv_cross4joinIJRKNSt3__112basic_stringIcNS1_11char_traitsIcEENS1_9allocatorIcEEEERcSA_RA2_KcEEES7_DpOT_, symObjAddr: 0xA9320, symBinAddr: 0xFE340, symSize: 0x1E0 }
  - { offset: 0x3DABCB, size: 0x8, addend: 0x0, symName: __ZN11spirv_cross4joinIJRKNSt3__112basic_stringIcNS1_11char_traitsIcEENS1_9allocatorIcEEEERA2_KcRcRA3_SA_RS7_SC_EEES7_DpOT_, symObjAddr: 0xA9500, symBinAddr: 0xFE520, symSize: 0x170 }
  - { offset: 0x3DD52E, size: 0x8, addend: 0x0, symName: __ZN11spirv_cross4joinIJRA32_KcNSt3__112basic_stringIcNS4_11char_traitsIcEENS4_9allocatorIcEEEERA3_S1_RA6_S1_SA_SC_EEESA_DpOT_, symObjAddr: 0x73D20, symBinAddr: 0xE6730, symSize: 0x1B0 }
  - { offset: 0x3DDB59, size: 0x8, addend: 0x0, symName: __ZN11spirv_cross4joinIJNSt3__112basic_stringIcNS1_11char_traitsIcEENS1_9allocatorIcEEEEEEES7_DpOT_, symObjAddr: 0x72090, symBinAddr: 0xE5360, symSize: 0x180 }
  - { offset: 0x3DF305, size: 0x8, addend: 0x0, symName: __ZN11spirv_cross4joinIJRPKcRA2_S1_NSt3__112basic_stringIcNS6_11char_traitsIcEENS6_9allocatorIcEEEERA3_S1_S3_S5_EEESC_DpOT_, symObjAddr: 0x6F260, symBinAddr: 0xE3FF0, symSize: 0x1B0 }
  - { offset: 0x3DF694, size: 0x8, addend: 0x0, symName: __ZN11spirv_cross4joinIJNSt3__112basic_stringIcNS1_11char_traitsIcEENS1_9allocatorIcEEEERA4_KcS7_SA_S7_RA2_S8_S7_SC_S7_SA_S7_RA3_S8_EEES7_DpOT_, symObjAddr: 0x6E6F0, symBinAddr: 0xE3CE0, symSize: 0x1F0 }
  - { offset: 0x3E046B, size: 0x8, addend: 0x0, symName: __ZN11spirv_cross4joinIJRA5_KcRPS1_RA2_S1_NSt3__112basic_stringIcNS8_11char_traitsIcEENS8_9allocatorIcEEEERA3_S1_SE_SG_EEESE_DpOT_, symObjAddr: 0x72210, symBinAddr: 0xE54E0, symSize: 0x1D0 }
  - { offset: 0x3E08BD, size: 0x8, addend: 0x0, symName: __ZN11spirv_cross4joinIJRA3_KcNSt3__112basic_stringIcNS4_11char_traitsIcEENS4_9allocatorIcEEEERPS1_SA_RA2_S1_EEESA_DpOT_, symObjAddr: 0x723E0, symBinAddr: 0xE56B0, symSize: 0x160 }
  - { offset: 0x3E3134, size: 0x8, addend: 0x0, symName: __ZN11spirv_cross4joinIJNSt3__112basic_stringIcNS1_11char_traitsIcEENS1_9allocatorIcEEEERA2_KcS7_S7_SA_EEES7_DpOT_, symObjAddr: 0xA9C20, symBinAddr: 0xFE860, symSize: 0x160 }
  - { offset: 0x3E3A0A, size: 0x8, addend: 0x0, symName: __ZN11spirv_cross4joinIJNSt3__112basic_stringIcNS1_11char_traitsIcEENS1_9allocatorIcEEEERA2_KcS7_RA4_S8_RPS8_SA_S7_RA3_S8_S7_SG_S7_SA_S7_SG_EEES7_DpOT_, symObjAddr: 0xAAA40, symBinAddr: 0xFEF80, symSize: 0x240 }
  - { offset: 0x3E41D9, size: 0x8, addend: 0x0, symName: __ZN11spirv_cross4joinIJRPKcRA2_S1_NSt3__112basic_stringIcNS6_11char_traitsIcEENS6_9allocatorIcEEEERA3_S1_SC_SE_SC_S5_SC_SE_SC_S5_SC_SE_EEESC_DpOT_, symObjAddr: 0xAAEC0, symBinAddr: 0xFF2F0, symSize: 0x240 }
  - { offset: 0x3E649F, size: 0x8, addend: 0x0, symName: __ZN11spirv_cross4joinIJRA25_KcRKtEEENSt3__112basic_stringIcNS6_11char_traitsIcEENS6_9allocatorIcEEEEDpOT_, symObjAddr: 0xAD460, symBinAddr: 0xFF7F0, symSize: 0x190 }
  - { offset: 0x3E67D5, size: 0x8, addend: 0x0, symName: __ZN11spirv_cross4joinIJRA9_KcNSt3__112basic_stringIcNS4_11char_traitsIcEENS4_9allocatorIcEEEERA3_S1_SA_SC_SA_SC_SA_SC_SA_SC_SA_SC_SA_SC_SA_SC_SA_SC_SA_SC_SA_SC_EEESA_DpOT_, symObjAddr: 0xAD720, symBinAddr: 0xFFAB0, symSize: 0x290 }
  - { offset: 0x3E704E, size: 0x8, addend: 0x0, symName: __ZN11spirv_cross4joinIJRA13_KcNSt3__112basic_stringIcNS4_11char_traitsIcEENS4_9allocatorIcEEEERA3_S1_SA_SC_SA_SC_SA_SC_SA_SC_SA_SC_SA_SC_SA_SC_SA_SC_SA_SC_jSC_EEESA_DpOT_, symObjAddr: 0xADF50, symBinAddr: 0x1000A0, symSize: 0x280 }
  - { offset: 0x3E7931, size: 0x8, addend: 0x0, symName: __ZN11spirv_cross4joinIJRA20_KcNSt3__112basic_stringIcNS4_11char_traitsIcEENS4_9allocatorIcEEEERA3_S1_jSC_EEESA_DpOT_, symObjAddr: 0xAEB40, symBinAddr: 0x1008B0, symSize: 0x200 }
  - { offset: 0x3E7EB5, size: 0x8, addend: 0x0, symName: __ZN11spirv_cross4joinIJRA23_KcNSt3__112basic_stringIcNS4_11char_traitsIcEENS4_9allocatorIcEEEERA3_S1_SA_SC_SA_SC_SA_SC_SA_SC_SA_SC_SA_SC_SA_SC_EEESA_DpOT_, symObjAddr: 0xAED40, symBinAddr: 0x100AB0, symSize: 0x240 }
  - { offset: 0x3E907B, size: 0x8, addend: 0x0, symName: __ZN11spirv_cross4joinIJRNSt3__112basic_stringIcNS1_11char_traitsIcEENS1_9allocatorIcEEEEcRjcS8_EEES7_DpOT_, symObjAddr: 0x75F20, symBinAddr: 0xE7500, symSize: 0x210 }
  - { offset: 0x3E9631, size: 0x8, addend: 0x0, symName: __ZN11spirv_cross4joinIJRA13_KcPS1_RA2_S1_RNSt3__112basic_stringIcNS7_11char_traitsIcEENS7_9allocatorIcEEEES6_EEESD_DpOT_, symObjAddr: 0x76130, symBinAddr: 0xE7710, symSize: 0x160 }
  - { offset: 0x3E98F8, size: 0x8, addend: 0x0, symName: __ZN11spirv_cross4joinIJRNSt3__112basic_stringIcNS1_11char_traitsIcEENS1_9allocatorIcEEEERA2_KcRKS7_S7_EEES7_DpOT_, symObjAddr: 0x76540, symBinAddr: 0xE7960, symSize: 0x1F0 }
  - { offset: 0x3E9EA3, size: 0x8, addend: 0x0, symName: __ZN11spirv_cross4joinIJRA6_KcNSt3__112basic_stringIcNS4_11char_traitsIcEENS4_9allocatorIcEEEERA5_S1_RjRA2_S1_SD_RA3_S1_EEESA_DpOT_, symObjAddr: 0xAF820, symBinAddr: 0x100E60, symSize: 0x1C0 }
  - { offset: 0x3EA492, size: 0x8, addend: 0x0, symName: __ZN11spirv_cross4joinIJNSt3__112basic_stringIcNS1_11char_traitsIcEENS1_9allocatorIcEEEERS7_RKS7_S7_S7_RA2_KcEEES7_DpOT_, symObjAddr: 0xAFF20, symBinAddr: 0x1011E0, symSize: 0x1B0 }
  - { offset: 0x3EA860, size: 0x8, addend: 0x0, symName: __ZN11spirv_cross4joinIJRPKcNSt3__112basic_stringIcNS4_11char_traitsIcEENS4_9allocatorIcEEEESA_EEESA_DpOT_, symObjAddr: 0x77600, symBinAddr: 0xE8A20, symSize: 0x1D0 }
  - { offset: 0x3EAD1A, size: 0x8, addend: 0x0, symName: __ZN11spirv_cross4joinIJRKjRA2_KcEEENSt3__112basic_stringIcNS6_11char_traitsIcEENS6_9allocatorIcEEEEDpOT_, symObjAddr: 0x797D0, symBinAddr: 0xEABF0, symSize: 0x180 }
  - { offset: 0x3ECD31, size: 0x8, addend: 0x0, symName: __ZN11spirv_cross4joinIJPKcNSt3__112basic_stringIcNS3_11char_traitsIcEENS3_9allocatorIcEEEERA5_S1_RKyRS2_S2_EEES9_DpOT_, symObjAddr: 0x8B6A0, symBinAddr: 0xF6BC0, symSize: 0x170 }
  - { offset: 0x3ED69B, size: 0x8, addend: 0x0, symName: __ZN11spirv_cross4joinIJRA2_KcRNS_7TypedIDILNS_5TypesE2EEERA6_S1_RA4_S1_NSt3__112basic_stringIcNSC_11char_traitsIcEENSC_9allocatorIcEEEES3_EEESI_DpOT_, symObjAddr: 0xB3570, symBinAddr: 0x102070, symSize: 0x170 }
  - { offset: 0x3EE831, size: 0x8, addend: 0x0, symName: __ZN11spirv_cross4joinIJRA18_KcRjRA15_S1_S4_S6_S4_RA4_S1_EEENSt3__112basic_stringIcNS9_11char_traitsIcEENS9_9allocatorIcEEEEDpOT_, symObjAddr: 0xB6FC0, symBinAddr: 0x103DC0, symSize: 0x170 }
  - { offset: 0x3EEE3E, size: 0x8, addend: 0x0, symName: __ZN11spirv_cross4joinIJRA6_KcNSt3__112basic_stringIcNS4_11char_traitsIcEENS4_9allocatorIcEEEERPS1_RA2_S1_EEESA_DpOT_, symObjAddr: 0xB74E0, symBinAddr: 0x1040F0, symSize: 0x1F0 }
  - { offset: 0x3F0FF9, size: 0x8, addend: 0x0, symName: __ZN11spirv_cross4joinIJRNSt3__112basic_stringIcNS1_11char_traitsIcEENS1_9allocatorIcEEEERA4_KcRKS7_RA2_S9_RKjRA3_S9_EEES7_DpOT_, symObjAddr: 0x9B560, symBinAddr: 0xFAFE0, symSize: 0x170 }
  - { offset: 0x3F1863, size: 0x8, addend: 0x0, symName: __ZN11spirv_cross4joinIJNSt3__112basic_stringIcNS1_11char_traitsIcEENS1_9allocatorIcEEEERA2_KcRjRA5_S8_S7_SA_EEES7_DpOT_, symObjAddr: 0x9C900, symBinAddr: 0xFBE20, symSize: 0x170 }
  - { offset: 0x3F1E7B, size: 0x8, addend: 0x0, symName: __ZN11spirv_cross4joinIJRA7_KcRjRA3_S1_RNSt3__112basic_stringIcNS7_11char_traitsIcEENS7_9allocatorIcEEEERA2_S1_EEESD_DpOT_, symObjAddr: 0xB8FE0, symBinAddr: 0x104AD0, symSize: 0x200 }
  - { offset: 0x3F2405, size: 0x8, addend: 0x0, symName: __ZN11spirv_cross4joinIJNSt3__112basic_stringIcNS1_11char_traitsIcEENS1_9allocatorIcEEEERA4_KcRA17_S8_jRA3_S8_EEES7_DpOT_, symObjAddr: 0xB9830, symBinAddr: 0x1052A0, symSize: 0x1F0 }
  - { offset: 0x3F2984, size: 0x8, addend: 0x0, symName: __ZN11spirv_cross4joinIJNSt3__112basic_stringIcNS1_11char_traitsIcEENS1_9allocatorIcEEEEPKcRA4_S8_S7_RA2_S8_EEES7_DpOT_, symObjAddr: 0xB9A20, symBinAddr: 0x105490, symSize: 0x160 }
  - { offset: 0x418A07, size: 0x8, addend: 0x0, symName: __ZNSt3__1L19piecewise_constructE, symObjAddr: 0xCF9BA, symBinAddr: 0x1EC29A, symSize: 0x0 }
  - { offset: 0x421C2C, size: 0x8, addend: 0x0, symName: '__ZNSt3__111__introsortINS_17_ClassicAlgPolicyERZN11spirv_cross12CompilerGLSL24emit_hoisted_temporariesERNS2_11SmallVectorINS_4pairINS2_7TypedIDILNS2_5TypesE1EEENS6_ILS7_0EEEEELm8EEEE3$_0PSA_Lb0EEEvT1_SG_T0_NS_15iterator_traitsISG_E15difference_typeEb', symObjAddr: 0xB4620, symBinAddr: 0x1022B0, symSize: 0xB90 }
  - { offset: 0x425073, size: 0x8, addend: 0x0, symName: '__ZNSt3__127__insertion_sort_incompleteB8ne180100INS_17_ClassicAlgPolicyERZN11spirv_cross12CompilerGLSL24emit_hoisted_temporariesERNS2_11SmallVectorINS_4pairINS2_7TypedIDILNS2_5TypesE1EEENS6_ILS7_0EEEEELm8EEEE3$_0PSA_EEbT1_SG_T0_', symObjAddr: 0xB51B0, symBinAddr: 0x102E40, symSize: 0x340 }
  - { offset: 0x429806, size: 0x8, addend: 0x0, symName: '__ZNSt3__111__introsortINS_17_ClassicAlgPolicyERZN11spirv_cross12CompilerGLSL27ShaderSubgroupSupportHelper26get_candidates_for_featureENS4_7FeatureERKNS4_6ResultEE3$_0PNS4_9CandidateELb0EEEvT1_SD_T0_NS_15iterator_traitsISD_E15difference_typeEb', symObjAddr: 0xBA250, symBinAddr: 0x105CC0, symSize: 0xEC0 }
  - { offset: 0x42B8CB, size: 0x8, addend: 0x0, symName: '__ZNSt3__127__insertion_sort_incompleteB8ne180100INS_17_ClassicAlgPolicyERZN11spirv_cross12CompilerGLSL27ShaderSubgroupSupportHelper26get_candidates_for_featureENS4_7FeatureERKNS4_6ResultEE3$_0PNS4_9CandidateEEEbT1_SD_T0_', symObjAddr: 0xBB110, symBinAddr: 0x106B80, symSize: 0x410 }
  - { offset: 0x42F5A1, size: 0x8, addend: 0x0, symName: __ZNSt3__1plB8ne180100IcNS_11char_traitsIcEENS_9allocatorIcEEEENS_12basic_stringIT_T0_T1_EERKS9_PKS6_, symObjAddr: 0x363B0, symBinAddr: 0xB0460, symSize: 0x110 }
  - { offset: 0x4358AA, size: 0x8, addend: 0x0, symName: '__ZNSt3__17__sort4B8ne180100INS_17_ClassicAlgPolicyERZN11spirv_cross12CompilerGLSL24emit_hoisted_temporariesERNS2_11SmallVectorINS_4pairINS2_7TypedIDILNS2_5TypesE1EEENS6_ILS7_0EEEEELm8EEEE3$_0PSA_EEvT1_SG_SG_SG_T0_', symObjAddr: 0xB54F0, symBinAddr: 0x103180, symSize: 0x120 }
  - { offset: 0x436F01, size: 0x8, addend: 0x0, symName: '__ZNSt3__17__sort4B8ne180100INS_17_ClassicAlgPolicyERZN11spirv_cross12CompilerGLSL27ShaderSubgroupSupportHelper26get_candidates_for_featureENS4_7FeatureERKNS4_6ResultEE3$_0PNS4_9CandidateEEEvT1_SD_SD_SD_T0_', symObjAddr: 0xBB520, symBinAddr: 0x106F90, symSize: 0x170 }
  - { offset: 0x43C4D9, size: 0x8, addend: 0x0, symName: __ZN11spirv_cross12CompilerGLSL14vector_swizzleEii, symObjAddr: 0x70, symBinAddr: 0x7DB10, symSize: 0x20 }
  - { offset: 0x43C4FA, size: 0x8, addend: 0x0, symName: __ZZN11spirv_cross12CompilerGLSL14vector_swizzleEiiE7swizzle, symObjAddr: 0xC4FD0, symBinAddr: 0x216840, symSize: 0x0 }
  - { offset: 0x43C53D, size: 0x8, addend: 0x0, symName: __ZN11spirv_cross12CompilerGLSL21replace_illegal_namesEv, symObjAddr: 0x1F080, symBinAddr: 0x9A540, symSize: 0x2110 }
  - { offset: 0x43C565, size: 0x8, addend: 0x0, symName: __ZZN11spirv_cross12CompilerGLSL21replace_illegal_namesEvE8keywords, symObjAddr: 0x958B68, symBinAddr: 0x21B638, symSize: 0x0 }
  - { offset: 0x43E820, size: 0x8, addend: 0x0, symName: __ZN11spirv_cross12CompilerGLSL26emit_extension_workaroundsEN3spv14ExecutionModelE, symObjAddr: 0x4F20, symBinAddr: 0x82870, symSize: 0x2920 }
  - { offset: 0x445CCE, size: 0x8, addend: 0x0, symName: __ZN11spirv_cross12CompilerGLSL24remove_duplicate_swizzleERNSt3__112basic_stringIcNS1_11char_traitsIcEENS1_9allocatorIcEEEE, symObjAddr: 0x21B60, symBinAddr: 0x9CFB0, symSize: 0x270 }
  - { offset: 0x446529, size: 0x8, addend: 0x0, symName: __ZN11spirv_cross12CompilerGLSL20remove_unity_swizzleEjRNSt3__112basic_stringIcNS1_11char_traitsIcEENS1_9allocatorIcEEEE, symObjAddr: 0x5A4A0, symBinAddr: 0xD0230, symSize: 0x1D0 }
  - { offset: 0x446CDC, size: 0x8, addend: 0x0, symName: __ZN11spirv_cross12CompilerGLSL27ShaderSubgroupSupportHelper18get_extension_nameENS1_9CandidateE, symObjAddr: 0x9AA0, symBinAddr: 0x86D70, symSize: 0x20 }
  - { offset: 0x446CFD, size: 0x8, addend: 0x0, symName: __ZZN11spirv_cross12CompilerGLSL27ShaderSubgroupSupportHelper18get_extension_nameENS1_9CandidateEE6retval, symObjAddr: 0xC5070, symBinAddr: 0x2168E0, symSize: 0x0 }
  - { offset: 0x446D1E, size: 0x8, addend: 0x0, symName: __ZN11spirv_cross12CompilerGLSL27ShaderSubgroupSupportHelper45can_feature_be_implemented_without_extensionsENS1_7FeatureE, symObjAddr: 0xFFE0, symBinAddr: 0x8D230, symSize: 0x20 }
  - { offset: 0x446D3F, size: 0x8, addend: 0x0, symName: __ZZN11spirv_cross12CompilerGLSL27ShaderSubgroupSupportHelper45can_feature_be_implemented_without_extensionsENS1_7FeatureEE6retval, symObjAddr: 0xCF8A0, symBinAddr: 0x1EC1B0, symSize: 0x0 }
  - { offset: 0x446D60, size: 0x8, addend: 0x0, symName: __ZN11spirv_cross12CompilerGLSL27ShaderSubgroupSupportHelper29get_KHR_extension_for_featureENS1_7FeatureE, symObjAddr: 0x9A80, symBinAddr: 0x86D50, symSize: 0x20 }
  - { offset: 0x446D81, size: 0x8, addend: 0x0, symName: __ZZN11spirv_cross12CompilerGLSL27ShaderSubgroupSupportHelper29get_KHR_extension_for_featureENS1_7FeatureEE10extensions, symObjAddr: 0xCF8C0, symBinAddr: 0x1EC1D0, symSize: 0x0 }
  - { offset: 0x446DA7, size: 0x8, addend: 0x0, symName: __ZN11spirv_cross12CompilerGLSL29emit_spv_amd_shader_ballot_opEjjjPKjj, symObjAddr: 0x51810, symBinAddr: 0xC85C0, symSize: 0x5E0 }
  - { offset: 0x44772C, size: 0x8, addend: 0x0, symName: __ZN11spirv_cross12CompilerGLSL48emit_spv_amd_shader_explicit_vertex_parameter_opEjjjPKjj, symObjAddr: 0x51F10, symBinAddr: 0xC8CC0, symSize: 0xF0 }
  - { offset: 0x447D0A, size: 0x8, addend: 0x0, symName: __ZN11spirv_cross12CompilerGLSL37emit_spv_amd_shader_trinary_minmax_opEjjjPKjj, symObjAddr: 0x52120, symBinAddr: 0xC8ED0, symSize: 0x130 }
  - { offset: 0x448330, size: 0x8, addend: 0x0, symName: __ZN11spirv_cross12CompilerGLSL26emit_spv_amd_gcn_shader_opEjjjPKjj, symObjAddr: 0x52370, symBinAddr: 0xC9120, symSize: 0x270 }
  - { offset: 0x448DCB, size: 0x8, addend: 0x0, symName: __ZN11spirv_cross12CompilerGLSL32emit_output_variable_initializerERKNS_12SPIRVariableE, symObjAddr: 0x268F0, symBinAddr: 0xA1950, symSize: 0x1400 }
  - { offset: 0x44D980, size: 0x8, addend: 0x0, symName: __ZN11spirv_cross12CompilerGLSL35emit_subgroup_arithmetic_workaroundERKNSt3__112basic_stringIcNS1_11char_traitsIcEENS1_9allocatorIcEEEEN3spv2OpENSA_14GroupOperationE, symObjAddr: 0x294D0, symBinAddr: 0xA4410, symSize: 0x1190 }
  - { offset: 0x45A1D1, size: 0x8, addend: 0x0, symName: __ZN11spirv_cross12CompilerGLSL50emit_inout_fragment_outputs_copy_to_subpass_inputsEv, symObjAddr: 0x3640, symBinAddr: 0x80F90, symSize: 0x250 }
  - { offset: 0x45A9A2, size: 0x8, addend: 0x0, symName: __ZN11spirv_cross12CompilerGLSL4initEv, symObjAddr: 0x0, symBinAddr: 0x7DAA0, symSize: 0x50 }
  - { offset: 0x45AA19, size: 0x8, addend: 0x0, symName: __ZN11spirv_cross12CompilerGLSL24pls_format_to_componentsENS_9PlsFormatE, symObjAddr: 0x50, symBinAddr: 0x7DAF0, symSize: 0x20 }
  - { offset: 0x45AD31, size: 0x8, addend: 0x0, symName: __ZN11spirv_cross12CompilerGLSL5resetEj, symObjAddr: 0x90, symBinAddr: 0x7DB30, symSize: 0x6C0 }
  - { offset: 0x45C094, size: 0x8, addend: 0x0, symName: __ZN11spirv_cross12CompilerGLSL17reset_name_cachesEv, symObjAddr: 0x790, symBinAddr: 0x7E1F0, symSize: 0x6E0 }
  - { offset: 0x45DF59, size: 0x8, addend: 0x0, symName: __ZNSt3__112__hash_tableINS_17__hash_value_typeINS_12basic_stringIcNS_11char_traitsIcEENS_9allocatorIcEEEENS_13unordered_setIyNS_4hashIyEENS_8equal_toIyEENS5_IyEEEEEENS_22__unordered_map_hasherIS7_SF_NS9_IS7_EENSB_IS7_EELb1EEENS_21__unordered_map_equalIS7_SF_SI_SH_Lb1EEENS5_ISF_EEE5clearEv, symObjAddr: 0xB8D10, symBinAddr: 0x104800, symSize: 0x120 }
  - { offset: 0x45E72E, size: 0x8, addend: 0x0, symName: __ZN11spirv_cross12CompilerGLSL19remap_pls_variablesEv, symObjAddr: 0xE70, symBinAddr: 0x7E8D0, symSize: 0x260 }
  - { offset: 0x45F507, size: 0x8, addend: 0x0, symName: __ZN11spirv_cross12CompilerGLSL27remap_ext_framebuffer_fetchEjjb, symObjAddr: 0x10D0, symBinAddr: 0x7EB30, symSize: 0x3B0 }
  - { offset: 0x45FF40, size: 0x8, addend: 0x0, symName: __ZNKSt3__16vectorINS_4pairIjjEENS_9allocatorIS2_EEE20__throw_length_errorB8ne180100Ev, symObjAddr: 0x8E030, symBinAddr: 0xF7830, symSize: 0x10 }
  - { offset: 0x45FF6A, size: 0x8, addend: 0x0, symName: __ZNKSt3__16vectorINS_4pairIjbEENS_9allocatorIS2_EEE20__throw_length_errorB8ne180100Ev, symObjAddr: 0x8E040, symBinAddr: 0xF7840, symSize: 0x10 }
  - { offset: 0x45FF75, size: 0x8, addend: 0x0, symName: __ZNKSt3__16vectorINS_4pairIjbEENS_9allocatorIS2_EEE20__throw_length_errorB8ne180100Ev, symObjAddr: 0x8E040, symBinAddr: 0xF7840, symSize: 0x10 }
  - { offset: 0x45FFE0, size: 0x8, addend: 0x0, symName: __ZNK11spirv_cross12CompilerGLSL29location_is_framebuffer_fetchEj, symObjAddr: 0x1480, symBinAddr: 0x7EEE0, symSize: 0x40 }
  - { offset: 0x4601B3, size: 0x8, addend: 0x0, symName: __ZNK11spirv_cross12CompilerGLSL42location_is_non_coherent_framebuffer_fetchEj, symObjAddr: 0x14C0, symBinAddr: 0x7EF20, symSize: 0x40 }
  - { offset: 0x46036B, size: 0x8, addend: 0x0, symName: __ZN11spirv_cross12CompilerGLSL22find_static_extensionsEv, symObjAddr: 0x1500, symBinAddr: 0x7EF60, symSize: 0x1270 }
  - { offset: 0x466FC7, size: 0x8, addend: 0x0, symName: __ZN11spirv_cross12CompilerGLSL26require_extension_internalERKNSt3__112basic_stringIcNS1_11char_traitsIcEENS1_9allocatorIcEEEE, symObjAddr: 0x2770, symBinAddr: 0x801D0, symSize: 0x190 }
  - { offset: 0x4672E7, size: 0x8, addend: 0x0, symName: __ZN11spirv_cross12CompilerGLSL31ray_tracing_khr_fixup_locationsEv, symObjAddr: 0x2AE0, symBinAddr: 0x804A0, symSize: 0xF0 }
  - { offset: 0x467E21, size: 0x8, addend: 0x0, symName: __ZNK11spirv_cross6Bitset3getEj, symObjAddr: 0x29A0, symBinAddr: 0x80360, symSize: 0x140 }
  - { offset: 0x46810B, size: 0x8, addend: 0x0, symName: __ZN11spirv_cross12CompilerGLSL16require_polyfillENS0_8PolyfillEb, symObjAddr: 0x2C40, symBinAddr: 0x80590, symSize: 0x40 }
  - { offset: 0x468632, size: 0x8, addend: 0x0, symName: __ZN11spirv_cross12CompilerGLSL7compileEv, symObjAddr: 0x2C80, symBinAddr: 0x805D0, symSize: 0x400 }
  - { offset: 0x46901B, size: 0x8, addend: 0x0, symName: __ZN11spirv_cross12CompilerGLSL28fixup_anonymous_struct_namesEv, symObjAddr: 0x3080, symBinAddr: 0x809D0, symSize: 0x130 }
  - { offset: 0x4696BB, size: 0x8, addend: 0x0, symName: __ZN11spirv_cross12CompilerGLSL16fixup_type_aliasEv, symObjAddr: 0x31B0, symBinAddr: 0x80B00, symSize: 0x1F0 }
  - { offset: 0x469A67, size: 0x8, addend: 0x0, symName: __ZN11spirv_cross12CompilerGLSL18reorder_type_aliasEv, symObjAddr: 0x33A0, symBinAddr: 0x80CF0, symSize: 0x190 }
  - { offset: 0x469E8C, size: 0x8, addend: 0x0, symName: __ZN11spirv_cross12CompilerGLSL29fixup_image_load_store_accessEv, symObjAddr: 0x3530, symBinAddr: 0x80E80, symSize: 0x110 }
  - { offset: 0x46A051, size: 0x8, addend: 0x0, symName: __ZN11spirv_cross12CompilerGLSL14emit_resourcesEv, symObjAddr: 0x3890, symBinAddr: 0x811E0, symSize: 0x1690 }
  - { offset: 0x46DB81, size: 0x8, addend: 0x0, symName: __ZN11spirv_cross12CompilerGLSL14emit_polyfillsEjb, symObjAddr: 0x7840, symBinAddr: 0x85190, symSize: 0x6E0 }
  - { offset: 0x46E34E, size: 0x8, addend: 0x0, symName: __ZN11spirv_cross12CompilerGLSL13emit_functionERNS_12SPIRFunctionERKNS_6BitsetE, symObjAddr: 0x7F20, symBinAddr: 0x85870, symSize: 0x890 }
  - { offset: 0x46FFBF, size: 0x8, addend: 0x0, symName: __ZN11spirv_cross12CompilerGLSL9statementIJRA12_KcEEEvDpOT_, symObjAddr: 0x8800, symBinAddr: 0x86100, symSize: 0x100 }
  - { offset: 0x4701EF, size: 0x8, addend: 0x0, symName: __ZN11spirv_cross12CompilerGLSL9statementIJRA2_KcEEEvDpOT_, symObjAddr: 0x840E0, symBinAddr: 0xF3CF0, symSize: 0x100 }
  - { offset: 0x47041F, size: 0x8, addend: 0x0, symName: __ZN11spirv_cross12CompilerGLSL9statementIJRA78_KcEEEvDpOT_, symObjAddr: 0x8930, symBinAddr: 0x86230, symSize: 0x100 }
  - { offset: 0x470641, size: 0x8, addend: 0x0, symName: __ZN11spirv_cross12CompilerGLSL9statementIJRA40_KcEEEvDpOT_, symObjAddr: 0x8A30, symBinAddr: 0x86330, symSize: 0x100 }
  - { offset: 0x470871, size: 0x8, addend: 0x0, symName: __ZN11spirv_cross12CompilerGLSL9statementIJRA26_KcEEEvDpOT_, symObjAddr: 0x8B30, symBinAddr: 0x86430, symSize: 0x100 }
  - { offset: 0x470AA1, size: 0x8, addend: 0x0, symName: __ZN11spirv_cross12CompilerGLSL9statementIJRA38_KcEEEvDpOT_, symObjAddr: 0x8C30, symBinAddr: 0x86530, symSize: 0x100 }
  - { offset: 0x4711AF, size: 0x8, addend: 0x0, symName: __ZN11spirv_cross12CompilerGLSL28fixup_anonymous_struct_namesERNSt3__113unordered_setIjNS1_4hashIjEENS1_8equal_toIjEENS1_9allocatorIjEEEERKNS_8SPIRTypeE, symObjAddr: 0x857A0, symBinAddr: 0xF5070, symSize: 0x290 }
  - { offset: 0x47225A, size: 0x8, addend: 0x0, symName: __ZNK11spirv_cross12CompilerGLSL38find_subpass_input_by_attachment_indexEj, symObjAddr: 0x85BD0, symBinAddr: 0xF5300, symSize: 0xF0 }
  - { offset: 0x472437, size: 0x8, addend: 0x0, symName: __ZNK11spirv_cross12CompilerGLSL29find_color_output_by_locationEj, symObjAddr: 0x85CC0, symBinAddr: 0xF53F0, symSize: 0xE0 }
  - { offset: 0x4730B9, size: 0x8, addend: 0x0, symName: __ZN11spirv_cross12CompilerGLSL24replace_fragment_outputsEv, symObjAddr: 0x215D0, symBinAddr: 0x9CA20, symSize: 0x100 }
  - { offset: 0x47331C, size: 0x8, addend: 0x0, symName: __ZN11spirv_cross12CompilerGLSL8emit_plsEv, symObjAddr: 0x21DD0, symBinAddr: 0x9D220, symSize: 0x3D0 }
  - { offset: 0x473D74, size: 0x8, addend: 0x0, symName: __ZN11spirv_cross12CompilerGLSL34fixup_implicit_builtin_block_namesEN3spv14ExecutionModelE, symObjAddr: 0x22FF0, symBinAddr: 0x9E440, symSize: 0x5C0 }
  - { offset: 0x476149, size: 0x8, addend: 0x0, symName: __ZN11spirv_cross12CompilerGLSL31should_force_emit_builtin_blockEN3spv12StorageClassE, symObjAddr: 0x22D90, symBinAddr: 0x9E1E0, symSize: 0x260 }
  - { offset: 0x47656E, size: 0x8, addend: 0x0, symName: __ZN11spirv_cross12CompilerGLSL27emit_declared_builtin_blockEN3spv12StorageClassENS1_14ExecutionModelE, symObjAddr: 0x235B0, symBinAddr: 0x9EA00, symSize: 0x1A20 }
  - { offset: 0x47A7F2, size: 0x8, addend: 0x0, symName: __ZN11spirv_cross12CompilerGLSL9statementIJRPKcRA24_S2_RjRA3_S2_EEEvDpOT_, symObjAddr: 0x26040, symBinAddr: 0xA1440, symSize: 0x180 }
  - { offset: 0x47AC00, size: 0x8, addend: 0x0, symName: __ZN11spirv_cross12CompilerGLSL9statementIJRA1_KcEEEvDpOT_, symObjAddr: 0xF9B0, symBinAddr: 0x8CC80, symSize: 0x100 }
  - { offset: 0x47AE30, size: 0x8, addend: 0x0, symName: __ZN11spirv_cross12CompilerGLSL9statementIJRA23_KcEEEvDpOT_, symObjAddr: 0x10950, symBinAddr: 0x8D560, symSize: 0x100 }
  - { offset: 0x47B060, size: 0x8, addend: 0x0, symName: __ZN11spirv_cross12CompilerGLSL9statementIJRA9_KcNSt3__112basic_stringIcNS5_11char_traitsIcEENS5_9allocatorIcEEEERA2_S2_EEEvDpOT_, symObjAddr: 0x261C0, symBinAddr: 0xA15C0, symSize: 0x160 }
  - { offset: 0x47B41B, size: 0x8, addend: 0x0, symName: __ZN11spirv_cross12CompilerGLSL13emit_constantERKNS_12SPIRConstantE, symObjAddr: 0x1D3D0, symBinAddr: 0x98890, symSize: 0x360 }
  - { offset: 0x47BDDF, size: 0x8, addend: 0x0, symName: __ZN11spirv_cross12CompilerGLSL31emit_specialization_constant_opERKNS_14SPIRConstantOpE, symObjAddr: 0x1D040, symBinAddr: 0x98500, symSize: 0x160 }
  - { offset: 0x47C721, size: 0x8, addend: 0x0, symName: __ZNK11spirv_cross12CompilerGLSL24type_can_zero_initializeERKNS_8SPIRTypeE, symObjAddr: 0x26520, symBinAddr: 0xA1720, symSize: 0xC0 }
  - { offset: 0x47C935, size: 0x8, addend: 0x0, symName: __ZN11spirv_cross12CompilerGLSL9statementIJNSt3__112basic_stringIcNS2_11char_traitsIcEENS2_9allocatorIcEEEERS8_RA2_KcEEEvDpOT_, symObjAddr: 0x26780, symBinAddr: 0xA17E0, symSize: 0x170 }
  - { offset: 0x47CD41, size: 0x8, addend: 0x0, symName: __ZN11spirv_cross12CompilerGLSL11emit_structERNS_8SPIRTypeE, symObjAddr: 0x11530, symBinAddr: 0x8E140, symSize: 0x4D0 }
  - { offset: 0x47DCA5, size: 0x8, addend: 0x0, symName: __ZN11spirv_cross12CompilerGLSL27emit_buffer_reference_blockEjb, symObjAddr: 0x18080, symBinAddr: 0x93BC0, symSize: 0x1250 }
  - { offset: 0x482758, size: 0x8, addend: 0x0, symName: __ZN11spirv_cross12CompilerGLSL9statementIJRA7_KcEEEvDpOT_, symObjAddr: 0xCF50, symBinAddr: 0x8A220, symSize: 0x100 }
  - { offset: 0x482988, size: 0x8, addend: 0x0, symName: __ZN11spirv_cross12CompilerGLSL9statementIJRA37_KcEEEvDpOT_, symObjAddr: 0xD050, symBinAddr: 0x8A320, symSize: 0x100 }
  - { offset: 0x482BB8, size: 0x8, addend: 0x0, symName: __ZN11spirv_cross12CompilerGLSL9statementIJRA48_KcEEEvDpOT_, symObjAddr: 0xDE50, symBinAddr: 0x8B120, symSize: 0x100 }
  - { offset: 0x482DE8, size: 0x8, addend: 0x0, symName: __ZN11spirv_cross12CompilerGLSL9statementIJRA6_KcEEEvDpOT_, symObjAddr: 0xD350, symBinAddr: 0x8A620, symSize: 0x100 }
  - { offset: 0x483018, size: 0x8, addend: 0x0, symName: __ZN11spirv_cross12CompilerGLSL9statementIJRA36_KcEEEvDpOT_, symObjAddr: 0x10D50, symBinAddr: 0x8D960, symSize: 0x100 }
  - { offset: 0x48322F, size: 0x8, addend: 0x0, symName: __ZN11spirv_cross12CompilerGLSL20emit_interface_blockERKNS_12SPIRVariableE, symObjAddr: 0x1B6C0, symBinAddr: 0x96D10, symSize: 0xDA0 }
  - { offset: 0x486AF5, size: 0x8, addend: 0x0, symName: __ZN11spirv_cross12CompilerGLSL9statementIJRA55_KcEEEvDpOT_, symObjAddr: 0x2CBF0, symBinAddr: 0xA7AF0, symSize: 0x100 }
  - { offset: 0x486D25, size: 0x8, addend: 0x0, symName: __ZN11spirv_cross12CompilerGLSL9statementIJRA52_KcEEEvDpOT_, symObjAddr: 0xE2F0, symBinAddr: 0x8B5C0, symSize: 0x100 }
  - { offset: 0x486F76, size: 0x8, addend: 0x0, symName: __ZN11spirv_cross12CompilerGLSL17add_resource_nameEj, symObjAddr: 0x11A00, symBinAddr: 0x8E610, symSize: 0xC0 }
  - { offset: 0x48718B, size: 0x8, addend: 0x0, symName: __ZN11spirv_cross12CompilerGLSL20build_workgroup_sizeERNS_11SmallVectorINSt3__112basic_stringIcNS2_11char_traitsIcEENS2_9allocatorIcEEEELm8EEERKNS_22SpecializationConstantESD_SD_, symObjAddr: 0x8EF0, symBinAddr: 0x866C0, symSize: 0x3B0 }
  - { offset: 0x4878FE, size: 0x8, addend: 0x0, symName: __ZN11spirv_cross12CompilerGLSL9statementIJRA8_KcNSt3__112basic_stringIcNS5_11char_traitsIcEENS5_9allocatorIcEEEERA6_S2_EEEvDpOT_, symObjAddr: 0x11050, symBinAddr: 0x8DC60, symSize: 0x160 }
  - { offset: 0x4880C4, size: 0x8, addend: 0x0, symName: __ZNK11spirv_cross12CompilerGLSL27ShaderSubgroupSupportHelper7resolveEv, symObjAddr: 0xEF50, symBinAddr: 0x8C220, symSize: 0xA00 }
  - { offset: 0x489FF7, size: 0x8, addend: 0x0, symName: __ZN11spirv_cross12CompilerGLSL9statementIJPKcRA10_S2_RS3_RA2_S2_EEEvDpOT_, symObjAddr: 0x2BB20, symBinAddr: 0xA6A20, symSize: 0x180 }
  - { offset: 0x48A449, size: 0x8, addend: 0x0, symName: __ZN11spirv_cross12CompilerGLSL9statementIJRA63_KcEEEvDpOT_, symObjAddr: 0xD750, symBinAddr: 0x8AA20, symSize: 0x100 }
  - { offset: 0x48A679, size: 0x8, addend: 0x0, symName: __ZN11spirv_cross12CompilerGLSL9statementIJRA43_KcEEEvDpOT_, symObjAddr: 0x10F50, symBinAddr: 0x8DB60, symSize: 0x100 }
  - { offset: 0x48A8A9, size: 0x8, addend: 0x0, symName: __ZN11spirv_cross12CompilerGLSL9statementIJRA50_KcEEEvDpOT_, symObjAddr: 0xD650, symBinAddr: 0x8A920, symSize: 0x100 }
  - { offset: 0x48AAD9, size: 0x8, addend: 0x0, symName: __ZN11spirv_cross12CompilerGLSL9statementIJRA57_KcEEEvDpOT_, symObjAddr: 0x2BCA0, symBinAddr: 0xA6BA0, symSize: 0x100 }
  - { offset: 0x48AD09, size: 0x8, addend: 0x0, symName: __ZN11spirv_cross12CompilerGLSL9statementIJRA34_KcEEEvDpOT_, symObjAddr: 0x2BDA0, symBinAddr: 0xA6CA0, symSize: 0x100 }
  - { offset: 0x48AF39, size: 0x8, addend: 0x0, symName: __ZN11spirv_cross12CompilerGLSL9statementIJRPKcRA25_S2_S4_RA50_S2_EEEvDpOT_, symObjAddr: 0x2C1A0, symBinAddr: 0xA70A0, symSize: 0x180 }
  - { offset: 0x48B3A4, size: 0x8, addend: 0x0, symName: __ZN11spirv_cross12CompilerGLSL9statementIJRPKcRA20_S2_S4_RA58_S2_EEEvDpOT_, symObjAddr: 0x2C320, symBinAddr: 0xA7220, symSize: 0x180 }
  - { offset: 0x48B7F6, size: 0x8, addend: 0x0, symName: __ZN11spirv_cross12CompilerGLSL9statementIJRPKcRA25_S2_S4_RA83_S2_EEEvDpOT_, symObjAddr: 0x2BEA0, symBinAddr: 0xA6DA0, symSize: 0x180 }
  - { offset: 0x48BC48, size: 0x8, addend: 0x0, symName: __ZN11spirv_cross12CompilerGLSL9statementIJRPKcRA20_S2_S4_RA65_S2_EEEvDpOT_, symObjAddr: 0x2C020, symBinAddr: 0xA6F20, symSize: 0x180 }
  - { offset: 0x48C09A, size: 0x8, addend: 0x0, symName: __ZN11spirv_cross12CompilerGLSL9statementIJRA69_KcEEEvDpOT_, symObjAddr: 0xD850, symBinAddr: 0x8AB20, symSize: 0x100 }
  - { offset: 0x48C2CA, size: 0x8, addend: 0x0, symName: __ZN11spirv_cross12CompilerGLSL9statementIJRA68_KcEEEvDpOT_, symObjAddr: 0x2C4A0, symBinAddr: 0xA73A0, symSize: 0x100 }
  - { offset: 0x48C4FA, size: 0x8, addend: 0x0, symName: __ZN11spirv_cross12CompilerGLSL9statementIJRA77_KcEEEvDpOT_, symObjAddr: 0xE8F0, symBinAddr: 0x8BBC0, symSize: 0x100 }
  - { offset: 0x48C72A, size: 0x8, addend: 0x0, symName: __ZN11spirv_cross12CompilerGLSL9statementIJRA66_KcEEEvDpOT_, symObjAddr: 0xD950, symBinAddr: 0x8AC20, symSize: 0x100 }
  - { offset: 0x48C95A, size: 0x8, addend: 0x0, symName: __ZN11spirv_cross12CompilerGLSL9statementIJRA111_KcEEEvDpOT_, symObjAddr: 0x2C7A0, symBinAddr: 0xA76A0, symSize: 0x100 }
  - { offset: 0x48CB71, size: 0x8, addend: 0x0, symName: __ZN11spirv_cross12CompilerGLSL9statementIJRA58_KcEEEvDpOT_, symObjAddr: 0xDA50, symBinAddr: 0x8AD20, symSize: 0x100 }
  - { offset: 0x48CDA1, size: 0x8, addend: 0x0, symName: __ZN11spirv_cross12CompilerGLSL9statementIJRA61_KcEEEvDpOT_, symObjAddr: 0x10E50, symBinAddr: 0x8DA60, symSize: 0x100 }
  - { offset: 0x48CFD1, size: 0x8, addend: 0x0, symName: __ZN11spirv_cross12CompilerGLSL9statementIJRA60_KcEEEvDpOT_, symObjAddr: 0x2C5A0, symBinAddr: 0xA74A0, symSize: 0x100 }
  - { offset: 0x48D201, size: 0x8, addend: 0x0, symName: __ZN11spirv_cross12CompilerGLSL9statementIJRA71_KcEEEvDpOT_, symObjAddr: 0x2C6A0, symBinAddr: 0xA75A0, symSize: 0x100 }
  - { offset: 0x48D423, size: 0x8, addend: 0x0, symName: __ZN11spirv_cross12CompilerGLSL9statementIJRA160_KcEEEvDpOT_, symObjAddr: 0x2C8A0, symBinAddr: 0xA77A0, symSize: 0x100 }
  - { offset: 0x48D653, size: 0x8, addend: 0x0, symName: __ZN11spirv_cross12CompilerGLSL9statementIJRA44_KcRPS2_RA2_S2_EEEvDpOT_, symObjAddr: 0x2C9A0, symBinAddr: 0xA78A0, symSize: 0x150 }
  - { offset: 0x48D9E5, size: 0x8, addend: 0x0, symName: __ZN11spirv_cross12CompilerGLSL9statementIJRA85_KcEEEvDpOT_, symObjAddr: 0x2CAF0, symBinAddr: 0xA79F0, symSize: 0x100 }
  - { offset: 0x48DC15, size: 0x8, addend: 0x0, symName: __ZN11spirv_cross12CompilerGLSL9statementIJRA21_KcEEEvDpOT_, symObjAddr: 0x10B50, symBinAddr: 0x8D760, symSize: 0x100 }
  - { offset: 0x48DE45, size: 0x8, addend: 0x0, symName: __ZN11spirv_cross12CompilerGLSL9statementIJRA41_KcEEEvDpOT_, symObjAddr: 0xDD50, symBinAddr: 0x8B020, symSize: 0x100 }
  - { offset: 0x48E075, size: 0x8, addend: 0x0, symName: __ZN11spirv_cross12CompilerGLSL9statementIJRA45_KcEEEvDpOT_, symObjAddr: 0xD150, symBinAddr: 0x8A420, symSize: 0x100 }
  - { offset: 0x48E2A5, size: 0x8, addend: 0x0, symName: __ZN11spirv_cross12CompilerGLSL9statementIJRA62_KcEEEvDpOT_, symObjAddr: 0x2CCF0, symBinAddr: 0xA7BF0, symSize: 0x100 }
  - { offset: 0x48E4BC, size: 0x8, addend: 0x0, symName: __ZN11spirv_cross12CompilerGLSL9statementIJRA33_KcEEEvDpOT_, symObjAddr: 0xD250, symBinAddr: 0x8A520, symSize: 0x100 }
  - { offset: 0x48E6EC, size: 0x8, addend: 0x0, symName: __ZN11spirv_cross12CompilerGLSL9statementIJRA18_KcEEEvDpOT_, symObjAddr: 0x25730, symBinAddr: 0xA0B80, symSize: 0x100 }
  - { offset: 0x48E903, size: 0x8, addend: 0x0, symName: __ZN11spirv_cross12CompilerGLSL9statementIJRA24_KcEEEvDpOT_, symObjAddr: 0x25190, symBinAddr: 0xA05E0, symSize: 0x100 }
  - { offset: 0x48EB33, size: 0x8, addend: 0x0, symName: __ZN11spirv_cross12CompilerGLSL9statementIJRA30_KcEEEvDpOT_, symObjAddr: 0x2B840, symBinAddr: 0xA6740, symSize: 0x100 }
  - { offset: 0x48ED63, size: 0x8, addend: 0x0, symName: __ZN11spirv_cross12CompilerGLSL9statementIJRA54_KcEEEvDpOT_, symObjAddr: 0xEBF0, symBinAddr: 0x8BEC0, symSize: 0x100 }
  - { offset: 0x48EF93, size: 0x8, addend: 0x0, symName: __ZN11spirv_cross12CompilerGLSL9statementIJRA29_KcEEEvDpOT_, symObjAddr: 0x227A0, symBinAddr: 0x9DBF0, symSize: 0x100 }
  - { offset: 0x48F1BA, size: 0x8, addend: 0x0, symName: '__ZZN11spirv_cross12CompilerGLSL26emit_extension_workaroundsEN3spv14ExecutionModelEENK3$_0clENS0_27ShaderSubgroupSupportHelper7FeatureENSt3__112basic_stringIcNS6_11char_traitsIcEENS6_9allocatorIcEEEENS1_2OpENS1_14GroupOperationE', symObjAddr: 0x2CDF0, symBinAddr: 0xA7CF0, symSize: 0x3C0 }
  - { offset: 0x48FC9A, size: 0x8, addend: 0x0, symName: __ZN11spirv_cross12CompilerGLSL9statementIJRA7_KcNSt3__112basic_stringIcNS5_11char_traitsIcEENS5_9allocatorIcEEEERA30_S2_SB_RA24_S2_EEEvDpOT_, symObjAddr: 0x2D1B0, symBinAddr: 0xA80B0, symSize: 0x1D0 }
  - { offset: 0x490225, size: 0x8, addend: 0x0, symName: __ZN11spirv_cross12CompilerGLSL9statementIJRA9_KcNSt3__112basic_stringIcNS5_11char_traitsIcEENS5_9allocatorIcEEEERA34_S2_SB_RA24_S2_EEEvDpOT_, symObjAddr: 0x2D380, symBinAddr: 0xA8280, symSize: 0x1D0 }
  - { offset: 0x4907B0, size: 0x8, addend: 0x0, symName: __ZN11spirv_cross12CompilerGLSL9statementIJNSt3__112basic_stringIcNS2_11char_traitsIcEENS2_9allocatorIcEEEERA24_KcS8_SB_EEEvDpOT_, symObjAddr: 0x2D550, symBinAddr: 0xA8450, symSize: 0x1A0 }
  - { offset: 0x490C7C, size: 0x8, addend: 0x0, symName: __ZN11spirv_cross12CompilerGLSL9statementIJRPKcRA18_S2_S4_RA2_S2_S4_RA8_S2_EEEvDpOT_, symObjAddr: 0x2D6F0, symBinAddr: 0xA85F0, symSize: 0x130 }
  - { offset: 0x490F00, size: 0x8, addend: 0x0, symName: __ZN11spirv_cross12CompilerGLSL9statementIJRA49_KcEEEvDpOT_, symObjAddr: 0xEAF0, symBinAddr: 0x8BDC0, symSize: 0x100 }
  - { offset: 0x491130, size: 0x8, addend: 0x0, symName: __ZN11spirv_cross12CompilerGLSL9statementIJRA94_KcEEEvDpOT_, symObjAddr: 0x2D820, symBinAddr: 0xA8720, symSize: 0x100 }
  - { offset: 0x491360, size: 0x8, addend: 0x0, symName: __ZN11spirv_cross12CompilerGLSL9statementIJRA157_KcEEEvDpOT_, symObjAddr: 0x2D920, symBinAddr: 0xA8820, symSize: 0x100 }
  - { offset: 0x491577, size: 0x8, addend: 0x0, symName: __ZN11spirv_cross12CompilerGLSL9statementIJRPKcRA21_S2_S4_RA2_S2_S4_RA8_S2_EEEvDpOT_, symObjAddr: 0x2DA20, symBinAddr: 0xA8920, symSize: 0x130 }
  - { offset: 0x4917FB, size: 0x8, addend: 0x0, symName: __ZN11spirv_cross12CompilerGLSL9statementIJRA46_KcEEEvDpOT_, symObjAddr: 0x10C50, symBinAddr: 0x8D860, symSize: 0x100 }
  - { offset: 0x491A2B, size: 0x8, addend: 0x0, symName: __ZN11spirv_cross12CompilerGLSL9statementIJRA141_KcEEEvDpOT_, symObjAddr: 0x2DB50, symBinAddr: 0xA8A50, symSize: 0x100 }
  - { offset: 0x491C5C, size: 0x8, addend: 0x0, symName: __ZN11spirv_cross12CompilerGLSL9statementIJRA740_KcEEEvDpOT_, symObjAddr: 0x2DC50, symBinAddr: 0xA8B50, symSize: 0x100 }
  - { offset: 0x491E8C, size: 0x8, addend: 0x0, symName: __ZN11spirv_cross12CompilerGLSL9statementIJRPKcRA16_S2_S4_RA2_S2_S4_RA8_S2_EEEvDpOT_, symObjAddr: 0x2DD50, symBinAddr: 0xA8C50, symSize: 0x130 }
  - { offset: 0x492110, size: 0x8, addend: 0x0, symName: __ZN11spirv_cross12CompilerGLSL9statementIJRA101_KcEEEvDpOT_, symObjAddr: 0x2DE80, symBinAddr: 0xA8D80, symSize: 0x100 }
  - { offset: 0x492340, size: 0x8, addend: 0x0, symName: __ZN11spirv_cross12CompilerGLSL9statementIJRPKcRA132_S2_EEEvDpOT_, symObjAddr: 0x2DF80, symBinAddr: 0xA8E80, symSize: 0x130 }
  - { offset: 0x492621, size: 0x8, addend: 0x0, symName: __ZN11spirv_cross12CompilerGLSL9statementIJRA288_KcEEEvDpOT_, symObjAddr: 0x2E0B0, symBinAddr: 0xA8FB0, symSize: 0x100 }
  - { offset: 0x492852, size: 0x8, addend: 0x0, symName: __ZN11spirv_cross12CompilerGLSL9statementIJRPKcRA731_S2_EEEvDpOT_, symObjAddr: 0x2E1B0, symBinAddr: 0xA90B0, symSize: 0x130 }
  - { offset: 0x492B33, size: 0x8, addend: 0x0, symName: __ZN11spirv_cross12CompilerGLSL9statementIJRA2208_KcEEEvDpOT_, symObjAddr: 0x2E2E0, symBinAddr: 0xA91E0, symSize: 0x100 }
  - { offset: 0x4938A2, size: 0x8, addend: 0x0, symName: __ZN11spirv_cross12CompilerGLSL19emit_line_directiveEjj, symObjAddr: 0x75170, symBinAddr: 0xE68E0, symSize: 0x110 }
  - { offset: 0x493EDF, size: 0x8, addend: 0x0, symName: __ZN11spirv_cross12CompilerGLSL19constant_expressionERKNS_12SPIRConstantEbb, symObjAddr: 0x1D880, symBinAddr: 0x98D40, symSize: 0x1010 }
  - { offset: 0x497332, size: 0x8, addend: 0x0, symName: __ZN11spirv_cross12CompilerGLSL9statementIJNSt3__112basic_stringIcNS2_11char_traitsIcEENS2_9allocatorIcEEEERA4_KcS8_RA2_S9_EEEvDpOT_, symObjAddr: 0x7B680, symBinAddr: 0xEBBE0, symSize: 0x1A0 }
  - { offset: 0x4977FE, size: 0x8, addend: 0x0, symName: __ZN11spirv_cross12CompilerGLSL23add_local_variable_nameEj, symObjAddr: 0x3E640, symBinAddr: 0xB7B00, symSize: 0xC0 }
  - { offset: 0x497A13, size: 0x8, addend: 0x0, symName: __ZN11spirv_cross12CompilerGLSL9statementIJNSt3__112basic_stringIcNS2_11char_traitsIcEENS2_9allocatorIcEEEERA2_KcEEEvDpOT_, symObjAddr: 0x221A0, symBinAddr: 0x9D5F0, symSize: 0x140 }
  - { offset: 0x497DA4, size: 0x8, addend: 0x0, symName: __ZN11spirv_cross12CompilerGLSL16emit_block_chainERNS_9SPIRBlockE, symObjAddr: 0x7B9C0, symBinAddr: 0xEBD80, symSize: 0x3B80 }
  - { offset: 0x4A0A79, size: 0x8, addend: 0x0, symName: __ZN11spirv_cross12CompilerGLSL11begin_scopeEv, symObjAddr: 0x8900, symBinAddr: 0x86200, symSize: 0x30 }
  - { offset: 0x4A0B63, size: 0x8, addend: 0x0, symName: __ZN11spirv_cross12CompilerGLSL9end_scopeEv, symObjAddr: 0x8D30, symBinAddr: 0x86630, symSize: 0x70 }
  - { offset: 0x4A0FC7, size: 0x8, addend: 0x0, symName: __ZN11spirv_cross12CompilerGLSL18get_partial_sourceEv, symObjAddr: 0x8ED0, symBinAddr: 0x866A0, symSize: 0x20 }
  - { offset: 0x4A147D, size: 0x8, addend: 0x0, symName: __ZN11spirv_cross12CompilerGLSL24request_subgroup_featureENS0_27ShaderSubgroupSupportHelper7FeatureE, symObjAddr: 0x9940, symBinAddr: 0x86C10, symSize: 0x140 }
  - { offset: 0x4A1C7E, size: 0x8, addend: 0x0, symName: __ZN11spirv_cross12CompilerGLSL27ShaderSubgroupSupportHelper27get_feature_dependency_maskENS1_7FeatureE, symObjAddr: 0x85F70, symBinAddr: 0xF56A0, symSize: 0x1D0 }
  - { offset: 0x4A2200, size: 0x8, addend: 0x0, symName: __ZNK11spirv_cross12CompilerGLSL27ShaderSubgroupSupportHelper20is_feature_requestedENS1_7FeatureE, symObjAddr: 0x9AC0, symBinAddr: 0x86D90, symSize: 0x10 }
  - { offset: 0x4A2229, size: 0x8, addend: 0x0, symName: __ZN11spirv_cross12CompilerGLSL27ShaderSubgroupSupportHelper15request_featureENS1_7FeatureE, symObjAddr: 0x9AD0, symBinAddr: 0x86DA0, symSize: 0x20 }
  - { offset: 0x4A231F, size: 0x8, addend: 0x0, symName: __ZN11spirv_cross12CompilerGLSL11emit_headerEv, symObjAddr: 0x9AF0, symBinAddr: 0x86DC0, symSize: 0x3120 }
  - { offset: 0x4A85DA, size: 0x8, addend: 0x0, symName: __ZN11spirv_cross12CompilerGLSL9statementIJRA10_KcRjPS2_EEEvDpOT_, symObjAddr: 0xCC10, symBinAddr: 0x89EE0, symSize: 0x140 }
  - { offset: 0x4A892A, size: 0x8, addend: 0x0, symName: __ZN11spirv_cross12CompilerGLSL9statementIJRA39_KcEEEvDpOT_, symObjAddr: 0xCD50, symBinAddr: 0x8A020, symSize: 0x100 }
  - { offset: 0x4A8B5A, size: 0x8, addend: 0x0, symName: __ZN11spirv_cross12CompilerGLSL9statementIJRA53_KcEEEvDpOT_, symObjAddr: 0xCE50, symBinAddr: 0x8A120, symSize: 0x100 }
  - { offset: 0x4A8D8A, size: 0x8, addend: 0x0, symName: __ZN11spirv_cross12CompilerGLSL9statementIJRA12_KcRNSt3__112basic_stringIcNS5_11char_traitsIcEENS5_9allocatorIcEEEERA11_S2_EEEvDpOT_, symObjAddr: 0xEDF0, symBinAddr: 0x8C0C0, symSize: 0x160 }
  - { offset: 0x4A915E, size: 0x8, addend: 0x0, symName: __ZN11spirv_cross12CompilerGLSL9statementIJRA51_KcEEEvDpOT_, symObjAddr: 0xD450, symBinAddr: 0x8A720, symSize: 0x100 }
  - { offset: 0x4A938E, size: 0x8, addend: 0x0, symName: __ZN11spirv_cross12CompilerGLSL9statementIJRA42_KcEEEvDpOT_, symObjAddr: 0xD550, symBinAddr: 0x8A820, symSize: 0x100 }
  - { offset: 0x4A95BE, size: 0x8, addend: 0x0, symName: __ZN11spirv_cross12CompilerGLSL9statementIJRA67_KcEEEvDpOT_, symObjAddr: 0xDB50, symBinAddr: 0x8AE20, symSize: 0x100 }
  - { offset: 0x4A97EE, size: 0x8, addend: 0x0, symName: __ZN11spirv_cross12CompilerGLSL9statementIJRA76_KcEEEvDpOT_, symObjAddr: 0xE6F0, symBinAddr: 0x8B9C0, symSize: 0x100 }
  - { offset: 0x4A9A1E, size: 0x8, addend: 0x0, symName: __ZN11spirv_cross12CompilerGLSL9statementIJRA72_KcEEEvDpOT_, symObjAddr: 0xE7F0, symBinAddr: 0x8BAC0, symSize: 0x100 }
  - { offset: 0x4A9C35, size: 0x8, addend: 0x0, symName: __ZN11spirv_cross12CompilerGLSL9statementIJRA8_KcRNSt3__112basic_stringIcNS5_11char_traitsIcEENS5_9allocatorIcEEEEEEEvDpOT_, symObjAddr: 0xDF50, symBinAddr: 0x8B220, symSize: 0x140 }
  - { offset: 0x4A9F3E, size: 0x8, addend: 0x0, symName: __ZN11spirv_cross12CompilerGLSL9statementIJRA12_KcRNSt3__112basic_stringIcNS5_11char_traitsIcEENS5_9allocatorIcEEEERA10_S2_EEEvDpOT_, symObjAddr: 0xE090, symBinAddr: 0x8B360, symSize: 0x160 }
  - { offset: 0x4AA312, size: 0x8, addend: 0x0, symName: __ZN11spirv_cross12CompilerGLSL9statementIJRA59_KcEEEvDpOT_, symObjAddr: 0xDC50, symBinAddr: 0x8AF20, symSize: 0x100 }
  - { offset: 0x4AA542, size: 0x8, addend: 0x0, symName: __ZN11spirv_cross12CompilerGLSL9statementIJRA73_KcEEEvDpOT_, symObjAddr: 0xE9F0, symBinAddr: 0x8BCC0, symSize: 0x100 }
  - { offset: 0x4AA772, size: 0x8, addend: 0x0, symName: __ZN11spirv_cross12CompilerGLSL9statementIJRA82_KcEEEvDpOT_, symObjAddr: 0xECF0, symBinAddr: 0x8BFC0, symSize: 0x100 }
  - { offset: 0x4AA989, size: 0x8, addend: 0x0, symName: __ZN11spirv_cross12CompilerGLSL9statementIJRA44_KcEEEvDpOT_, symObjAddr: 0xE1F0, symBinAddr: 0x8B4C0, symSize: 0x100 }
  - { offset: 0x4AABB9, size: 0x8, addend: 0x0, symName: __ZN11spirv_cross12CompilerGLSL9statementIJRA28_KcEEEvDpOT_, symObjAddr: 0xE3F0, symBinAddr: 0x8B6C0, symSize: 0x100 }
  - { offset: 0x4AADE9, size: 0x8, addend: 0x0, symName: __ZN11spirv_cross12CompilerGLSL9statementIJRA27_KcEEEvDpOT_, symObjAddr: 0xE4F0, symBinAddr: 0x8B7C0, symSize: 0x100 }
  - { offset: 0x4AB000, size: 0x8, addend: 0x0, symName: __ZN11spirv_cross12CompilerGLSL9statementIJRA25_KcEEEvDpOT_, symObjAddr: 0xE5F0, symBinAddr: 0x8B8C0, symSize: 0x100 }
  - { offset: 0x4AB217, size: 0x8, addend: 0x0, symName: __ZN11spirv_cross11SmallVectorINSt3__112basic_stringIcNS1_11char_traitsIcEENS1_9allocatorIcEEEELm8EEC1IPKcEEPKT_SE_, symObjAddr: 0xB9C40, symBinAddr: 0x1056B0, symSize: 0x150 }
  - { offset: 0x4AB7D2, size: 0x8, addend: 0x0, symName: __ZN11spirv_cross12CompilerGLSL9statementIJPKcRA10_S2_RS3_RA2_S2_S3_S6_EEEvDpOT_, symObjAddr: 0xFB80, symBinAddr: 0x8CE50, symSize: 0x130 }
  - { offset: 0x4ABA3D, size: 0x8, addend: 0x0, symName: __ZN11spirv_cross12CompilerGLSL9statementIJRA12_KcRKNSt3__112basic_stringIcNS5_11char_traitsIcEENS5_9allocatorIcEEEERA10_S2_EEEvDpOT_, symObjAddr: 0xFCB0, symBinAddr: 0x8CF80, symSize: 0x160 }
  - { offset: 0x4ABDF8, size: 0x8, addend: 0x0, symName: __ZN11spirv_cross12CompilerGLSL9statementIJRA12_KcRPS2_RA11_S2_EEEvDpOT_, symObjAddr: 0xFE10, symBinAddr: 0x8D0E0, symSize: 0x150 }
  - { offset: 0x4AC18A, size: 0x8, addend: 0x0, symName: __ZN11spirv_cross12CompilerGLSL9statementIJRA70_KcEEEvDpOT_, symObjAddr: 0x10000, symBinAddr: 0x8D250, symSize: 0x100 }
  - { offset: 0x4AC3A1, size: 0x8, addend: 0x0, symName: __ZN11spirv_cross12CompilerGLSL9statementIJRNSt3__112basic_stringIcNS2_11char_traitsIcEENS2_9allocatorIcEEEEEEEvDpOT_, symObjAddr: 0x10100, symBinAddr: 0x8D350, symSize: 0x110 }
  - { offset: 0x4AC61C, size: 0x8, addend: 0x0, symName: __ZN11spirv_cross12CompilerGLSL9statementIJRA22_KcEEEvDpOT_, symObjAddr: 0x10850, symBinAddr: 0x8D460, symSize: 0x100 }
  - { offset: 0x4AC833, size: 0x8, addend: 0x0, symName: __ZN11spirv_cross12CompilerGLSL9statementIJRA20_KcEEEvDpOT_, symObjAddr: 0x10A50, symBinAddr: 0x8D660, symSize: 0x100 }
  - { offset: 0x4ACA4A, size: 0x8, addend: 0x0, symName: __ZN11spirv_cross12CompilerGLSL9statementIJRA8_KcNSt3__112basic_stringIcNS5_11char_traitsIcEENS5_9allocatorIcEEEERA7_S2_EEEvDpOT_, symObjAddr: 0x113B0, symBinAddr: 0x8DFC0, symSize: 0x160 }
  - { offset: 0x4AD97C, size: 0x8, addend: 0x0, symName: __ZNSt3__112__hash_tableIjNS_4hashIjEENS_8equal_toIjEENS_9allocatorIjEEE21__emplace_unique_implIJRN11spirv_cross12CompilerGLSL27ShaderSubgroupSupportHelper9CandidateEEEENS_4pairINS_15__hash_iteratorIPNS_11__hash_nodeIjPvEEEEbEEDpOT_, symObjAddr: 0xB9D90, symBinAddr: 0x105800, symSize: 0x180 }
  - { offset: 0x4ADFCF, size: 0x8, addend: 0x0, symName: __ZN11spirv_cross12CompilerGLSL27ShaderSubgroupSupportHelper26get_candidates_for_featureENS1_7FeatureERKNS1_6ResultE, symObjAddr: 0xF950, symBinAddr: 0x8CC20, symSize: 0x60 }
  - { offset: 0x4AE146, size: 0x8, addend: 0x0, symName: __ZN11spirv_cross12CompilerGLSL27ShaderSubgroupSupportHelper26get_candidates_for_featureENS1_7FeatureE, symObjAddr: 0x861A0, symBinAddr: 0xF58D0, symSize: 0x200 }
  - { offset: 0x4AE779, size: 0x8, addend: 0x0, symName: __ZN11spirv_cross12CompilerGLSL27ShaderSubgroupSupportHelper38get_extra_required_extension_predicateENS1_9CandidateE, symObjAddr: 0xFAB0, symBinAddr: 0x8CD80, symSize: 0x30 }
  - { offset: 0x4AE7B1, size: 0x8, addend: 0x0, symName: __ZN11spirv_cross12CompilerGLSL27ShaderSubgroupSupportHelper34get_extra_required_extension_namesENS1_9CandidateE, symObjAddr: 0xFAE0, symBinAddr: 0x8CDB0, symSize: 0xA0 }
  - { offset: 0x4AE8BA, size: 0x8, addend: 0x0, symName: __ZN11spirv_cross12CompilerGLSL15statement_innerIPKcJRA10_S2_RS3_RA2_S2_S3_S6_EEEvOT_DpOT0_, symObjAddr: 0x91F60, symBinAddr: 0xF7D30, symSize: 0x100 }
  - { offset: 0x4AF0F3, size: 0x8, addend: 0x0, symName: __ZN11spirv_cross12CompilerGLSL13type_is_emptyERKNS_8SPIRTypeE, symObjAddr: 0x11510, symBinAddr: 0x8E120, symSize: 0x20 }
  - { offset: 0x4AF272, size: 0x8, addend: 0x0, symName: __ZN11spirv_cross12CompilerGLSL9statementIJPKcRNSt3__112basic_stringIcNS4_11char_traitsIcEENS4_9allocatorIcEEEEEEEvDpOT_, symObjAddr: 0x11AC0, symBinAddr: 0x8E6D0, symSize: 0x130 }
  - { offset: 0x4AF57D, size: 0x8, addend: 0x0, symName: __ZN11spirv_cross12CompilerGLSL9statementIJRA3_KcEEEvDpOT_, symObjAddr: 0x831A0, symBinAddr: 0xF31B0, symSize: 0x100 }
  - { offset: 0x4AF83D, size: 0x8, addend: 0x0, symName: __ZN11spirv_cross12CompilerGLSL15add_member_nameERNS_8SPIRTypeEj, symObjAddr: 0x11BF0, symBinAddr: 0x8E800, symSize: 0xA0 }
  - { offset: 0x4AF957, size: 0x8, addend: 0x0, symName: __ZN11spirv_cross12CompilerGLSL14end_scope_declEv, symObjAddr: 0x11C90, symBinAddr: 0x8E8A0, symSize: 0x70 }
  - { offset: 0x4AF9CF, size: 0x8, addend: 0x0, symName: __ZN11spirv_cross12CompilerGLSL27to_interpolation_qualifiersERKNS_6BitsetE, symObjAddr: 0x11D00, symBinAddr: 0x8E910, symSize: 0x7A0 }
  - { offset: 0x4B191A, size: 0x8, addend: 0x0, symName: __ZN11spirv_cross12CompilerGLSL17layout_for_memberERKNS_8SPIRTypeEj, symObjAddr: 0x124A0, symBinAddr: 0x8F0B0, symSize: 0x680 }
  - { offset: 0x4B31AF, size: 0x8, addend: 0x0, symName: __ZN11spirv_cross12CompilerGLSL19can_use_io_locationEN3spv12StorageClassEb, symObjAddr: 0x12B20, symBinAddr: 0x8F730, symSize: 0x100 }
  - { offset: 0x4B3234, size: 0x8, addend: 0x0, symName: __ZNSt3__112basic_stringIcNS_11char_traitsIcEENS_9allocatorIcEEEpLB8ne180100ERKS5_, symObjAddr: 0x12F40, symBinAddr: 0x8F830, symSize: 0x30 }
  - { offset: 0x4B32E5, size: 0x8, addend: 0x0, symName: __ZN11spirv_cross12CompilerGLSL14format_to_glslEN3spv11ImageFormatE, symObjAddr: 0x12F70, symBinAddr: 0x8F860, symSize: 0x90 }
  - { offset: 0x4B332E, size: 0x8, addend: 0x0, symName: __ZN11spirv_cross12CompilerGLSL24type_to_packed_base_sizeERKNS_8SPIRTypeENS_21BufferPackingStandardE, symObjAddr: 0x13000, symBinAddr: 0x8F8F0, symSize: 0x80 }
  - { offset: 0x4B3489, size: 0x8, addend: 0x0, symName: __ZN11spirv_cross12CompilerGLSL24type_to_packed_alignmentERKNS_8SPIRTypeERKNS_6BitsetENS_21BufferPackingStandardE, symObjAddr: 0x13080, symBinAddr: 0x8F970, symSize: 0x420 }
  - { offset: 0x4B3EDE, size: 0x8, addend: 0x0, symName: __ZN11spirv_cross12CompilerGLSL27type_to_packed_array_strideERKNS_8SPIRTypeERKNS_6BitsetENS_21BufferPackingStandardE, symObjAddr: 0x134A0, symBinAddr: 0x8FD90, symSize: 0x70 }
  - { offset: 0x4B401F, size: 0x8, addend: 0x0, symName: __ZN11spirv_cross12CompilerGLSL19type_to_packed_sizeERKNS_8SPIRTypeERKNS_6BitsetENS_21BufferPackingStandardE, symObjAddr: 0x13510, symBinAddr: 0x8FE00, symSize: 0x4A0 }
  - { offset: 0x4B4A3A, size: 0x8, addend: 0x0, symName: __ZNK11spirv_cross12CompilerGLSL21to_array_size_literalERKNS_8SPIRTypeE, symObjAddr: 0x139B0, symBinAddr: 0x902A0, symSize: 0x30 }
  - { offset: 0x4B4B19, size: 0x8, addend: 0x0, symName: __ZN11spirv_cross12CompilerGLSL26buffer_is_packing_standardERKNS_8SPIRTypeENS_21BufferPackingStandardEPjjj, symObjAddr: 0x139E0, symBinAddr: 0x902D0, symSize: 0x480 }
  - { offset: 0x4B56E5, size: 0x8, addend: 0x0, symName: __ZN11spirv_cross12CompilerGLSL19layout_for_variableERKNS_12SPIRVariableE, symObjAddr: 0x13E60, symBinAddr: 0x90750, symSize: 0x1AD0 }
  - { offset: 0x4BA8BE, size: 0x8, addend: 0x0, symName: __ZN11spirv_cross12CompilerGLSL26buffer_to_packing_standardERKNS_8SPIRTypeEbb, symObjAddr: 0x16620, symBinAddr: 0x92290, symSize: 0x4C0 }
  - { offset: 0x4BBF7E, size: 0x8, addend: 0x0, symName: __ZNK11spirv_cross12CompilerGLSL34subpass_input_is_framebuffer_fetchEj, symObjAddr: 0x15930, symBinAddr: 0x92220, symSize: 0x70 }
  - { offset: 0x4BC08D, size: 0x8, addend: 0x0, symName: __ZN11spirv_cross12CompilerGLSL24emit_push_constant_blockERKNS_12SPIRVariableE, symObjAddr: 0x16AE0, symBinAddr: 0x92750, symSize: 0x160 }
  - { offset: 0x4BC2AD, size: 0x8, addend: 0x0, symName: __ZN11spirv_cross12CompilerGLSL24emit_buffer_block_nativeERKNS_12SPIRVariableE, symObjAddr: 0x17290, symBinAddr: 0x92DD0, symSize: 0xA40 }
  - { offset: 0x4BED0D, size: 0x8, addend: 0x0, symName: __ZN11spirv_cross12CompilerGLSL29emit_push_constant_block_glslERKNS_12SPIRVariableE, symObjAddr: 0x17CD0, symBinAddr: 0x93810, symSize: 0xC0 }
  - { offset: 0x4BEE3A, size: 0x8, addend: 0x0, symName: __ZN11spirv_cross12CompilerGLSL27emit_buffer_block_flattenedERKNS_12SPIRVariableE, symObjAddr: 0x16D70, symBinAddr: 0x928B0, symSize: 0x500 }
  - { offset: 0x4C08B6, size: 0x8, addend: 0x0, symName: __ZN11spirv_cross12CompilerGLSL24flags_to_qualifiers_glslERKNS_8SPIRTypeERKNS_6BitsetE, symObjAddr: 0x1A2E0, symBinAddr: 0x95930, symSize: 0x300 }
  - { offset: 0x4C105F, size: 0x8, addend: 0x0, symName: __ZN11spirv_cross12CompilerGLSL9statementIJRA9_KcNSt3__112basic_stringIcNS5_11char_traitsIcEENS5_9allocatorIcEEEESB_RA2_S2_RSB_SD_RmRA3_S2_EEEvDpOT_, symObjAddr: 0x1A190, symBinAddr: 0x957E0, symSize: 0x150 }
  - { offset: 0x4C172C, size: 0x8, addend: 0x0, symName: __ZN11spirv_cross12CompilerGLSL31emit_push_constant_block_vulkanERKNS_12SPIRVariableE, symObjAddr: 0x17270, symBinAddr: 0x92DB0, symSize: 0x20 }
  - { offset: 0x4C206A, size: 0x8, addend: 0x0, symName: __ZNSt3__112__hash_tableINS_17__hash_value_typeIjNS_12basic_stringIcNS_11char_traitsIcEENS_9allocatorIcEEEEEENS_22__unordered_map_hasherIjS8_NS_4hashIjEENS_8equal_toIjEELb1EEENS_21__unordered_map_equalIjS8_SD_SB_Lb1EEENS5_IS8_EEE25__emplace_unique_key_argsIjJRKNS_21piecewise_construct_tENS_5tupleIJOjEEENSN_IJEEEEEENS_4pairINS_15__hash_iteratorIPNS_11__hash_nodeIS8_PvEEEEbEERKT_DpOT0_, symObjAddr: 0x94F60, symBinAddr: 0xF8780, symSize: 0x460 }
  - { offset: 0x4C2900, size: 0x8, addend: 0x0, symName: __ZN11spirv_cross12CompilerGLSL9statementIJNSt3__112basic_stringIcNS2_11char_traitsIcEENS2_9allocatorIcEEEEPKcSA_SA_SA_SA_RS8_EEEvDpOT_, symObjAddr: 0x19F40, symBinAddr: 0x95590, symSize: 0x170 }
  - { offset: 0x4C2C64, size: 0x8, addend: 0x0, symName: __ZNSt3__112__hash_tableINS_17__hash_value_typeIjNS_12basic_stringIcNS_11char_traitsIcEENS_9allocatorIcEEEEEENS_22__unordered_map_hasherIjS8_NS_4hashIjEENS_8equal_toIjEELb1EEENS_21__unordered_map_equalIjS8_SD_SB_Lb1EEENS5_IS8_EEE25__emplace_unique_key_argsIjJRKNS_21piecewise_construct_tENS_5tupleIJRKjEEENSN_IJEEEEEENS_4pairINS_15__hash_iteratorIPNS_11__hash_nodeIS8_PvEEEEbEERKT_DpOT0_, symObjAddr: 0xB88B0, symBinAddr: 0x1043A0, symSize: 0x460 }
  - { offset: 0x4C34FA, size: 0x8, addend: 0x0, symName: __ZN11spirv_cross12CompilerGLSL9statementIJRA3_KcRKNSt3__112basic_stringIcNS5_11char_traitsIcEENS5_9allocatorIcEEEERA2_S2_EEEvDpOT_, symObjAddr: 0x843A0, symBinAddr: 0xF3FB0, symSize: 0x160 }
  - { offset: 0x4C38B5, size: 0x8, addend: 0x0, symName: __ZN11spirv_cross12CompilerGLSL17emit_buffer_blockERKNS_12SPIRVariableE, symObjAddr: 0x17D90, symBinAddr: 0x938D0, symSize: 0x1C0 }
  - { offset: 0x4C3B73, size: 0x8, addend: 0x0, symName: __ZN11spirv_cross12CompilerGLSL24emit_buffer_block_legacyERKNS_12SPIRVariableE, symObjAddr: 0x17F50, symBinAddr: 0x93A90, symSize: 0x130 }
  - { offset: 0x4C3FFE, size: 0x8, addend: 0x0, symName: __ZN11spirv_cross12CompilerGLSL9statementIJRA8_KcNSt3__112basic_stringIcNS5_11char_traitsIcEENS5_9allocatorIcEEEERA2_S2_RSB_RA9_S2_SE_EEEvDpOT_, symObjAddr: 0x19680, symBinAddr: 0x94EA0, symSize: 0x130 }
  - { offset: 0x4C4269, size: 0x8, addend: 0x0, symName: __ZN11spirv_cross12CompilerGLSL9statementIJRA33_KcRNSt3__112basic_stringIcNS5_11char_traitsIcEENS5_9allocatorIcEEEERA2_S2_EEEvDpOT_, symObjAddr: 0x19C20, symBinAddr: 0x95430, symSize: 0x160 }
  - { offset: 0x4C4624, size: 0x8, addend: 0x0, symName: __ZN11spirv_cross12CompilerGLSL9statementIJRA8_KcRNSt3__112basic_stringIcNS5_11char_traitsIcEENS5_9allocatorIcEEEERA44_S2_RjRA10_S2_SC_EEEvDpOT_, symObjAddr: 0x197C0, symBinAddr: 0x94FD0, symSize: 0x130 }
  - { offset: 0x4C488F, size: 0x8, addend: 0x0, symName: __ZN11spirv_cross12CompilerGLSL9statementIJRA8_KcRNSt3__112basic_stringIcNS5_11char_traitsIcEENS5_9allocatorIcEEEERA26_S2_SC_EEEvDpOT_, symObjAddr: 0x198F0, symBinAddr: 0x95100, symSize: 0x190 }
  - { offset: 0x4C4D53, size: 0x8, addend: 0x0, symName: __ZN11spirv_cross12CompilerGLSL9statementIJNSt3__112basic_stringIcNS2_11char_traitsIcEENS2_9allocatorIcEEEERA7_KcS8_RA2_S9_EEEvDpOT_, symObjAddr: 0x19A80, symBinAddr: 0x95290, symSize: 0x1A0 }
  - { offset: 0x4C541F, size: 0x8, addend: 0x0, symName: __ZN11spirv_cross12CompilerGLSL12add_variableERNSt3__113unordered_setINS1_12basic_stringIcNS1_11char_traitsIcEENS1_9allocatorIcEEEENS1_4hashIS8_EENS1_8equal_toIS8_EENS6_IS8_EEEERKSE_RS8_, symObjAddr: 0x19460, symBinAddr: 0x94E10, symSize: 0x90 }
  - { offset: 0x4C5596, size: 0x8, addend: 0x0, symName: __ZN11spirv_cross12CompilerGLSL15statement_innerIRA8_KcJNSt3__112basic_stringIcNS5_11char_traitsIcEENS5_9allocatorIcEEEERA2_S2_RSB_RA9_S2_SE_EEEvOT_DpOT0_, symObjAddr: 0x94480, symBinAddr: 0xF8240, symSize: 0x120 }
  - { offset: 0x4C5A4D, size: 0x8, addend: 0x0, symName: __ZN11spirv_cross12CompilerGLSL15statement_innerIRA8_KcJRNSt3__112basic_stringIcNS5_11char_traitsIcEENS5_9allocatorIcEEEERA44_S2_RjRA10_S2_SC_EEEvOT_DpOT0_, symObjAddr: 0x947D0, symBinAddr: 0xF8590, symSize: 0x110 }
  - { offset: 0x4C61FE, size: 0x8, addend: 0x0, symName: __ZN11spirv_cross12CompilerGLSL15statement_innerIPKcJS3_S3_S3_S3_RNSt3__112basic_stringIcNS4_11char_traitsIcEENS4_9allocatorIcEEEEEEEvOT_DpOT0_, symObjAddr: 0x958D0, symBinAddr: 0xF8EB0, symSize: 0x110 }
  - { offset: 0x4C6646, size: 0x8, addend: 0x0, symName: __ZN11spirv_cross12CompilerGLSL23preserve_alias_on_resetEj, symObjAddr: 0x1A0B0, symBinAddr: 0x95700, symSize: 0x60 }
  - { offset: 0x4C66C7, size: 0x8, addend: 0x0, symName: __ZN11spirv_cross12CompilerGLSL14end_scope_declERKNSt3__112basic_stringIcNS1_11char_traitsIcEENS1_9allocatorIcEEEE, symObjAddr: 0x1A110, symBinAddr: 0x95760, symSize: 0x80 }
  - { offset: 0x4C67C0, size: 0x8, addend: 0x0, symName: __ZN11spirv_cross12CompilerGLSL15statement_innerINSt3__112basic_stringIcNS2_11char_traitsIcEENS2_9allocatorIcEEEEJS8_RA2_KcRS8_SB_RmRA3_S9_EEEvOT_DpOT0_, symObjAddr: 0x95D00, symBinAddr: 0xF92E0, symSize: 0x120 }
  - { offset: 0x4C6C2F, size: 0x8, addend: 0x0, symName: __ZN11spirv_cross12CompilerGLSL26to_storage_qualifiers_glslERKNS_12SPIRVariableE, symObjAddr: 0x1A5E0, symBinAddr: 0x95C30, symSize: 0x240 }
  - { offset: 0x4C6F65, size: 0x8, addend: 0x0, symName: __ZN11spirv_cross12CompilerGLSL30emit_flattened_io_block_memberERKNSt3__112basic_stringIcNS1_11char_traitsIcEENS1_9allocatorIcEEEERKNS_8SPIRTypeEPKcRKNS_11SmallVectorIjLm8EEE, symObjAddr: 0x1A820, symBinAddr: 0x95E70, symSize: 0x380 }
  - { offset: 0x4C852A, size: 0x8, addend: 0x0, symName: __ZN11spirv_cross12CompilerGLSL14to_member_nameERKNS_8SPIRTypeEj, symObjAddr: 0x1ABA0, symBinAddr: 0x961F0, symSize: 0x120 }
  - { offset: 0x4C8894, size: 0x8, addend: 0x0, symName: __ZN11spirv_cross12CompilerGLSL30emit_flattened_io_block_structERKNSt3__112basic_stringIcNS1_11char_traitsIcEENS1_9allocatorIcEEEERKNS_8SPIRTypeEPKcRKNS_11SmallVectorIjLm8EEE, symObjAddr: 0x1ACC0, symBinAddr: 0x96310, symSize: 0x4B0 }
  - { offset: 0x4C8FBB, size: 0x8, addend: 0x0, symName: __ZN11spirv_cross12CompilerGLSL23emit_flattened_io_blockERKNS_12SPIRVariableEPKc, symObjAddr: 0x1B170, symBinAddr: 0x967C0, symSize: 0x550 }
  - { offset: 0x4CA67F, size: 0x8, addend: 0x0, symName: __ZNSt3__112__hash_tableINS_17__hash_value_typeIjbEENS_22__unordered_map_hasherIjS2_NS_4hashIjEENS_8equal_toIjEELb1EEENS_21__unordered_map_equalIjS2_S7_S5_Lb1EEENS_9allocatorIS2_EEE25__emplace_unique_key_argsIjJRKNS_21piecewise_construct_tENS_5tupleIJOjEEENSI_IJEEEEEENS_4pairINS_15__hash_iteratorIPNS_11__hash_nodeIS2_PvEEEEbEERKT_DpOT0_, symObjAddr: 0x95E20, symBinAddr: 0xF9400, symSize: 0x430 }
  - { offset: 0x4CB1DD, size: 0x8, addend: 0x0, symName: __ZN11spirv_cross12CompilerGLSL9statementIJNSt3__112basic_stringIcNS2_11char_traitsIcEENS2_9allocatorIcEEEES8_S8_RA2_KcEEEvDpOT_, symObjAddr: 0x1C9B0, symBinAddr: 0x98000, symSize: 0x1A0 }
  - { offset: 0x4CB6E7, size: 0x8, addend: 0x0, symName: __ZNK11spirv_cross12CompilerGLSL13has_extensionERKNSt3__112basic_stringIcNS1_11char_traitsIcEENS1_9allocatorIcEEEE, symObjAddr: 0x1C460, symBinAddr: 0x97AB0, symSize: 0x100 }
  - { offset: 0x4CB922, size: 0x8, addend: 0x0, symName: __ZN11spirv_cross12CompilerGLSL41fixup_io_block_patch_primitive_qualifiersERKNS_12SPIRVariableE, symObjAddr: 0x1C560, symBinAddr: 0x97BB0, symSize: 0x100 }
  - { offset: 0x4CBBB0, size: 0x8, addend: 0x0, symName: __ZN11spirv_cross12CompilerGLSL9statementIJNSt3__112basic_stringIcNS2_11char_traitsIcEENS2_9allocatorIcEEEERPKcSB_RS8_EEEvDpOT_, symObjAddr: 0x1C660, symBinAddr: 0x97CB0, symSize: 0x1A0 }
  - { offset: 0x4CC232, size: 0x8, addend: 0x0, symName: __ZN11spirv_cross12CompilerGLSL12emit_uniformERKNS_12SPIRVariableE, symObjAddr: 0x1CB50, symBinAddr: 0x981A0, symSize: 0x1C0 }
  - { offset: 0x4CCD6F, size: 0x8, addend: 0x0, symName: __ZN11spirv_cross12CompilerGLSL9statementIJNSt3__112basic_stringIcNS2_11char_traitsIcEENS2_9allocatorIcEEEES8_RA2_KcEEEvDpOT_, symObjAddr: 0x1CD10, symBinAddr: 0x98360, symSize: 0x170 }
  - { offset: 0x4CD17B, size: 0x8, addend: 0x0, symName: __ZN11spirv_cross12CompilerGLSL25constant_value_macro_nameEj, symObjAddr: 0x1CE80, symBinAddr: 0x984D0, symSize: 0x30 }
  - { offset: 0x4CD1C6, size: 0x8, addend: 0x0, symName: __ZN11spirv_cross12CompilerGLSL9statementIJRA7_KcNSt3__112basic_stringIcNS5_11char_traitsIcEENS5_9allocatorIcEEEERA4_S2_SB_RA2_S2_EEEvDpOT_, symObjAddr: 0x1D1A0, symBinAddr: 0x98660, symSize: 0x1D0 }
  - { offset: 0x4CD889, size: 0x8, addend: 0x0, symName: __ZNK11spirv_cross12CompilerGLSL43get_constant_mapping_to_workgroup_componentERKNS_12SPIRConstantE, symObjAddr: 0x1D370, symBinAddr: 0x98830, symSize: 0x60 }
  - { offset: 0x4CD909, size: 0x8, addend: 0x0, symName: __ZN11spirv_cross12CompilerGLSL9statementIJRA22_KcjRA9_S2_NSt3__112basic_stringIcNS7_11char_traitsIcEENS7_9allocatorIcEEEERA4_S2_SD_RA2_S2_EEEvDpOT_, symObjAddr: 0x1D730, symBinAddr: 0x98BF0, symSize: 0x150 }
  - { offset: 0x4CDC32, size: 0x8, addend: 0x0, symName: __ZN11spirv_cross12CompilerGLSL9statementIJRA9_KcRKNSt3__112basic_stringIcNS5_11char_traitsIcEENS5_9allocatorIcEEEEEEEvDpOT_, symObjAddr: 0x1E890, symBinAddr: 0x99D50, symSize: 0x140 }
  - { offset: 0x4CDF3B, size: 0x8, addend: 0x0, symName: __ZN11spirv_cross12CompilerGLSL9statementIJRA9_KcRKNSt3__112basic_stringIcNS5_11char_traitsIcEENS5_9allocatorIcEEEERA2_S2_SB_EEEvDpOT_, symObjAddr: 0x1E9D0, symBinAddr: 0x99E90, symSize: 0x190 }
  - { offset: 0x4CE3FF, size: 0x8, addend: 0x0, symName: __ZN11spirv_cross12CompilerGLSL9statementIJRA7_KcNSt3__112basic_stringIcNS5_11char_traitsIcEENS5_9allocatorIcEEEERA4_S2_RKSB_RA2_S2_EEEvDpOT_, symObjAddr: 0x1EB60, symBinAddr: 0x9A020, symSize: 0x1D0 }
  - { offset: 0x4CEA28, size: 0x8, addend: 0x0, symName: __ZN11spirv_cross12CompilerGLSL15statement_innerIjJRA9_KcNSt3__112basic_stringIcNS5_11char_traitsIcEENS5_9allocatorIcEEEERA4_S2_SB_RA2_S2_EEEvOT_DpOT0_, symObjAddr: 0x96D10, symBinAddr: 0xF9E90, symSize: 0x100 }
  - { offset: 0x4CEF99, size: 0x8, addend: 0x0, symName: __ZN11spirv_cross12CompilerGLSL24type_to_glsl_constructorERKNS_8SPIRTypeE, symObjAddr: 0x28FF0, symBinAddr: 0xA3F30, symSize: 0x1A0 }
  - { offset: 0x4CFB36, size: 0x8, addend: 0x0, symName: __ZN11spirv_cross12CompilerGLSL29emit_entry_point_declarationsEv, symObjAddr: 0x1ED30, symBinAddr: 0x9A1F0, symSize: 0x10 }
  - { offset: 0x4CFB5C, size: 0x8, addend: 0x0, symName: __ZN11spirv_cross12CompilerGLSL21replace_illegal_namesERKNSt3__113unordered_setINS1_12basic_stringIcNS1_11char_traitsIcEENS1_9allocatorIcEEEENS1_4hashIS8_EENS1_8equal_toIS8_EENS6_IS8_EEEE, symObjAddr: 0x1ED40, symBinAddr: 0x9A200, symSize: 0x340 }
  - { offset: 0x4D0CE3, size: 0x8, addend: 0x0, symName: __ZNSt3__113unordered_setINS_12basic_stringIcNS_11char_traitsIcEENS_9allocatorIcEEEENS_4hashIS6_EENS_8equal_toIS6_EENS4_IS6_EEEC1ESt16initializer_listIS6_E, symObjAddr: 0x21190, symBinAddr: 0x9C650, symSize: 0x80 }
  - { offset: 0x4D0FA3, size: 0x8, addend: 0x0, symName: __ZN11spirv_cross12CompilerGLSL21replace_illegal_namesEv.cold.1, symObjAddr: 0xBBDA0, symBinAddr: 0x1D03C0, symSize: 0x30 }
  - { offset: 0x4D12EB, size: 0x8, addend: 0x0, symName: __ZNSt3__113unordered_setINS_12basic_stringIcNS_11char_traitsIcEENS_9allocatorIcEEEENS_4hashIS6_EENS_8equal_toIS6_EENS4_IS6_EEEC1ESt16initializer_listIS6_E.cold.2, symObjAddr: 0xBBE20, symBinAddr: 0x1D0410, symSize: 0x40 }
  - { offset: 0x4D159A, size: 0x8, addend: 0x0, symName: __ZNSt3__113unordered_setINS_12basic_stringIcNS_11char_traitsIcEENS_9allocatorIcEEEENS_4hashIS6_EENS_8equal_toIS6_EENS4_IS6_EEEC1ESt16initializer_listIS6_E.cold.1, symObjAddr: 0xBBE00, symBinAddr: 0x1D03F0, symSize: 0x20 }
  - { offset: 0x4D170E, size: 0x8, addend: 0x0, symName: __ZN11spirv_cross12CompilerGLSL23replace_fragment_outputERNS_12SPIRVariableE, symObjAddr: 0x21280, symBinAddr: 0x9C6D0, symSize: 0x1B0 }
  - { offset: 0x4D1CD0, size: 0x8, addend: 0x0, symName: __ZN11spirv_cross12CompilerGLSL13remap_swizzleERKNS_8SPIRTypeEjRKNSt3__112basic_stringIcNS4_11char_traitsIcEENS4_9allocatorIcEEEE, symObjAddr: 0x216D0, symBinAddr: 0x9CB20, symSize: 0x210 }
  - { offset: 0x4D2424, size: 0x8, addend: 0x0, symName: __ZN11spirv_cross12CompilerGLSL24needs_enclose_expressionERKNSt3__112basic_stringIcNS1_11char_traitsIcEENS1_9allocatorIcEEEE, symObjAddr: 0x2F100, symBinAddr: 0xA9E30, symSize: 0xD0 }
  - { offset: 0x4D2663, size: 0x8, addend: 0x0, symName: __ZN11spirv_cross12CompilerGLSL18enclose_expressionERKNSt3__112basic_stringIcNS1_11char_traitsIcEENS1_9allocatorIcEEEE, symObjAddr: 0x21AC0, symBinAddr: 0x9CF10, symSize: 0x70 }
  - { offset: 0x4D2770, size: 0x8, addend: 0x0, symName: __ZN11spirv_cross12CompilerGLSL16index_to_swizzleEj, symObjAddr: 0x21B30, symBinAddr: 0x9CF80, symSize: 0x30 }
  - { offset: 0x4D2C49, size: 0x8, addend: 0x0, symName: __ZN11spirv_cross12CompilerGLSL8pls_declERKNS_8PlsRemapE, symObjAddr: 0x222E0, symBinAddr: 0x9D730, symSize: 0x4C0 }
  - { offset: 0x4D41DA, size: 0x8, addend: 0x0, symName: __ZN11spirv_cross12CompilerGLSL8pls_declERKNS_13PlsInOutRemapE, symObjAddr: 0x228A0, symBinAddr: 0x9DCF0, symSize: 0x4F0 }
  - { offset: 0x4D65C7, size: 0x8, addend: 0x0, symName: __ZN11spirv_cross12CompilerGLSL9statementIJRA16_KcEEEvDpOT_, symObjAddr: 0x254F0, symBinAddr: 0xA0940, symSize: 0x100 }
  - { offset: 0x4D67DE, size: 0x8, addend: 0x0, symName: __ZN11spirv_cross12CompilerGLSL9statementIJRA8_KcNSt3__112basic_stringIcNS5_11char_traitsIcEENS5_9allocatorIcEEEERA19_S2_EEEvDpOT_, symObjAddr: 0x25290, symBinAddr: 0xA06E0, symSize: 0x160 }
  - { offset: 0x4D6BB2, size: 0x8, addend: 0x0, symName: __ZN11spirv_cross12CompilerGLSL9statementIJRA17_KcEEEvDpOT_, symObjAddr: 0x253F0, symBinAddr: 0xA0840, symSize: 0x100 }
  - { offset: 0x4D6DC9, size: 0x8, addend: 0x0, symName: __ZN11spirv_cross12CompilerGLSL9statementIJRA23_KcRjRA3_S2_EEEvDpOT_, symObjAddr: 0x25B00, symBinAddr: 0xA0F50, symSize: 0x140 }
  - { offset: 0x4D70FE, size: 0x8, addend: 0x0, symName: __ZN11spirv_cross12CompilerGLSL9statementIJRA21_KcRjRA22_S2_EEEvDpOT_, symObjAddr: 0x25830, symBinAddr: 0xA0C80, symSize: 0x140 }
  - { offset: 0x4D7433, size: 0x8, addend: 0x0, symName: __ZN11spirv_cross12CompilerGLSL9statementIJRA21_KcRjRA25_S2_S5_RA3_S2_EEEvDpOT_, symObjAddr: 0x25970, symBinAddr: 0xA0DC0, symSize: 0x190 }
  - { offset: 0x4D78B0, size: 0x8, addend: 0x0, symName: __ZN11spirv_cross12CompilerGLSL9statementIJRA21_KcRjRA20_S2_EEEvDpOT_, symObjAddr: 0x255F0, symBinAddr: 0xA0A40, symSize: 0x140 }
  - { offset: 0x4D822A, size: 0x8, addend: 0x0, symName: __ZNK11spirv_cross12CompilerGLSL15variable_is_lutERKNS_12SPIRVariableE, symObjAddr: 0x25FF0, symBinAddr: 0xA13F0, symSize: 0x50 }
  - { offset: 0x4D96C7, size: 0x8, addend: 0x0, symName: __ZN11spirv_cross12CompilerGLSL13to_expressionEjb, symObjAddr: 0x28000, symBinAddr: 0xA2F40, symSize: 0xE10 }
  - { offset: 0x4DB65C, size: 0x8, addend: 0x0, symName: __ZN11spirv_cross12CompilerGLSL9statementIJRA7_KcNSt3__112basic_stringIcNS5_11char_traitsIcEENS5_9allocatorIcEEEERA2_S2_RSB_SB_RA4_S2_SB_SD_SB_RA3_S2_EEEvDpOT_, symObjAddr: 0x28E10, symBinAddr: 0xA3D50, symSize: 0x1E0 }
  - { offset: 0x4DBBEC, size: 0x8, addend: 0x0, symName: __ZN11spirv_cross12CompilerGLSL9statementIJRA7_KcNSt3__112basic_stringIcNS5_11char_traitsIcEENS5_9allocatorIcEEEERA2_S2_RSB_SB_RA4_S2_SB_SD_EEEvDpOT_, symObjAddr: 0x29330, symBinAddr: 0xA4270, symSize: 0x1A0 }
  - { offset: 0x4DC38E, size: 0x8, addend: 0x0, symName: __ZN11spirv_cross12CompilerGLSL25handle_invalid_expressionEj, symObjAddr: 0x2EE70, symBinAddr: 0xA9BA0, symSize: 0x190 }
  - { offset: 0x4DC6EE, size: 0x8, addend: 0x0, symName: __ZN11spirv_cross12CompilerGLSL21track_expression_readEj, symObjAddr: 0x324C0, symBinAddr: 0xAC6A0, symSize: 0x370 }
  - { offset: 0x4DCEF6, size: 0x8, addend: 0x0, symName: __ZN11spirv_cross12CompilerGLSL39emit_uninitialized_temporary_expressionEjj, symObjAddr: 0x33070, symBinAddr: 0xAD120, symSize: 0xF0 }
  - { offset: 0x4DD3FE, size: 0x8, addend: 0x0, symName: __ZN11spirv_cross12CompilerGLSL18bitcast_expressionERKNS_8SPIRTypeENS1_8BaseTypeERKNSt3__112basic_stringIcNS5_11char_traitsIcEENS5_9allocatorIcEEEE, symObjAddr: 0x32D20, symBinAddr: 0xACDD0, symSize: 0x220 }
  - { offset: 0x4DDE70, size: 0x8, addend: 0x0, symName: __ZN11spirv_cross12CompilerGLSL21load_flattened_structERKNSt3__112basic_stringIcNS1_11char_traitsIcEENS1_9allocatorIcEEEERKNS_8SPIRTypeE, symObjAddr: 0x32960, symBinAddr: 0xACA10, symSize: 0x220 }
  - { offset: 0x4DED53, size: 0x8, addend: 0x0, symName: __ZN11spirv_cross12CompilerGLSL15statement_innerINSt3__112basic_stringIcNS2_11char_traitsIcEENS2_9allocatorIcEEEEJRA4_KcS8_RA2_S9_S8_RA3_S9_EEEvOT_DpOT0_, symObjAddr: 0x99A50, symBinAddr: 0xFA410, symSize: 0x110 }
  - { offset: 0x4DF2E9, size: 0x8, addend: 0x0, symName: __ZN11spirv_cross12CompilerGLSL15statement_innerIRA2_KcJRNSt3__112basic_stringIcNS5_11char_traitsIcEENS5_9allocatorIcEEEESB_RA4_S2_SB_S4_EEEvOT_DpOT0_, symObjAddr: 0x9BEC0, symBinAddr: 0xFB5C0, symSize: 0x120 }
  - { offset: 0x4DF968, size: 0x8, addend: 0x0, symName: __ZNSt3__16vectorIZN11spirv_cross12CompilerGLSL35emit_subgroup_arithmetic_workaroundERKNS_12basic_stringIcNS_11char_traitsIcEENS_9allocatorIcEEEEN3spv2OpENSB_14GroupOperationEE8TypeInfoNS6_ISE_EEE12emplace_backIJSE_EEEvDpOT_, symObjAddr: 0x2A660, symBinAddr: 0xA55A0, symSize: 0x210 }
  - { offset: 0x4E03E2, size: 0x8, addend: 0x0, symName: __ZN11spirv_cross12CompilerGLSL9statementIJRKNSt3__112basic_stringIcNS2_11char_traitsIcEENS2_9allocatorIcEEEERA2_KcSA_SD_SA_RA4_SB_EEEvDpOT_, symObjAddr: 0x2A8B0, symBinAddr: 0xA57B0, symSize: 0x130 }
  - { offset: 0x4E064D, size: 0x8, addend: 0x0, symName: __ZN11spirv_cross12CompilerGLSL9statementIJRKNSt3__112basic_stringIcNS2_11char_traitsIcEENS2_9allocatorIcEEEERA2_KcRS8_RA4_SB_SA_SD_EEEvDpOT_, symObjAddr: 0x2A9E0, symBinAddr: 0xA58E0, symSize: 0x130 }
  - { offset: 0x4E08D1, size: 0x8, addend: 0x0, symName: __ZN11spirv_cross12CompilerGLSL9statementIJRA35_KcEEEvDpOT_, symObjAddr: 0x2AB10, symBinAddr: 0xA5A10, symSize: 0x100 }
  - { offset: 0x4E0AE8, size: 0x8, addend: 0x0, symName: __ZN11spirv_cross12CompilerGLSL9statementIJRNSt3__112basic_stringIcNS2_11char_traitsIcEENS2_9allocatorIcEEEERA6_KcEEEvDpOT_, symObjAddr: 0x2AC10, symBinAddr: 0xA5B10, symSize: 0x140 }
  - { offset: 0x4E0DF8, size: 0x8, addend: 0x0, symName: __ZN11spirv_cross12CompilerGLSL9statementIJRKNSt3__112basic_stringIcNS2_11char_traitsIcEENS2_9allocatorIcEEEERA18_KcRS8_RA30_SB_EEEvDpOT_, symObjAddr: 0x2AEF0, symBinAddr: 0xA5DF0, symSize: 0x1A0 }
  - { offset: 0x4E12C4, size: 0x8, addend: 0x0, symName: __ZN11spirv_cross12CompilerGLSL9statementIJRKNSt3__112basic_stringIcNS2_11char_traitsIcEENS2_9allocatorIcEEEERA19_KcRS8_RA30_SB_EEEvDpOT_, symObjAddr: 0x2AD50, symBinAddr: 0xA5C50, symSize: 0x1A0 }
  - { offset: 0x4E1790, size: 0x8, addend: 0x0, symName: __ZN11spirv_cross12CompilerGLSL9statementIJRNSt3__112basic_stringIcNS2_11char_traitsIcEENS2_9allocatorIcEEEERA2_KcS9_RA14_SA_RKS8_SC_EEEvDpOT_, symObjAddr: 0x2B090, symBinAddr: 0xA5F90, symSize: 0x130 }
  - { offset: 0x4E19FB, size: 0x8, addend: 0x0, symName: __ZN11spirv_cross12CompilerGLSL9statementIJRNSt3__112basic_stringIcNS2_11char_traitsIcEENS2_9allocatorIcEEEERA16_KcS9_RA24_SA_EEEvDpOT_, symObjAddr: 0x2B1C0, symBinAddr: 0xA60C0, symSize: 0x1A0 }
  - { offset: 0x4E1EC7, size: 0x8, addend: 0x0, symName: __ZN11spirv_cross12CompilerGLSL9statementIJRNSt3__112basic_stringIcNS2_11char_traitsIcEENS2_9allocatorIcEEEERA4_KcRKS8_RA2_SA_EEEvDpOT_, symObjAddr: 0x2B360, symBinAddr: 0xA6260, symSize: 0x1A0 }
  - { offset: 0x4E23AC, size: 0x8, addend: 0x0, symName: __ZN11spirv_cross12CompilerGLSL9statementIJRA5_KcEEEvDpOT_, symObjAddr: 0x2B500, symBinAddr: 0xA6400, symSize: 0x100 }
  - { offset: 0x4E25DC, size: 0x8, addend: 0x0, symName: __ZN11spirv_cross12CompilerGLSL9statementIJRA56_KcEEEvDpOT_, symObjAddr: 0x2B600, symBinAddr: 0xA6500, symSize: 0x100 }
  - { offset: 0x4E27F3, size: 0x8, addend: 0x0, symName: __ZN11spirv_cross12CompilerGLSL9statementIJRKNSt3__112basic_stringIcNS2_11char_traitsIcEENS2_9allocatorIcEEEERA39_KcEEEvDpOT_, symObjAddr: 0x2B700, symBinAddr: 0xA6600, symSize: 0x140 }
  - { offset: 0x4E2B03, size: 0x8, addend: 0x0, symName: __ZN11spirv_cross12CompilerGLSL9statementIJRA8_KcRNSt3__112basic_stringIcNS5_11char_traitsIcEENS5_9allocatorIcEEEERA2_S2_EEEvDpOT_, symObjAddr: 0x2B940, symBinAddr: 0xA6840, symSize: 0x160 }
  - { offset: 0x4E3023, size: 0x8, addend: 0x0, symName: __ZNSt3__16vectorIZN11spirv_cross12CompilerGLSL35emit_subgroup_arithmetic_workaroundERKNS_12basic_stringIcNS_11char_traitsIcEENS_9allocatorIcEEEEN3spv2OpENSB_14GroupOperationEE8TypeInfoNS6_ISE_EEED1B8ne180100Ev, symObjAddr: 0x2BAA0, symBinAddr: 0xA69A0, symSize: 0x80 }
  - { offset: 0x4E37C9, size: 0x8, addend: 0x0, symName: __ZNKSt3__16vectorIZN11spirv_cross12CompilerGLSL35emit_subgroup_arithmetic_workaroundERKNS_12basic_stringIcNS_11char_traitsIcEENS_9allocatorIcEEEEN3spv2OpENSB_14GroupOperationEE8TypeInfoNS6_ISE_EEE20__throw_length_errorB8ne180100Ev, symObjAddr: 0x9D280, symBinAddr: 0xFC5C0, symSize: 0x10 }
  - { offset: 0x4E5001, size: 0x8, addend: 0x0, symName: __ZN11spirv_cross12CompilerGLSL15statement_innerIRPKcJRA18_S2_S4_RA2_S2_S4_RA8_S2_EEEvOT_DpOT0_, symObjAddr: 0xA0E30, symBinAddr: 0xFC960, symSize: 0x100 }
  - { offset: 0x4E5BDC, size: 0x8, addend: 0x0, symName: __ZN11spirv_cross12CompilerGLSL16to_func_call_argERKNS_12SPIRFunction9ParameterEj, symObjAddr: 0x2E3E0, symBinAddr: 0xA92E0, symSize: 0x60 }
  - { offset: 0x4E5D48, size: 0x8, addend: 0x0, symName: __ZN11spirv_cross12CompilerGLSL29force_temporary_and_recompileEj, symObjAddr: 0x2E440, symBinAddr: 0xA9340, symSize: 0x40 }
  - { offset: 0x4E5E13, size: 0x8, addend: 0x0, symName: __ZN11spirv_cross12CompilerGLSL38consume_temporary_in_precision_contextEjjNS0_7Options9PrecisionE, symObjAddr: 0x2E480, symBinAddr: 0xA9380, symSize: 0x3A0 }
  - { offset: 0x4E6CF9, size: 0x8, addend: 0x0, symName: __ZN11spirv_cross12CompilerGLSL7emit_opEjjRKNSt3__112basic_stringIcNS1_11char_traitsIcEENS1_9allocatorIcEEEEbb, symObjAddr: 0x2EB90, symBinAddr: 0xA98C0, symSize: 0x2E0 }
  - { offset: 0x4E83A1, size: 0x8, addend: 0x0, symName: __ZN11spirv_cross10ObjectPoolINS_14SPIRExpressionEE8allocateIJRKNSt3__112basic_stringIcNS4_11char_traitsIcEENS4_9allocatorIcEEEERjbEEEPS1_DpOT_, symObjAddr: 0xA5990, symBinAddr: 0xFD020, symSize: 0x1F0 }
  - { offset: 0x4E8946, size: 0x8, addend: 0x0, symName: __ZN11spirv_cross12CompilerGLSL17declare_temporaryEjj, symObjAddr: 0x3E8A0, symBinAddr: 0xB7D60, symSize: 0x4E0 }
  - { offset: 0x4E9719, size: 0x8, addend: 0x0, symName: __ZN11spirv_cross12CompilerGLSL9statementIJNSt3__112basic_stringIcNS2_11char_traitsIcEENS2_9allocatorIcEEEERKS8_RA2_KcEEEvDpOT_, symObjAddr: 0x3F0C0, symBinAddr: 0xB8580, symSize: 0x170 }
  - { offset: 0x4E9B25, size: 0x8, addend: 0x0, symName: __ZN11spirv_cross10ObjectPoolINS_14SPIRExpressionEE8allocateIJNSt3__112basic_stringIcNS4_11char_traitsIcEENS4_9allocatorIcEEEERjbEEEPS1_DpOT_, symObjAddr: 0x99B60, symBinAddr: 0xFA520, symSize: 0x210 }
  - { offset: 0x4E9FF7, size: 0x8, addend: 0x0, symName: __ZN11spirv_cross12CompilerGLSL22unpack_expression_typeENSt3__112basic_stringIcNS1_11char_traitsIcEENS1_9allocatorIcEEEERKNS_8SPIRTypeEjbb, symObjAddr: 0x2F000, symBinAddr: 0xA9D30, symSize: 0x30 }
  - { offset: 0x4EA12B, size: 0x8, addend: 0x0, symName: __ZN11spirv_cross12CompilerGLSL25strip_enclosed_expressionERNSt3__112basic_stringIcNS1_11char_traitsIcEENS1_9allocatorIcEEEE, symObjAddr: 0x2F030, symBinAddr: 0xA9D60, symSize: 0xD0 }
  - { offset: 0x4EA325, size: 0x8, addend: 0x0, symName: __ZN11spirv_cross12CompilerGLSL22dereference_expressionERKNS_8SPIRTypeERKNSt3__112basic_stringIcNS4_11char_traitsIcEENS4_9allocatorIcEEEE, symObjAddr: 0x2F3A0, symBinAddr: 0xAA0D0, symSize: 0x160 }
  - { offset: 0x4EA892, size: 0x8, addend: 0x0, symName: __ZN11spirv_cross12CompilerGLSL21address_of_expressionERKNSt3__112basic_stringIcNS1_11char_traitsIcEENS1_9allocatorIcEEEE, symObjAddr: 0x2F930, symBinAddr: 0xAA570, symSize: 0x290 }
  - { offset: 0x4EAECA, size: 0x8, addend: 0x0, symName: __ZN11spirv_cross12CompilerGLSL22to_enclosed_expressionEjb, symObjAddr: 0x2FD60, symBinAddr: 0xAA800, symSize: 0x170 }
  - { offset: 0x4EB4BA, size: 0x8, addend: 0x0, symName: __ZN11spirv_cross12CompilerGLSL39to_unpacked_row_major_matrix_expressionEj, symObjAddr: 0x2FED0, symBinAddr: 0xAA970, symSize: 0xC0 }
  - { offset: 0x4EB7EF, size: 0x8, addend: 0x0, symName: __ZN11spirv_cross12CompilerGLSL22to_unpacked_expressionEjb, symObjAddr: 0x2FF90, symBinAddr: 0xAAA30, symSize: 0x150 }
  - { offset: 0x4EBC34, size: 0x8, addend: 0x0, symName: __ZN11spirv_cross12CompilerGLSL31to_enclosed_unpacked_expressionEjb, symObjAddr: 0x300E0, symBinAddr: 0xAAB80, symSize: 0x170 }
  - { offset: 0x4EC239, size: 0x8, addend: 0x0, symName: __ZN11spirv_cross12CompilerGLSL26to_dereferenced_expressionEjb, symObjAddr: 0x30250, symBinAddr: 0xAACF0, symSize: 0xC0 }
  - { offset: 0x4EC5A2, size: 0x8, addend: 0x0, symName: __ZN11spirv_cross12CompilerGLSL18should_dereferenceEj, symObjAddr: 0x30310, symBinAddr: 0xAADB0, symSize: 0x270 }
  - { offset: 0x4ECA6E, size: 0x8, addend: 0x0, symName: __ZN11spirv_cross12CompilerGLSL21to_pointer_expressionEjb, symObjAddr: 0x30580, symBinAddr: 0xAB020, symSize: 0xC0 }
  - { offset: 0x4ECDC9, size: 0x8, addend: 0x0, symName: __ZN11spirv_cross12CompilerGLSL30to_enclosed_pointer_expressionEjb, symObjAddr: 0x30640, symBinAddr: 0xAB0E0, symSize: 0xC0 }
  - { offset: 0x4ED124, size: 0x8, addend: 0x0, symName: __ZN11spirv_cross12CompilerGLSL31to_extract_component_expressionEjj, symObjAddr: 0x30700, symBinAddr: 0xAB1A0, symSize: 0xE0 }
  - { offset: 0x4ED63A, size: 0x8, addend: 0x0, symName: __ZN11spirv_cross12CompilerGLSL40to_extract_constant_composite_expressionEjRKNS_12SPIRConstantEPKjj, symObjAddr: 0x30B70, symBinAddr: 0xAB610, symSize: 0x260 }
  - { offset: 0x4EDC4E, size: 0x8, addend: 0x0, symName: __ZN11spirv_cross12CompilerGLSL28to_rerolled_array_expressionERKNS_8SPIRTypeERKNSt3__112basic_stringIcNS4_11char_traitsIcEENS4_9allocatorIcEEEES3_, symObjAddr: 0x30E30, symBinAddr: 0xAB870, symSize: 0x660 }
  - { offset: 0x4EFE0F, size: 0x8, addend: 0x0, symName: __ZN11spirv_cross12CompilerGLSL35to_composite_constructor_expressionERKNS_8SPIRTypeEjb, symObjAddr: 0x31CF0, symBinAddr: 0xABED0, symSize: 0x350 }
  - { offset: 0x4F0D20, size: 0x8, addend: 0x0, symName: __ZN11spirv_cross12CompilerGLSL31to_non_uniform_aware_expressionEj, symObjAddr: 0x32040, symBinAddr: 0xAC220, symSize: 0x70 }
  - { offset: 0x4F0EC5, size: 0x8, addend: 0x0, symName: __ZN11spirv_cross12CompilerGLSL30convert_non_uniform_expressionERNSt3__112basic_stringIcNS1_11char_traitsIcEENS1_9allocatorIcEEEEj, symObjAddr: 0x320B0, symBinAddr: 0xAC290, symSize: 0x2F0 }
  - { offset: 0x4F1E62, size: 0x8, addend: 0x0, symName: __ZNSt3__113unordered_setIjNS_4hashIjEENS_8equal_toIjEENS_9allocatorIjEEE4findB8ne180100ERKj, symObjAddr: 0x323A0, symBinAddr: 0xAC580, symSize: 0x120 }
  - { offset: 0x4F226D, size: 0x8, addend: 0x0, symName: __ZN11spirv_cross12CompilerGLSL26to_flattened_struct_memberERKNSt3__112basic_stringIcNS1_11char_traitsIcEENS1_9allocatorIcEEEERKNS_8SPIRTypeEj, symObjAddr: 0x56FA0, symBinAddr: 0xCCEF0, symSize: 0x90 }
  - { offset: 0x4F2603, size: 0x8, addend: 0x0, symName: __ZNK11spirv_cross12CompilerGLSL23expression_is_forwardedEj, symObjAddr: 0x32F40, symBinAddr: 0xACFF0, symSize: 0x130 }
  - { offset: 0x4F27EF, size: 0x8, addend: 0x0, symName: __ZN11spirv_cross12CompilerGLSL28emit_uninitialized_temporaryEjj, symObjAddr: 0x3E050, symBinAddr: 0xB7510, symSize: 0x560 }
  - { offset: 0x4F3F38, size: 0x8, addend: 0x0, symName: __ZN11spirv_cross12CompilerGLSL26get_composite_constant_idsENS_7TypedIDILNS_5TypesE3EEE, symObjAddr: 0x33160, symBinAddr: 0xAD210, symSize: 0x490 }
  - { offset: 0x4F4769, size: 0x8, addend: 0x0, symName: __ZNSt3__112__hash_tableINS_17__hash_value_typeIjN11spirv_cross11SmallVectorINS2_7TypedIDILNS2_5TypesE3EEELm8EEEEENS_22__unordered_map_hasherIjS8_NS_4hashIjEENS_8equal_toIjEELb1EEENS_21__unordered_map_equalIjS8_SD_SB_Lb1EEENS_9allocatorIS8_EEE25__emplace_unique_key_argsIjJRKNS_21piecewise_construct_tENS_5tupleIJOjEEENSO_IJEEEEEENS_4pairINS_15__hash_iteratorIPNS_11__hash_nodeIS8_PvEEEEbEERKT_DpOT0_, symObjAddr: 0xA4540, symBinAddr: 0xFCB10, symSize: 0x460 }
  - { offset: 0x4F502B, size: 0x8, addend: 0x0, symName: __ZN11spirv_cross12CompilerGLSL23fill_composite_constantERNS_12SPIRConstantENS_7TypedIDILNS_5TypesE1EEERKNS_11SmallVectorINS3_ILS4_3EEELm8EEE, symObjAddr: 0x335F0, symBinAddr: 0xAD6A0, symSize: 0x300 }
  - { offset: 0x4F5304, size: 0x8, addend: 0x0, symName: __ZN11spirv_cross12CompilerGLSL22set_composite_constantENS_7TypedIDILNS_5TypesE3EEENS1_ILS2_1EEERKNS_11SmallVectorIS3_Lm8EEE, symObjAddr: 0x338F0, symBinAddr: 0xAD9A0, symSize: 0x1E0 }
  - { offset: 0x4F5DC1, size: 0x8, addend: 0x0, symName: __ZN11spirv_cross12CompilerGLSL25get_composite_member_typeENS_7TypedIDILNS_5TypesE1EEEj, symObjAddr: 0x33AD0, symBinAddr: 0xADB80, symSize: 0xD0 }
  - { offset: 0x4F60C3, size: 0x8, addend: 0x0, symName: __ZN11spirv_cross12CompilerGLSL22constant_op_expressionERKNS_14SPIRConstantOpE, symObjAddr: 0x33BA0, symBinAddr: 0xADC50, symSize: 0x1F70 }
  - { offset: 0x4FB39A, size: 0x8, addend: 0x0, symName: __ZN11spirv_cross12CompilerGLSL21access_chain_internalEjPKjjjPNS_15AccessChainMetaE, symObjAddr: 0x364C0, symBinAddr: 0xB0570, symSize: 0x26E0 }
  - { offset: 0x5028C9, size: 0x8, addend: 0x0, symName: __ZN11spirv_cross12CompilerGLSL17to_trivial_mix_opERKNS_8SPIRTypeERNSt3__112basic_stringIcNS4_11char_traitsIcEENS4_9allocatorIcEEEEjjj, symObjAddr: 0x35D20, symBinAddr: 0xAFDD0, symSize: 0x330 }
  - { offset: 0x502E6D, size: 0x8, addend: 0x0, symName: __ZN11spirv_cross12CompilerGLSL21to_ternary_expressionERKNS_8SPIRTypeEjjj, symObjAddr: 0x36050, symBinAddr: 0xB0100, symSize: 0x360 }
  - { offset: 0x5043F5, size: 0x8, addend: 0x0, symName: __ZN11spirv_cross12CompilerGLSL24binary_op_bitcast_helperERNSt3__112basic_stringIcNS1_11char_traitsIcEENS1_9allocatorIcEEEES8_RNS_8SPIRType8BaseTypeEjjb, symObjAddr: 0x38DF0, symBinAddr: 0xB2EA0, symSize: 0x270 }
  - { offset: 0x504BF5, size: 0x8, addend: 0x0, symName: __ZN11spirv_cross12CompilerGLSL12bitcast_glslERKNS_8SPIRTypeEj, symObjAddr: 0x395A0, symBinAddr: 0xB3650, symSize: 0x110 }
  - { offset: 0x505363, size: 0x8, addend: 0x0, symName: __ZNK11spirv_cross12SPIRConstant10scalar_f16Ejj, symObjAddr: 0x3A310, symBinAddr: 0xB3EA0, symSize: 0x90 }
  - { offset: 0x505601, size: 0x8, addend: 0x0, symName: __ZN11spirv_cross12CompilerGLSL34access_chain_internal_append_indexERNSt3__112basic_stringIcNS1_11char_traitsIcEENS1_9allocatorIcEEEEjPKNS_8SPIRTypeEjRbj, symObjAddr: 0x555E0, symBinAddr: 0xCC1F0, symSize: 0x640 }
  - { offset: 0x5077D5, size: 0x8, addend: 0x0, symName: __ZN11spirv_cross12CompilerGLSL38get_expression_effective_storage_classEj, symObjAddr: 0x56AB0, symBinAddr: 0xCCBA0, symSize: 0x330 }
  - { offset: 0x507D57, size: 0x8, addend: 0x0, symName: __ZN11spirv_cross12CompilerGLSL22convert_half_to_stringERKNS_12SPIRConstantEjj, symObjAddr: 0x39BD0, symBinAddr: 0xB3760, symSize: 0x740 }
  - { offset: 0x509845, size: 0x8, addend: 0x0, symName: __ZNK11spirv_cross12CompilerGLSL12format_floatEf, symObjAddr: 0x3A8C0, symBinAddr: 0xB3F30, symSize: 0x40 }
  - { offset: 0x50989C, size: 0x8, addend: 0x0, symName: __ZN11spirv_cross12CompilerGLSL23convert_float_to_stringERKNS_12SPIRConstantEjj, symObjAddr: 0x3A900, symBinAddr: 0xB3F70, symSize: 0x750 }
  - { offset: 0x50B280, size: 0x8, addend: 0x0, symName: __ZN11spirv_cross12CompilerGLSL24convert_double_to_stringERKNS_12SPIRConstantEjj, symObjAddr: 0x3B200, symBinAddr: 0xB4870, symSize: 0x900 }
  - { offset: 0x50D371, size: 0x8, addend: 0x0, symName: __ZNK11spirv_cross12CompilerGLSL13format_doubleEd, symObjAddr: 0x3BCB0, symBinAddr: 0xB5170, symSize: 0x40 }
  - { offset: 0x50D51F, size: 0x8, addend: 0x0, symName: __ZN11spirv_cross12CompilerGLSL26constant_expression_vectorERKNS_12SPIRConstantEj, symObjAddr: 0x3BCF0, symBinAddr: 0xB51B0, symSize: 0x2360 }
  - { offset: 0x515824, size: 0x8, addend: 0x0, symName: __ZN11spirv_cross12CompilerGLSL9statementIJNSt3__112basic_stringIcNS2_11char_traitsIcEENS2_9allocatorIcEEEES8_RS8_RA2_KcEEEvDpOT_, symObjAddr: 0x3E700, symBinAddr: 0xB7BC0, symSize: 0x1A0 }
  - { offset: 0x515DAF, size: 0x8, addend: 0x0, symName: __ZN11spirv_cross8Compiler3setINS_14SPIRExpressionEJNSt3__112basic_stringIcNS3_11char_traitsIcEENS3_9allocatorIcEEEERjbEEERT_jDpOT0_, symObjAddr: 0x3E5B0, symBinAddr: 0xB7A70, symSize: 0x90 }
  - { offset: 0x515FE7, size: 0x8, addend: 0x0, symName: __ZNK11spirv_cross12CompilerGLSL36expression_suppresses_usage_trackingEj, symObjAddr: 0x3EF40, symBinAddr: 0xB8400, symSize: 0x130 }
  - { offset: 0x5161D3, size: 0x8, addend: 0x0, symName: __ZNK11spirv_cross12CompilerGLSL38expression_read_implies_multiple_readsEj, symObjAddr: 0x3F070, symBinAddr: 0xB8530, symSize: 0x50 }
  - { offset: 0x516315, size: 0x8, addend: 0x0, symName: __ZN11spirv_cross12CompilerGLSL13emit_unary_opEjjjPKc, symObjAddr: 0x3F230, symBinAddr: 0xB86F0, symSize: 0xF0 }
  - { offset: 0x51690C, size: 0x8, addend: 0x0, symName: __ZNK11spirv_cross12CompilerGLSL14should_forwardEj, symObjAddr: 0x3F320, symBinAddr: 0xB87E0, symSize: 0xE0 }
  - { offset: 0x516B76, size: 0x8, addend: 0x0, symName: __ZN11spirv_cross12CompilerGLSL18emit_unary_op_castEjjjPKc, symObjAddr: 0x3F400, symBinAddr: 0xB88C0, symSize: 0x170 }
  - { offset: 0x51743D, size: 0x8, addend: 0x0, symName: __ZN11spirv_cross12CompilerGLSL15emit_mesh_tasksERNS_9SPIRBlockE, symObjAddr: 0x3F6D0, symBinAddr: 0xB8B90, symSize: 0x130 }
  - { offset: 0x517C51, size: 0x8, addend: 0x0, symName: __ZN11spirv_cross12CompilerGLSL9statementIJRA18_KcNSt3__112basic_stringIcNS5_11char_traitsIcEENS5_9allocatorIcEEEERA3_S2_SB_SD_SB_SD_EEEvDpOT_, symObjAddr: 0x3F800, symBinAddr: 0xB8CC0, symSize: 0x150 }
  - { offset: 0x5182E7, size: 0x8, addend: 0x0, symName: __ZN11spirv_cross12CompilerGLSL14emit_binary_opEjjjjPKc, symObjAddr: 0x3F950, symBinAddr: 0xB8E10, symSize: 0x1C0 }
  - { offset: 0x518C07, size: 0x8, addend: 0x0, symName: __ZN11spirv_cross12CompilerGLSL22emit_unrolled_unary_opEjjjPKc, symObjAddr: 0x3FC70, symBinAddr: 0xB9130, symSize: 0x1A0 }
  - { offset: 0x519406, size: 0x8, addend: 0x0, symName: __ZN11spirv_cross12CompilerGLSL23emit_unrolled_binary_opEjjjjPKcbNS_8SPIRType8BaseTypeE, symObjAddr: 0x3FE10, symBinAddr: 0xB92D0, symSize: 0x750 }
  - { offset: 0x51B18F, size: 0x8, addend: 0x0, symName: __ZN11spirv_cross12CompilerGLSL20emit_complex_bitcastEjjj, symObjAddr: 0x40560, symBinAddr: 0xB9A20, symSize: 0x180 }
  - { offset: 0x51B6CA, size: 0x8, addend: 0x0, symName: __ZN11spirv_cross12CompilerGLSL19emit_binary_op_castEjjjjPKcNS_8SPIRType8BaseTypeEbb, symObjAddr: 0x40A60, symBinAddr: 0xB9D60, symSize: 0x530 }
  - { offset: 0x51D094, size: 0x8, addend: 0x0, symName: __ZN11spirv_cross12CompilerGLSL18emit_unary_func_opEjjjPKc, symObjAddr: 0x412E0, symBinAddr: 0xBA480, symSize: 0x100 }
  - { offset: 0x51D68B, size: 0x8, addend: 0x0, symName: __ZN11spirv_cross12CompilerGLSL19emit_binary_func_opEjjjjPKc, symObjAddr: 0x415D0, symBinAddr: 0xBA770, symSize: 0x1B0 }
  - { offset: 0x51DF55, size: 0x8, addend: 0x0, symName: __ZN11spirv_cross12CompilerGLSL19emit_atomic_func_opEjjjjPKc, symObjAddr: 0x41930, symBinAddr: 0xBAAD0, symSize: 0x270 }
  - { offset: 0x51ECFC, size: 0x8, addend: 0x0, symName: __ZN11spirv_cross12CompilerGLSL19emit_atomic_func_opEjjjjjPKc, symObjAddr: 0x41BA0, symBinAddr: 0xBAD40, symSize: 0x1F0 }
  - { offset: 0x51F746, size: 0x8, addend: 0x0, symName: __ZN11spirv_cross12CompilerGLSL23emit_unary_func_op_castEjjjPKcNS_8SPIRType8BaseTypeES4_, symObjAddr: 0x41F80, symBinAddr: 0xBB120, symSize: 0x5B0 }
  - { offset: 0x521386, size: 0x8, addend: 0x0, symName: __ZN11spirv_cross12CompilerGLSL31emit_trinary_func_op_bitextractEjjjjjPKcNS_8SPIRType8BaseTypeES4_S4_S4_, symObjAddr: 0x42720, symBinAddr: 0xBB6D0, symSize: 0x830 }
  - { offset: 0x5236DB, size: 0x8, addend: 0x0, symName: __ZN11spirv_cross12CompilerGLSL25emit_trinary_func_op_castEjjjjjPKcNS_8SPIRType8BaseTypeE, symObjAddr: 0x43140, symBinAddr: 0xBBF00, symSize: 0x620 }
  - { offset: 0x525115, size: 0x8, addend: 0x0, symName: __ZN11spirv_cross12CompilerGLSL34emit_binary_func_op_cast_clusteredEjjjjPKcNS_8SPIRType8BaseTypeE, symObjAddr: 0x43760, symBinAddr: 0xBC520, symSize: 0x4E0 }
  - { offset: 0x526862, size: 0x8, addend: 0x0, symName: __ZN11spirv_cross12CompilerGLSL24emit_binary_func_op_castEjjjjPKcNS_8SPIRType8BaseTypeEb, symObjAddr: 0x43DF0, symBinAddr: 0xBCA00, symSize: 0x490 }
  - { offset: 0x5280E3, size: 0x8, addend: 0x0, symName: __ZN11spirv_cross12CompilerGLSL20emit_trinary_func_opEjjjjjPKc, symObjAddr: 0x44430, symBinAddr: 0xBCE90, symSize: 0x210 }
  - { offset: 0x528C00, size: 0x8, addend: 0x0, symName: __ZN11spirv_cross12CompilerGLSL23emit_quaternary_func_opEjjjjjjPKc, symObjAddr: 0x44640, symBinAddr: 0xBD0A0, symSize: 0x2C0 }
  - { offset: 0x5299B7, size: 0x8, addend: 0x0, symName: __ZN11spirv_cross12CompilerGLSL23emit_bitfield_insert_opEjjjjjjPKcNS_8SPIRType8BaseTypeE, symObjAddr: 0x44A80, symBinAddr: 0xBD4E0, symSize: 0x6C0 }
  - { offset: 0x52B669, size: 0x8, addend: 0x0, symName: __ZN11spirv_cross12CompilerGLSL13legacy_tex_opERKNSt3__112basic_stringIcNS1_11char_traitsIcEENS1_9allocatorIcEEEERKNS_8SPIRTypeEj, symObjAddr: 0x452C0, symBinAddr: 0xBDBA0, symSize: 0xDD0 }
  - { offset: 0x52E390, size: 0x8, addend: 0x0, symName: __ZN11spirv_cross12CompilerGLSL11emit_mix_opEjjjjj, symObjAddr: 0x472B0, symBinAddr: 0xBEE90, symSize: 0x270 }
  - { offset: 0x52ED3C, size: 0x8, addend: 0x0, symName: __ZN11spirv_cross12CompilerGLSL25to_combined_image_samplerENS_7TypedIDILNS_5TypesE2EEES3_, symObjAddr: 0x47520, symBinAddr: 0xBF100, symSize: 0x4F0 }
  - { offset: 0x5303B3, size: 0x8, addend: 0x0, symName: __ZN11spirv_cross12CompilerGLSL34is_supported_subgroup_op_in_openglEN3spv2OpEPKj, symObjAddr: 0x47A10, symBinAddr: 0xBF5F0, symSize: 0x40 }
  - { offset: 0x53042A, size: 0x8, addend: 0x0, symName: __ZN11spirv_cross12CompilerGLSL21emit_sampled_image_opEjjjj, symObjAddr: 0x47A50, symBinAddr: 0xBF630, symSize: 0x110 }
  - { offset: 0x53091F, size: 0x8, addend: 0x0, symName: __ZN11spirv_cross12CompilerGLSL32emit_sparse_feedback_temporariesEjjRjS1_, symObjAddr: 0x47B60, symBinAddr: 0xBF740, symSize: 0x170 }
  - { offset: 0x530D96, size: 0x8, addend: 0x0, symName: __ZNK11spirv_cross12CompilerGLSL28get_sparse_feedback_texel_idEj, symObjAddr: 0x47CD0, symBinAddr: 0xBF8B0, symSize: 0x140 }
  - { offset: 0x530FA5, size: 0x8, addend: 0x0, symName: __ZN11spirv_cross12CompilerGLSL15emit_texture_opERKNS_11InstructionEb, symObjAddr: 0x47E10, symBinAddr: 0xBF9F0, symSize: 0x5E0 }
  - { offset: 0x532454, size: 0x8, addend: 0x0, symName: __ZN11spirv_cross12CompilerGLSL9statementIJNSt3__112basic_stringIcNS2_11char_traitsIcEENS2_9allocatorIcEEEERA4_KcRS8_RA2_S9_EEEvDpOT_, symObjAddr: 0x48480, symBinAddr: 0xC0060, symSize: 0x1A0 }
  - { offset: 0x5329A1, size: 0x8, addend: 0x0, symName: __ZNK11spirv_cross8Compiler6streamERKNS_11InstructionE, symObjAddr: 0x483F0, symBinAddr: 0xBFFD0, symSize: 0x90 }
  - { offset: 0x532B33, size: 0x8, addend: 0x0, symName: __ZN11spirv_cross12CompilerGLSL37register_control_dependent_expressionEj, symObjAddr: 0x487D0, symBinAddr: 0xC03B0, symSize: 0x180 }
  - { offset: 0x532D1A, size: 0x8, addend: 0x0, symName: __ZN11spirv_cross12CompilerGLSL13to_texture_opERKNS_11InstructionEbPbRNS_11SmallVectorIjLm8EEE, symObjAddr: 0x48950, symBinAddr: 0xC0530, symSize: 0xFA0 }
  - { offset: 0x534E9C, size: 0x8, addend: 0x0, symName: __ZNK11spirv_cross12CompilerGLSL27expression_is_constant_nullEj, symObjAddr: 0x498F0, symBinAddr: 0xC14D0, symSize: 0xA0 }
  - { offset: 0x534FC5, size: 0x8, addend: 0x0, symName: __ZN11spirv_cross7Variant3getINS_24SPIRCombinedImageSamplerEEERT_v, symObjAddr: 0xA6BB0, symBinAddr: 0xFD4A0, symSize: 0x80 }
  - { offset: 0x535047, size: 0x8, addend: 0x0, symName: __ZN11spirv_cross12CompilerGLSL34expression_is_non_value_type_arrayEj, symObjAddr: 0x49990, symBinAddr: 0xC1570, symSize: 0x90 }
  - { offset: 0x5351FA, size: 0x8, addend: 0x0, symName: __ZN11spirv_cross12CompilerGLSL16to_function_nameERKNS0_28TextureFunctionNameArgumentsE, symObjAddr: 0x49A20, symBinAddr: 0xC1600, symSize: 0x410 }
  - { offset: 0x535E56, size: 0x8, addend: 0x0, symName: __ZN11spirv_cross12CompilerGLSL36convert_separate_image_to_expressionEj, symObjAddr: 0x49E30, symBinAddr: 0xC1A10, symSize: 0x4A0 }
  - { offset: 0x5372F3, size: 0x8, addend: 0x0, symName: __ZN11spirv_cross12CompilerGLSL16to_function_argsERKNS0_24TextureFunctionArgumentsEPb, symObjAddr: 0x4A2D0, symBinAddr: 0xC1EB0, symSize: 0x1D50 }
  - { offset: 0x53D615, size: 0x8, addend: 0x0, symName: __ZN11spirv_cross12CompilerGLSL18bitcast_expressionENS_8SPIRType8BaseTypeEj, symObjAddr: 0x4C660, symBinAddr: 0xC3D60, symSize: 0x250 }
  - { offset: 0x53E2B1, size: 0x8, addend: 0x0, symName: __ZNK11spirv_cross12CompilerGLSL21get_remapped_spirv_opEN3spv2OpE, symObjAddr: 0x4C8B0, symBinAddr: 0xC3FB0, symSize: 0x40 }
  - { offset: 0x53E2DC, size: 0x8, addend: 0x0, symName: __ZNK11spirv_cross12CompilerGLSL20get_remapped_glsl_opE10GLSLstd450, symObjAddr: 0x4C8F0, symBinAddr: 0xC3FF0, symSize: 0x20 }
  - { offset: 0x53E38B, size: 0x8, addend: 0x0, symName: __ZN11spirv_cross12CompilerGLSL12emit_glsl_opEjjjPKjj, symObjAddr: 0x4C910, symBinAddr: 0xC4010, symSize: 0x2A50 }
  - { offset: 0x5438D2, size: 0x8, addend: 0x0, symName: __ZNK11spirv_cross12CompilerGLSL38get_integer_width_for_glsl_instructionE10GLSLstd450PKjj, symObjAddr: 0x4F360, symBinAddr: 0xC6A60, symSize: 0x150 }
  - { offset: 0x54392F, size: 0x8, addend: 0x0, symName: __ZN11spirv_cross12CompilerGLSL15emit_nminmax_opEjjjj10GLSLstd450, symObjAddr: 0x50E70, symBinAddr: 0xC7C20, symSize: 0x4E0 }
  - { offset: 0x54477F, size: 0x8, addend: 0x0, symName: __ZN11spirv_cross12CompilerGLSL26register_call_out_argumentEj, symObjAddr: 0x4F7C0, symBinAddr: 0xC6BB0, symSize: 0x50 }
  - { offset: 0x544898, size: 0x8, addend: 0x0, symName: __ZN11spirv_cross12CompilerGLSL9statementIJNSt3__112basic_stringIcNS2_11char_traitsIcEENS2_9allocatorIcEEEERA4_KcS8_RA2_S9_S8_SD_S8_SB_EEEvDpOT_, symObjAddr: 0x4F810, symBinAddr: 0xC6C00, symSize: 0x1A0 }
  - { offset: 0x544CA5, size: 0x8, addend: 0x0, symName: __ZN11spirv_cross12CompilerGLSL9statementIJNSt3__112basic_stringIcNS2_11char_traitsIcEENS2_9allocatorIcEEEERA2_KcS8_RA4_S9_S8_SB_S8_SB_S8_SD_EEEvDpOT_, symObjAddr: 0x4FBB0, symBinAddr: 0xC6FA0, symSize: 0x1E0 }
  - { offset: 0x545251, size: 0x8, addend: 0x0, symName: __ZN11spirv_cross12CompilerGLSL9statementIJNSt3__112basic_stringIcNS2_11char_traitsIcEENS2_9allocatorIcEEEERA2_KcS8_RA4_S9_S8_SD_S8_SB_S8_SB_EEEvDpOT_, symObjAddr: 0x4FD90, symBinAddr: 0xC7180, symSize: 0x1E0 }
  - { offset: 0x5457FD, size: 0x8, addend: 0x0, symName: __ZN11spirv_cross12CompilerGLSL23emit_emulated_ahyper_opEjjj10GLSLstd450, symObjAddr: 0x50670, symBinAddr: 0xC7580, symSize: 0x4A0 }
  - { offset: 0x5467F0, size: 0x8, addend: 0x0, symName: __ZN11spirv_cross12CompilerGLSL9statementIJNSt3__112basic_stringIcNS2_11char_traitsIcEENS2_9allocatorIcEEEERA2_KcS8_RA4_S9_RA7_S9_S8_RA3_S9_S8_SB_S8_SH_EEEvDpOT_, symObjAddr: 0x50B10, symBinAddr: 0xC7A20, symSize: 0x200 }
  - { offset: 0x546E6F, size: 0x8, addend: 0x0, symName: __ZN11spirv_cross12CompilerGLSL9statementIJRA26_KcRjEEEvDpOT_, symObjAddr: 0x51350, symBinAddr: 0xC8100, symSize: 0x120 }
  - { offset: 0x5470F2, size: 0x8, addend: 0x0, symName: __ZN11spirv_cross12CompilerGLSL9statementIJNSt3__112basic_stringIcNS2_11char_traitsIcEENS2_9allocatorIcEEEERA2_KcS8_RA4_S9_RA6_S9_S8_RA3_S9_S8_SB_S8_SH_EEEvDpOT_, symObjAddr: 0x4F9B0, symBinAddr: 0xC6DA0, symSize: 0x200 }
  - { offset: 0x547771, size: 0x8, addend: 0x0, symName: __ZN11spirv_cross12CompilerGLSL26flush_variable_declarationEj, symObjAddr: 0x5A020, symBinAddr: 0xCFDB0, symSize: 0x1B0 }
  - { offset: 0x5499AC, size: 0x8, addend: 0x0, symName: __ZN11spirv_cross12CompilerGLSL9statementIJRA43_KcRjEEEvDpOT_, symObjAddr: 0x51DF0, symBinAddr: 0xC8BA0, symSize: 0x120 }
  - { offset: 0x549C73, size: 0x8, addend: 0x0, symName: __ZN11spirv_cross12CompilerGLSL9statementIJRA62_KcRjEEEvDpOT_, symObjAddr: 0x52000, symBinAddr: 0xC8DB0, symSize: 0x120 }
  - { offset: 0x549F3A, size: 0x8, addend: 0x0, symName: __ZN11spirv_cross12CompilerGLSL9statementIJRA51_KcRjEEEvDpOT_, symObjAddr: 0x52250, symBinAddr: 0xC9000, symSize: 0x120 }
  - { offset: 0x54A201, size: 0x8, addend: 0x0, symName: __ZN11spirv_cross12CompilerGLSL9statementIJRA40_KcRjEEEvDpOT_, symObjAddr: 0x525E0, symBinAddr: 0xC9390, symSize: 0x120 }
  - { offset: 0x54A4C8, size: 0x8, addend: 0x0, symName: __ZN11spirv_cross12CompilerGLSL16emit_subgroup_opERKNS_11InstructionE, symObjAddr: 0x52700, symBinAddr: 0xC94B0, symSize: 0x1400 }
  - { offset: 0x54C16B, size: 0x8, addend: 0x0, symName: __ZNK11spirv_cross12CompilerGLSL33get_integer_width_for_instructionERKNS_11InstructionE, symObjAddr: 0x53B00, symBinAddr: 0xCA8B0, symSize: 0xE0 }
  - { offset: 0x54C399, size: 0x8, addend: 0x0, symName: __ZN11spirv_cross12CompilerGLSL15bitcast_glsl_opERKNS_8SPIRTypeES3_, symObjAddr: 0x53BE0, symBinAddr: 0xCA990, symSize: 0x600 }
  - { offset: 0x54D767, size: 0x8, addend: 0x0, symName: __ZN11spirv_cross12CompilerGLSL15builtin_to_glslEN3spv7BuiltInENS1_12StorageClassE, symObjAddr: 0x541E0, symBinAddr: 0xCAF90, symSize: 0x1260 }
  - { offset: 0x54F9AE, size: 0x8, addend: 0x0, symName: __ZN11spirv_cross12CompilerGLSL47access_chain_needs_stage_io_builtin_translationEj, symObjAddr: 0x55C20, symBinAddr: 0xCC830, symSize: 0x10 }
  - { offset: 0x54F9DD, size: 0x8, addend: 0x0, symName: __ZN11spirv_cross12CompilerGLSL13to_array_sizeERKNS_8SPIRTypeEj, symObjAddr: 0x55DF0, symBinAddr: 0xCC840, symSize: 0x60 }
  - { offset: 0x54FBFE, size: 0x8, addend: 0x0, symName: __ZNK11spirv_cross12CompilerGLSL25is_per_primitive_variableERKNS_12SPIRVariableE, symObjAddr: 0x56810, symBinAddr: 0xCCAA0, symSize: 0xC0 }
  - { offset: 0x54FD43, size: 0x8, addend: 0x0, symName: __ZNK11spirv_cross12CompilerGLSL30member_is_packed_physical_typeERKNS_8SPIRTypeEj, symObjAddr: 0x56A70, symBinAddr: 0xCCB60, symSize: 0x20 }
  - { offset: 0x54FD97, size: 0x8, addend: 0x0, symName: __ZNK11spirv_cross12CompilerGLSL32member_is_remapped_physical_typeERKNS_8SPIRTypeEj, symObjAddr: 0x56A90, symBinAddr: 0xCCB80, symSize: 0x20 }
  - { offset: 0x54FDEB, size: 0x8, addend: 0x0, symName: __ZN11spirv_cross12CompilerGLSL24check_physical_type_castERNSt3__112basic_stringIcNS1_11char_traitsIcEENS1_9allocatorIcEEEEPKNS_8SPIRTypeEj, symObjAddr: 0x56F80, symBinAddr: 0xCCED0, symSize: 0x10 }
  - { offset: 0x54FE2C, size: 0x8, addend: 0x0, symName: __ZN11spirv_cross12CompilerGLSL38prepare_access_chain_for_scalar_accessERNSt3__112basic_stringIcNS1_11char_traitsIcEENS1_9allocatorIcEEEERKNS_8SPIRTypeEN3spv12StorageClassERb, symObjAddr: 0x56F90, symBinAddr: 0xCCEE0, symSize: 0x10 }
  - { offset: 0x54FED8, size: 0x8, addend: 0x0, symName: __ZN11spirv_cross12CompilerGLSL12access_chainEjPKjjRKNS_8SPIRTypeEPNS_15AccessChainMetaEb, symObjAddr: 0x571F0, symBinAddr: 0xCD140, symSize: 0x5F0 }
  - { offset: 0x551571, size: 0x8, addend: 0x0, symName: __ZN11spirv_cross12CompilerGLSL29flattened_access_chain_offsetERKNS_8SPIRTypeEPKjjjjPbPjS7_b, symObjAddr: 0x577E0, symBinAddr: 0xCD730, symSize: 0xA40 }
  - { offset: 0x553A3A, size: 0x8, addend: 0x0, symName: __ZN11spirv_cross12CompilerGLSL22flattened_access_chainEjPKjjRKNS_8SPIRTypeEjjjb, symObjAddr: 0x58220, symBinAddr: 0xCE170, symSize: 0xC0 }
  - { offset: 0x553B53, size: 0x8, addend: 0x0, symName: __ZNSt3__112__hash_tableINS_17__hash_value_typeIjbEENS_22__unordered_map_hasherIjS2_NS_4hashIjEENS_8equal_toIjEELb1EEENS_21__unordered_map_equalIjS2_S7_S5_Lb1EEENS_9allocatorIS2_EEE25__emplace_unique_key_argsIjJRKNS_21piecewise_construct_tENS_5tupleIJRKjEEENSI_IJEEEEEENS_4pairINS_15__hash_iteratorIPNS_11__hash_nodeIS2_PvEEEEbEERKT_DpOT0_, symObjAddr: 0xA8C90, symBinAddr: 0xFDF10, symSize: 0x430 }
  - { offset: 0x554377, size: 0x8, addend: 0x0, symName: __ZN11spirv_cross12CompilerGLSL36to_flattened_access_chain_expressionEj, symObjAddr: 0x582E0, symBinAddr: 0xCE230, symSize: 0xC0 }
  - { offset: 0x5547DE, size: 0x8, addend: 0x0, symName: __ZN11spirv_cross12CompilerGLSL29flattened_access_chain_structEjPKjjRKNS_8SPIRTypeEj, symObjAddr: 0x58F70, symBinAddr: 0xCED00, symSize: 0x3F0 }
  - { offset: 0x555B84, size: 0x8, addend: 0x0, symName: __ZN11spirv_cross12CompilerGLSL29flattened_access_chain_matrixEjPKjjRKNS_8SPIRTypeEjjb, symObjAddr: 0x59360, symBinAddr: 0xCF0F0, symSize: 0x3E0 }
  - { offset: 0x556A45, size: 0x8, addend: 0x0, symName: __ZN11spirv_cross12CompilerGLSL29flattened_access_chain_vectorEjPKjjRKNS_8SPIRTypeEjjb, symObjAddr: 0x59740, symBinAddr: 0xCF4D0, symSize: 0x3C0 }
  - { offset: 0x557DC8, size: 0x8, addend: 0x0, symName: __ZN11spirv_cross12CompilerGLSL22store_flattened_structERKNSt3__112basic_stringIcNS1_11char_traitsIcEENS1_9allocatorIcEEEEjRKNS_8SPIRTypeERKNS_11SmallVectorIjLm8EEE, symObjAddr: 0x58560, symBinAddr: 0xCE2F0, symSize: 0x620 }
  - { offset: 0x559160, size: 0x8, addend: 0x0, symName: __ZN11spirv_cross12CompilerGLSL25to_multi_member_referenceERKNS_8SPIRTypeERKNS_11SmallVectorIjLm8EEE, symObjAddr: 0x58B80, symBinAddr: 0xCE910, symSize: 0x160 }
  - { offset: 0x559AC5, size: 0x8, addend: 0x0, symName: __ZN11spirv_cross12CompilerGLSL9statementIJRNSt3__112basic_stringIcNS2_11char_traitsIcEENS2_9allocatorIcEEEERA4_KcS9_RA2_SA_EEEvDpOT_, symObjAddr: 0x58CE0, symBinAddr: 0xCEA70, symSize: 0x1A0 }
  - { offset: 0x559FF9, size: 0x8, addend: 0x0, symName: __ZN11spirv_cross12CompilerGLSL22store_flattened_structEjj, symObjAddr: 0x58E80, symBinAddr: 0xCEC10, symSize: 0xF0 }
  - { offset: 0x55A473, size: 0x8, addend: 0x0, symName: __ZNK11spirv_cross12CompilerGLSL30should_suppress_usage_trackingEj, symObjAddr: 0x59B00, symBinAddr: 0xCF890, symSize: 0x250 }
  - { offset: 0x55A85F, size: 0x8, addend: 0x0, symName: __ZN11spirv_cross12CompilerGLSL17args_will_forwardEjPKjjb, symObjAddr: 0x59D50, symBinAddr: 0xCFAE0, symSize: 0x210 }
  - { offset: 0x55ABA3, size: 0x8, addend: 0x0, symName: __ZN11spirv_cross12CompilerGLSL29register_impure_function_callEv, symObjAddr: 0x59F60, symBinAddr: 0xCFCF0, symSize: 0xC0 }
  - { offset: 0x55ADA7, size: 0x8, addend: 0x0, symName: __ZN11spirv_cross12CompilerGLSL30emit_variable_temporary_copiesERKNS_12SPIRVariableE, symObjAddr: 0x5A210, symBinAddr: 0xCFFA0, symSize: 0x290 }
  - { offset: 0x55B82E, size: 0x8, addend: 0x0, symName: __ZN11spirv_cross12CompilerGLSL28variable_decl_function_localERNS_12SPIRVariableE, symObjAddr: 0x5A1D0, symBinAddr: 0xCFF60, symSize: 0x40 }
  - { offset: 0x55B894, size: 0x8, addend: 0x0, symName: __ZN11spirv_cross12CompilerGLSL24build_composite_combinerEjPKjj, symObjAddr: 0x5A670, symBinAddr: 0xD0400, symSize: 0x380 }
  - { offset: 0x55C857, size: 0x8, addend: 0x0, symName: __ZNK11spirv_cross12CompilerGLSL13skip_argumentEj, symObjAddr: 0x5A9F0, symBinAddr: 0xD0780, symSize: 0x40 }
  - { offset: 0x55C980, size: 0x8, addend: 0x0, symName: __ZN11spirv_cross12CompilerGLSL26optimize_read_modify_writeERKNS_8SPIRTypeERKNSt3__112basic_stringIcNS4_11char_traitsIcEENS4_9allocatorIcEEEESC_, symObjAddr: 0x5AA30, symBinAddr: 0xD07C0, symSize: 0x360 }
  - { offset: 0x55D2EC, size: 0x8, addend: 0x0, symName: __ZN11spirv_cross12CompilerGLSL9statementIJRKNSt3__112basic_stringIcNS2_11char_traitsIcEENS2_9allocatorIcEEEERcSB_RA2_KcEEEvDpOT_, symObjAddr: 0x5AD90, symBinAddr: 0xD0B20, symSize: 0x190 }
  - { offset: 0x55D74D, size: 0x8, addend: 0x0, symName: __ZN11spirv_cross12CompilerGLSL9statementIJRKNSt3__112basic_stringIcNS2_11char_traitsIcEENS2_9allocatorIcEEEERA2_KcRcRA3_SB_RS8_SD_EEEvDpOT_, symObjAddr: 0x5AF20, symBinAddr: 0xD0CB0, symSize: 0x130 }
  - { offset: 0x55DABA, size: 0x8, addend: 0x0, symName: __ZN11spirv_cross12CompilerGLSL15statement_innerIRKNSt3__112basic_stringIcNS2_11char_traitsIcEENS2_9allocatorIcEEEEJRA2_KcRcRA3_SB_RS8_SD_EEEvOT_DpOT0_, symObjAddr: 0xA9670, symBinAddr: 0xFE690, symSize: 0x100 }
  - { offset: 0x55DFDD, size: 0x8, addend: 0x0, symName: __ZN11spirv_cross12CompilerGLSL23emit_block_instructionsERNS_9SPIRBlockE, symObjAddr: 0x5B050, symBinAddr: 0xD0DE0, symSize: 0xCF0 }
  - { offset: 0x55EB56, size: 0x8, addend: 0x0, symName: __ZN11spirv_cross12CompilerGLSL28handle_instruction_precisionERKNS_11InstructionE, symObjAddr: 0x5BD40, symBinAddr: 0xD1AD0, symSize: 0x7C0 }
  - { offset: 0x55F1E0, size: 0x8, addend: 0x0, symName: __ZN11spirv_cross12CompilerGLSL30analyze_precision_requirementsEjjPjj, symObjAddr: 0x5D310, symBinAddr: 0xD30A0, symSize: 0x1F0 }
  - { offset: 0x55F5CA, size: 0x8, addend: 0x0, symName: __ZN11spirv_cross12CompilerGLSL39disallow_forwarding_in_expression_chainERKNS_14SPIRExpressionE, symObjAddr: 0x5C500, symBinAddr: 0xD2290, symSize: 0x3A0 }
  - { offset: 0x55FD78, size: 0x8, addend: 0x0, symName: __ZN11spirv_cross12CompilerGLSL34handle_store_to_invariant_variableEjj, symObjAddr: 0x5C8A0, symBinAddr: 0xD2630, symSize: 0x50 }
  - { offset: 0x55FEBA, size: 0x8, addend: 0x0, symName: __ZN11spirv_cross12CompilerGLSL20emit_store_statementEjj, symObjAddr: 0x5C8F0, symBinAddr: 0xD2680, symSize: 0x1B0 }
  - { offset: 0x560676, size: 0x8, addend: 0x0, symName: __ZN11spirv_cross12CompilerGLSL29unroll_array_to_complex_storeEjj, symObjAddr: 0x5CAA0, symBinAddr: 0xD2830, symSize: 0x6D0 }
  - { offset: 0x56219C, size: 0x8, addend: 0x0, symName: __ZN11spirv_cross12CompilerGLSL9statementIJRA25_KcRNSt3__112basic_stringIcNS5_11char_traitsIcEENS5_9allocatorIcEEEERA8_S2_EEEvDpOT_, symObjAddr: 0x84610, symBinAddr: 0xF4220, symSize: 0x160 }
  - { offset: 0x562557, size: 0x8, addend: 0x0, symName: __ZN11spirv_cross12CompilerGLSL25forward_relaxed_precisionEjPKjj, symObjAddr: 0x5D170, symBinAddr: 0xD2F00, symSize: 0xE0 }
  - { offset: 0x562654, size: 0x8, addend: 0x0, symName: __ZNK11spirv_cross12CompilerGLSL28analyze_expression_precisionEPKjj, symObjAddr: 0x5D250, symBinAddr: 0xD2FE0, symSize: 0xC0 }
  - { offset: 0x562852, size: 0x8, addend: 0x0, symName: __ZN11spirv_cross12CompilerGLSL16emit_instructionERKNS_11InstructionE, symObjAddr: 0x5D500, symBinAddr: 0xD3290, symSize: 0xECF0 }
  - { offset: 0x582F83, size: 0x8, addend: 0x0, symName: __ZN11spirv_cross12CompilerGLSL9statementIJRA19_KcNSt3__112basic_stringIcNS5_11char_traitsIcEENS5_9allocatorIcEEEERA3_S2_SB_SD_EEEvDpOT_, symObjAddr: 0x72A20, symBinAddr: 0xE5CF0, symSize: 0x1D0 }
  - { offset: 0x58350E, size: 0x8, addend: 0x0, symName: __ZN11spirv_cross12CompilerGLSL18check_atomic_imageEj, symObjAddr: 0x6F140, symBinAddr: 0xE3ED0, symSize: 0x120 }
  - { offset: 0x583BBC, size: 0x8, addend: 0x0, symName: __ZN11spirv_cross12CompilerGLSL9statementIJRA33_KcNSt3__112basic_stringIcNS5_11char_traitsIcEENS5_9allocatorIcEEEERA3_S2_SB_SD_EEEvDpOT_, symObjAddr: 0x73130, symBinAddr: 0xE6400, symSize: 0x1D0 }
  - { offset: 0x584147, size: 0x8, addend: 0x0, symName: __ZN11spirv_cross12CompilerGLSL9statementIJRA20_KcNSt3__112basic_stringIcNS5_11char_traitsIcEENS5_9allocatorIcEEEERA3_S2_jSD_EEEvDpOT_, symObjAddr: 0x72BF0, symBinAddr: 0xE5EC0, symSize: 0x1B0 }
  - { offset: 0x584639, size: 0x8, addend: 0x0, symName: __ZN11spirv_cross12CompilerGLSL9statementIJRA13_KcNSt3__112basic_stringIcNS5_11char_traitsIcEENS5_9allocatorIcEEEERA3_S2_SB_SD_SB_SD_SB_SD_SB_SD_SB_SD_SB_SD_SB_SD_SB_SD_SB_SD_jSD_EEEvDpOT_, symObjAddr: 0x727B0, symBinAddr: 0xE5A80, symSize: 0x270 }
  - { offset: 0x584D90, size: 0x8, addend: 0x0, symName: __ZN11spirv_cross12CompilerGLSL9statementIJRA23_KcNSt3__112basic_stringIcNS5_11char_traitsIcEENS5_9allocatorIcEEEERA3_S2_SB_SD_SB_SD_SB_SD_SB_SD_SB_SD_SB_SD_SB_SD_EEEvDpOT_, symObjAddr: 0x72DA0, symBinAddr: 0xE6070, symSize: 0x230 }
  - { offset: 0x585463, size: 0x8, addend: 0x0, symName: __ZN11spirv_cross12CompilerGLSL9statementIJRA22_KcNSt3__112basic_stringIcNS5_11char_traitsIcEENS5_9allocatorIcEEEERA3_S2_EEEvDpOT_, symObjAddr: 0x72FD0, symBinAddr: 0xE62A0, symSize: 0x160 }
  - { offset: 0x58581E, size: 0x8, addend: 0x0, symName: __ZN11spirv_cross12CompilerGLSL9statementIJRA32_KcNSt3__112basic_stringIcNS5_11char_traitsIcEENS5_9allocatorIcEEEERA3_S2_EEEvDpOT_, symObjAddr: 0x73300, symBinAddr: 0xE65D0, symSize: 0x160 }
  - { offset: 0x585BD9, size: 0x8, addend: 0x0, symName: __ZN11spirv_cross12CompilerGLSL9statementIJRA14_KcEEEvDpOT_, symObjAddr: 0x6F6F0, symBinAddr: 0xE42D0, symSize: 0x100 }
  - { offset: 0x585DF0, size: 0x8, addend: 0x0, symName: __ZN11spirv_cross12CompilerGLSL9statementIJRA18_KcRNSt3__112basic_stringIcNS5_11char_traitsIcEENS5_9allocatorIcEEEERA3_S2_EEEvDpOT_, symObjAddr: 0x6F9B0, symBinAddr: 0xE43D0, symSize: 0x160 }
  - { offset: 0x5861AB, size: 0x8, addend: 0x0, symName: __ZN11spirv_cross12CompilerGLSL22emit_copy_logical_typeEjjjjNS_11SmallVectorIjLm8EEE, symObjAddr: 0x6D390, symBinAddr: 0xE2EB0, symSize: 0x8E0 }
  - { offset: 0x587699, size: 0x8, addend: 0x0, symName: __ZN11spirv_cross8Compiler3setINS_14SPIRExpressionEJRNSt3__112basic_stringIcNS3_11char_traitsIcEENS3_9allocatorIcEEEERjbEEERT_jDpOT0_, symObjAddr: 0x713C0, symBinAddr: 0xE4A10, symSize: 0x90 }
  - { offset: 0x587878, size: 0x8, addend: 0x0, symName: __ZN11spirv_cross12CompilerGLSL9statementIJRA12_KcNSt3__112basic_stringIcNS5_11char_traitsIcEENS5_9allocatorIcEEEERA3_S2_RSB_SD_SB_SD_SB_SD_EEEvDpOT_, symObjAddr: 0x71450, symBinAddr: 0xE4AA0, symSize: 0x1C0 }
  - { offset: 0x587D3A, size: 0x8, addend: 0x0, symName: __ZN11spirv_cross12CompilerGLSL9statementIJRNSt3__112basic_stringIcNS2_11char_traitsIcEENS2_9allocatorIcEEEERA4_KcS8_RA2_SA_EEEvDpOT_, symObjAddr: 0x6D1F0, symBinAddr: 0xE2D10, symSize: 0x1A0 }
  - { offset: 0x588206, size: 0x8, addend: 0x0, symName: __ZN11spirv_cross12CompilerGLSL9statementIJRPKcRA2_S2_NSt3__112basic_stringIcNS7_11char_traitsIcEENS7_9allocatorIcEEEERA3_S2_SD_SF_EEEvDpOT_, symObjAddr: 0x6F410, symBinAddr: 0xE41A0, symSize: 0x130 }
  - { offset: 0x588471, size: 0x8, addend: 0x0, symName: __ZN11spirv_cross12CompilerGLSL9statementIJRA20_KcRNSt3__112basic_stringIcNS5_11char_traitsIcEENS5_9allocatorIcEEEERA3_S2_EEEvDpOT_, symObjAddr: 0x6FB10, symBinAddr: 0xE4530, symSize: 0x160 }
  - { offset: 0x58882C, size: 0x8, addend: 0x0, symName: __ZN11spirv_cross12CompilerGLSL9statementIJRA9_KcNSt3__112basic_stringIcNS5_11char_traitsIcEENS5_9allocatorIcEEEERA3_S2_SB_SD_SB_SD_SB_SD_SB_SD_SB_SD_SB_SD_SB_SD_SB_SD_SB_SD_SB_SD_EEEvDpOT_, symObjAddr: 0x72540, symBinAddr: 0xE5810, symSize: 0x270 }
  - { offset: 0x588F83, size: 0x8, addend: 0x0, symName: __ZN11spirv_cross12CompilerGLSL9statementIJRNSt3__112basic_stringIcNS2_11char_traitsIcEENS2_9allocatorIcEEEERA2_KcEEEvDpOT_, symObjAddr: 0x6D0B0, symBinAddr: 0xE2BD0, symSize: 0x140 }
  - { offset: 0x589293, size: 0x8, addend: 0x0, symName: __ZN11spirv_cross12CompilerGLSL9statementIJRPKcRA2_S2_NSt3__112basic_stringIcNS7_11char_traitsIcEENS7_9allocatorIcEEEERA3_S2_SD_SF_SD_S6_SD_SF_SD_S6_SD_SF_EEEvDpOT_, symObjAddr: 0x6E330, symBinAddr: 0xE3B30, symSize: 0x1B0 }
  - { offset: 0x589707, size: 0x8, addend: 0x0, symName: __ZN11spirv_cross8Compiler3setINS_15SPIRAccessChainEJRS2_EEERT_jDpOT0_, symObjAddr: 0x6DC70, symBinAddr: 0xE3790, symSize: 0x70 }
  - { offset: 0x589861, size: 0x8, addend: 0x0, symName: __ZN11spirv_cross12CompilerGLSL9statementIJNSt3__112basic_stringIcNS2_11char_traitsIcEENS2_9allocatorIcEEEERA2_KcS8_RA4_S9_RPS9_SB_S8_RA3_S9_S8_SH_S8_SB_S8_SH_EEEvDpOT_, symObjAddr: 0x6E170, symBinAddr: 0xE3970, symSize: 0x1C0 }
  - { offset: 0x589CEF, size: 0x8, addend: 0x0, symName: __ZN11spirv_cross12CompilerGLSL9statementIJRA21_KcRKtEEEvDpOT_, symObjAddr: 0x75280, symBinAddr: 0xE69F0, symSize: 0x120 }
  - { offset: 0x589F79, size: 0x8, addend: 0x0, symName: __ZN11spirv_cross12CompilerGLSL9statementIJNSt3__112basic_stringIcNS2_11char_traitsIcEENS2_9allocatorIcEEEERA23_KcS8_RA3_S9_RS8_SD_S8_SD_S8_SD_EEEvDpOT_, symObjAddr: 0x70B40, symBinAddr: 0xE4690, symSize: 0x1E0 }
  - { offset: 0x58A525, size: 0x8, addend: 0x0, symName: __ZN11spirv_cross8Compiler3setINS_24SPIRCombinedImageSamplerEJRS2_EEERT_jDpOT0_, symObjAddr: 0x6DCE0, symBinAddr: 0xE3800, symSize: 0x70 }
  - { offset: 0x58A67F, size: 0x8, addend: 0x0, symName: __ZN11spirv_cross12CompilerGLSL9statementIJNSt3__112basic_stringIcNS2_11char_traitsIcEENS2_9allocatorIcEEEERA2_KcS8_S8_SB_EEEvDpOT_, symObjAddr: 0x6CD20, symBinAddr: 0xE2840, symSize: 0x1D0 }
  - { offset: 0x58AC49, size: 0x8, addend: 0x0, symName: __ZN11spirv_cross12CompilerGLSL23append_global_func_argsERKNS_12SPIRFunctionEjRNS_11SmallVectorINSt3__112basic_stringIcNS5_11char_traitsIcEENS5_9allocatorIcEEEELm8EEE, symObjAddr: 0x6CEF0, symBinAddr: 0xE2A10, symSize: 0xE0 }
  - { offset: 0x58AED2, size: 0x8, addend: 0x0, symName: __ZN11spirv_cross12CompilerGLSL31check_function_call_constraintsEPKjj, symObjAddr: 0x6CFD0, symBinAddr: 0xE2AF0, symSize: 0xE0 }
  - { offset: 0x58B0AE, size: 0x8, addend: 0x0, symName: __ZN11spirv_cross12CompilerGLSL9statementIJRA12_KcNSt3__112basic_stringIcNS5_11char_traitsIcEENS5_9allocatorIcEEEERA3_S2_RSB_SD_SB_SD_EEEvDpOT_, symObjAddr: 0x71610, symBinAddr: 0xE4C60, symSize: 0x150 }
  - { offset: 0x58B3D7, size: 0x8, addend: 0x0, symName: __ZN11spirv_cross12CompilerGLSL30unroll_array_from_complex_loadEjjRNSt3__112basic_stringIcNS1_11char_traitsIcEENS1_9allocatorIcEEEE, symObjAddr: 0x6C1F0, symBinAddr: 0xE1F80, symSize: 0x650 }
  - { offset: 0x58CB02, size: 0x8, addend: 0x0, symName: __ZN11spirv_cross12CompilerGLSL34rewrite_load_for_wrapped_row_majorERNSt3__112basic_stringIcNS1_11char_traitsIcEENS1_9allocatorIcEEEENS_7TypedIDILNS_5TypesE1EEENS9_ILSA_0EEE, symObjAddr: 0x6C840, symBinAddr: 0xE25D0, symSize: 0x270 }
  - { offset: 0x58D35D, size: 0x8, addend: 0x0, symName: __ZN11spirv_cross12CompilerGLSL9statementIJNSt3__112basic_stringIcNS2_11char_traitsIcEENS2_9allocatorIcEEEERA23_KcS8_RA3_S9_RS8_SD_S8_SD_EEEvDpOT_, symObjAddr: 0x70D20, symBinAddr: 0xE4870, symSize: 0x1A0 }
  - { offset: 0x58D76A, size: 0x8, addend: 0x0, symName: __ZN11spirv_cross7Variant3getINS_10SPIRStringEEERT_v, symObjAddr: 0xAD3E0, symBinAddr: 0xFF770, symSize: 0x80 }
  - { offset: 0x58D7B6, size: 0x8, addend: 0x0, symName: __ZN11spirv_cross12CompilerGLSL9statementIJRA25_KcRKtEEEvDpOT_, symObjAddr: 0x71F70, symBinAddr: 0xE5240, symSize: 0x120 }
  - { offset: 0x58DA40, size: 0x8, addend: 0x0, symName: __ZN11spirv_cross12CompilerGLSL9statementIJRNSt3__112basic_stringIcNS2_11char_traitsIcEENS2_9allocatorIcEEEERA3_KcEEEvDpOT_, symObjAddr: 0x71E30, symBinAddr: 0xE5100, symSize: 0x140 }
  - { offset: 0x58DD50, size: 0x8, addend: 0x0, symName: __ZN11spirv_cross12CompilerGLSL9statementIJRA19_KcEEEvDpOT_, symObjAddr: 0x71B70, symBinAddr: 0xE5000, symSize: 0x100 }
  - { offset: 0x58DF67, size: 0x8, addend: 0x0, symName: __ZN11spirv_cross12CompilerGLSL9statementIJRA11_KcEEEvDpOT_, symObjAddr: 0x71920, symBinAddr: 0xE4DB0, symSize: 0x100 }
  - { offset: 0x58E17E, size: 0x8, addend: 0x0, symName: __ZN11spirv_cross12CompilerGLSL9statementIJRA31_KcEEEvDpOT_, symObjAddr: 0x71A70, symBinAddr: 0xE4F00, symSize: 0x100 }
  - { offset: 0x58E395, size: 0x8, addend: 0x0, symName: __ZN11spirv_cross11SmallVectorINS_7TypedIDILNS_5TypesE0EEELm8EEaSERKS4_, symObjAddr: 0x6DD50, symBinAddr: 0xE3870, symSize: 0x100 }
  - { offset: 0x58E410, size: 0x8, addend: 0x0, symName: __ZN11spirv_cross12CompilerGLSL9statementIJRNSt3__112basic_stringIcNS2_11char_traitsIcEENS2_9allocatorIcEEEERA7_KcS8_RA2_SA_EEEvDpOT_, symObjAddr: 0x84AB0, symBinAddr: 0xF4520, symSize: 0x1A0 }
  - { offset: 0x58E8DC, size: 0x8, addend: 0x0, symName: __ZN11spirv_cross12CompilerGLSL9statementIJRNSt3__112basic_stringIcNS2_11char_traitsIcEENS2_9allocatorIcEEEERA16_KcS9_RA2_SA_EEEvDpOT_, symObjAddr: 0x84910, symBinAddr: 0xF4380, symSize: 0x1A0 }
  - { offset: 0x58EDA8, size: 0x8, addend: 0x0, symName: __ZN11spirv_cross12CompilerGLSL9statementIJRNSt3__112basic_stringIcNS2_11char_traitsIcEENS2_9allocatorIcEEEERA7_KcS9_RA5_SA_EEEvDpOT_, symObjAddr: 0x84DF0, symBinAddr: 0xF46C0, symSize: 0x1A0 }
  - { offset: 0x58F7FC, size: 0x8, addend: 0x0, symName: __ZN11spirv_cross10ObjectPoolINS_15SPIRAccessChainEE8allocateIJRS1_EEEPS1_DpOT_, symObjAddr: 0xA9FE0, symBinAddr: 0xFEA80, symSize: 0x120 }
  - { offset: 0x58FAD4, size: 0x8, addend: 0x0, symName: __ZN11spirv_cross10ObjectPoolINS_24SPIRCombinedImageSamplerEE8allocateIJRS1_EEEPS1_DpOT_, symObjAddr: 0xAA5D0, symBinAddr: 0xFEE30, symSize: 0x130 }
  - { offset: 0x58FFBE, size: 0x8, addend: 0x0, symName: __ZN11spirv_cross12CompilerGLSL15statement_innerINSt3__112basic_stringIcNS2_11char_traitsIcEENS2_9allocatorIcEEEEJRA4_KcRPS9_RA2_S9_S8_RA3_S9_S8_SH_S8_SF_S8_SH_EEEvOT_DpOT0_, symObjAddr: 0xAAD90, symBinAddr: 0xFF1C0, symSize: 0x130 }
  - { offset: 0x5906C5, size: 0x8, addend: 0x0, symName: __ZN11spirv_cross12CompilerGLSL15statement_innerINSt3__112basic_stringIcNS2_11char_traitsIcEENS2_9allocatorIcEEEEJRA3_KcS8_SB_S8_RA2_S9_S8_SB_S8_SD_S8_SB_EEEvOT_DpOT0_, symObjAddr: 0xAB210, symBinAddr: 0xFF530, symSize: 0x130 }
  - { offset: 0x590BD0, size: 0x8, addend: 0x0, symName: __ZN11spirv_cross12CompilerGLSL15statement_innerIRPKcJRA2_S2_NSt3__112basic_stringIcNS7_11char_traitsIcEENS7_9allocatorIcEEEERA3_S2_SD_SF_EEEvOT_DpOT0_, symObjAddr: 0xAB840, symBinAddr: 0xFF660, symSize: 0x110 }
  - { offset: 0x592021, size: 0x8, addend: 0x0, symName: __ZN11spirv_cross12CompilerGLSL30mask_relevant_memory_semanticsEj, symObjAddr: 0x71A20, symBinAddr: 0xE4EB0, symSize: 0x10 }
  - { offset: 0x592040, size: 0x8, addend: 0x0, symName: __ZN11spirv_cross12CompilerGLSL29get_next_instruction_in_blockERKNS_11InstructionE, symObjAddr: 0x71A30, symBinAddr: 0xE4EC0, symSize: 0x40 }
  - { offset: 0x59212F, size: 0x8, addend: 0x0, symName: __ZN11spirv_cross12StringStreamILm4096ELm4096EElsItLi0EEERS1_RKT_, symObjAddr: 0xAD5F0, symBinAddr: 0xFF980, symSize: 0x70 }
  - { offset: 0x592C89, size: 0x8, addend: 0x0, symName: __ZN11spirv_cross12CompilerGLSL15statement_innerINSt3__112basic_stringIcNS2_11char_traitsIcEENS2_9allocatorIcEEEEJRA3_KcS8_SB_S8_SB_S8_SB_S8_SB_S8_SB_S8_SB_S8_SB_S8_SB_EEEvOT_DpOT0_, symObjAddr: 0xADCD0, symBinAddr: 0xFFF50, symSize: 0x150 }
  - { offset: 0x593A1A, size: 0x8, addend: 0x0, symName: __ZN11spirv_cross12CompilerGLSL15statement_innerINSt3__112basic_stringIcNS2_11char_traitsIcEENS2_9allocatorIcEEEEJRA3_KcS8_SB_S8_SB_S8_SB_S8_SB_S8_SB_S8_SB_S8_SB_jSB_EEEvOT_DpOT0_, symObjAddr: 0xAE5B0, symBinAddr: 0x100630, symSize: 0x150 }
  - { offset: 0x594DB6, size: 0x8, addend: 0x0, symName: __ZN11spirv_cross12CompilerGLSL9statementIJRA7_KcRjRA3_S2_RNSt3__112basic_stringIcNS8_11char_traitsIcEENS8_9allocatorIcEEEERA2_S2_EEEvDpOT_, symObjAddr: 0xB8E30, symBinAddr: 0x104920, symSize: 0x1B0 }
  - { offset: 0x5952F8, size: 0x8, addend: 0x0, symName: __ZN11spirv_cross12CompilerGLSL19to_member_referenceEjRKNS_8SPIRTypeEjb, symObjAddr: 0x75530, symBinAddr: 0xE6B10, symSize: 0x70 }
  - { offset: 0x595613, size: 0x8, addend: 0x0, symName: __ZN11spirv_cross12CompilerGLSL30is_non_native_row_major_matrixEj, symObjAddr: 0x755A0, symBinAddr: 0xE6B80, symSize: 0x70 }
  - { offset: 0x59572B, size: 0x8, addend: 0x0, symName: __ZN11spirv_cross12CompilerGLSL37member_is_non_native_row_major_matrixERKNS_8SPIRTypeEj, symObjAddr: 0x75610, symBinAddr: 0xE6BF0, symSize: 0x230 }
  - { offset: 0x595FBB, size: 0x8, addend: 0x0, symName: __ZN11spirv_cross12CompilerGLSL24convert_row_major_matrixENSt3__112basic_stringIcNS1_11char_traitsIcEENS1_9allocatorIcEEEERKNS_8SPIRTypeEjbb, symObjAddr: 0x75840, symBinAddr: 0xE6E20, symSize: 0x6E0 }
  - { offset: 0x597E33, size: 0x8, addend: 0x0, symName: __ZN11spirv_cross12CompilerGLSL13variable_declERKNS_8SPIRTypeERKNSt3__112basic_stringIcNS4_11char_traitsIcEENS4_9allocatorIcEEEEj, symObjAddr: 0x76450, symBinAddr: 0xE7870, symSize: 0xF0 }
  - { offset: 0x5984FA, size: 0x8, addend: 0x0, symName: __ZNK11spirv_cross12CompilerGLSL33variable_decl_is_remapped_storageERKNS_12SPIRVariableEN3spv12StorageClassE, symObjAddr: 0x76730, symBinAddr: 0xE7B50, symSize: 0x10 }
  - { offset: 0x59853E, size: 0x8, addend: 0x0, symName: __ZN11spirv_cross12CompilerGLSL26emit_struct_member_paddingERKNS_8SPIRTypeEj, symObjAddr: 0x76740, symBinAddr: 0xE7B60, symSize: 0x1F0 }
  - { offset: 0x598ADE, size: 0x8, addend: 0x0, symName: __ZN11spirv_cross12CompilerGLSL9statementIJRA6_KcNSt3__112basic_stringIcNS5_11char_traitsIcEENS5_9allocatorIcEEEERA5_S2_RjRA2_S2_SE_RA3_S2_EEEvDpOT_, symObjAddr: 0x76930, symBinAddr: 0xE7D50, symSize: 0x140 }
  - { offset: 0x598D5E, size: 0x8, addend: 0x0, symName: __ZN11spirv_cross12CompilerGLSL9statementIJRA7_KcNSt3__112basic_stringIcNS5_11char_traitsIcEENS5_9allocatorIcEEEERA5_S2_RjRA2_S2_SE_RA6_S2_EEEvDpOT_, symObjAddr: 0x76A70, symBinAddr: 0xE7E90, symSize: 0x140 }
  - { offset: 0x598FDE, size: 0x8, addend: 0x0, symName: __ZN11spirv_cross12CompilerGLSL15statement_innerIRA6_KcJNSt3__112basic_stringIcNS5_11char_traitsIcEENS5_9allocatorIcEEEERA5_S2_RjRA2_S2_SE_RA3_S2_EEEvOT_DpOT0_, symObjAddr: 0xAF9E0, symBinAddr: 0x101020, symSize: 0x110 }
  - { offset: 0x599720, size: 0x8, addend: 0x0, symName: __ZN11spirv_cross12CompilerGLSL18emit_struct_memberERKNS_8SPIRTypeEjjRKNSt3__112basic_stringIcNS4_11char_traitsIcEENS4_9allocatorIcEEEEj, symObjAddr: 0x76BB0, symBinAddr: 0xE7FD0, symSize: 0x3D0 }
  - { offset: 0x59ADA9, size: 0x8, addend: 0x0, symName: __ZN11spirv_cross12CompilerGLSL9statementIJNSt3__112basic_stringIcNS2_11char_traitsIcEENS2_9allocatorIcEEEERS8_RKS8_S8_S8_RA2_KcEEEvDpOT_, symObjAddr: 0x76F80, symBinAddr: 0xE83A0, symSize: 0x130 }
  - { offset: 0x59B014, size: 0x8, addend: 0x0, symName: __ZN11spirv_cross12CompilerGLSL15statement_innerINSt3__112basic_stringIcNS2_11char_traitsIcEENS2_9allocatorIcEEEEJRS8_RKS8_S8_S8_RA2_KcEEEvOT_DpOT0_, symObjAddr: 0xB00D0, symBinAddr: 0x101390, symSize: 0x130 }
  - { offset: 0x59B4AA, size: 0x8, addend: 0x0, symName: __ZN11spirv_cross12CompilerGLSL26emit_struct_padding_targetERKNS_8SPIRTypeE, symObjAddr: 0x770B0, symBinAddr: 0xE84D0, symSize: 0x10 }
  - { offset: 0x59B4D9, size: 0x8, addend: 0x0, symName: __ZN11spirv_cross12CompilerGLSL28to_precision_qualifiers_glslEj, symObjAddr: 0x770C0, symBinAddr: 0xE84E0, symSize: 0xC0 }
  - { offset: 0x59B8A2, size: 0x8, addend: 0x0, symName: __ZN11spirv_cross12CompilerGLSL18to_qualifiers_glslEj, symObjAddr: 0x77180, symBinAddr: 0xE85A0, symSize: 0x310 }
  - { offset: 0x59C760, size: 0x8, addend: 0x0, symName: __ZN11spirv_cross12CompilerGLSL13argument_declERKNS_12SPIRFunction9ParameterE, symObjAddr: 0x77490, symBinAddr: 0xE88B0, symSize: 0x170 }
  - { offset: 0x59CFAD, size: 0x8, addend: 0x0, symName: __ZN11spirv_cross12CompilerGLSL25to_initializer_expressionERKNS_12SPIRVariableE, symObjAddr: 0x777D0, symBinAddr: 0xE8BF0, symSize: 0x20 }
  - { offset: 0x59D02E, size: 0x8, addend: 0x0, symName: __ZN11spirv_cross12CompilerGLSL30to_zero_initialized_expressionEj, symObjAddr: 0x777F0, symBinAddr: 0xE8C10, symSize: 0x80 }
  - { offset: 0x59D116, size: 0x8, addend: 0x0, symName: __ZN11spirv_cross12CompilerGLSL13variable_declERKNS_12SPIRVariableE, symObjAddr: 0x77870, symBinAddr: 0xE8C90, symSize: 0x400 }
  - { offset: 0x59DF29, size: 0x8, addend: 0x0, symName: __ZN11spirv_cross12CompilerGLSL22to_pls_qualifiers_glslERKNS_12SPIRVariableE, symObjAddr: 0x77C70, symBinAddr: 0xE9090, symSize: 0x30 }
  - { offset: 0x59DF86, size: 0x8, addend: 0x0, symName: __ZNK11spirv_cross12CompilerGLSL21to_array_size_literalERKNS_8SPIRTypeEj, symObjAddr: 0x77E00, symBinAddr: 0xE9220, symSize: 0x30 }
  - { offset: 0x59DFF9, size: 0x8, addend: 0x0, symName: __ZN11spirv_cross12CompilerGLSL18type_to_array_glslERKNS_8SPIRTypeE, symObjAddr: 0x77E30, symBinAddr: 0xE9250, symSize: 0x500 }
  - { offset: 0x59F5D3, size: 0x8, addend: 0x0, symName: __ZN11spirv_cross12CompilerGLSL15image_type_glslERKNS_8SPIRTypeEjb, symObjAddr: 0x78330, symBinAddr: 0xE9750, symSize: 0xA30 }
  - { offset: 0x5A2510, size: 0x8, addend: 0x0, symName: __ZN11spirv_cross12CompilerGLSL12type_to_glslERKNS_8SPIRTypeEj, symObjAddr: 0x78D60, symBinAddr: 0xEA180, symSize: 0xA70 }
  - { offset: 0x5A48D4, size: 0x8, addend: 0x0, symName: __ZN11spirv_cross12CompilerGLSL15add_header_lineERKNSt3__112basic_stringIcNS1_11char_traitsIcEENS1_9allocatorIcEEEE, symObjAddr: 0x7A810, symBinAddr: 0xEAD70, symSize: 0x80 }
  - { offset: 0x5A49DA, size: 0x8, addend: 0x0, symName: __ZN11spirv_cross12CompilerGLSL17require_extensionERKNSt3__112basic_stringIcNS1_11char_traitsIcEENS1_9allocatorIcEEEE, symObjAddr: 0x7A890, symBinAddr: 0xEADF0, symSize: 0x180 }
  - { offset: 0x5A4CF7, size: 0x8, addend: 0x0, symName: __ZNK11spirv_cross12CompilerGLSL23get_required_extensionsEv, symObjAddr: 0x7AA10, symBinAddr: 0xEAF70, symSize: 0x10 }
  - { offset: 0x5A4D1F, size: 0x8, addend: 0x0, symName: __ZN11spirv_cross12CompilerGLSL20flatten_buffer_blockENS_7TypedIDILNS_5TypesE2EEE, symObjAddr: 0x7AA20, symBinAddr: 0xEAF80, symSize: 0x290 }
  - { offset: 0x5A54A3, size: 0x8, addend: 0x0, symName: __ZNK11spirv_cross12CompilerGLSL30builtin_translates_to_nonarrayEN3spv7BuiltInE, symObjAddr: 0x7ACB0, symBinAddr: 0xEB210, symSize: 0x10 }
  - { offset: 0x5A54D2, size: 0x8, addend: 0x0, symName: __ZNK11spirv_cross12CompilerGLSL23is_user_type_structuredEj, symObjAddr: 0x7ACC0, symBinAddr: 0xEB220, symSize: 0x10 }
  - { offset: 0x5A575B, size: 0x8, addend: 0x0, symName: __ZN11spirv_cross12CompilerGLSL21add_function_overloadERKNS_12SPIRFunctionE, symObjAddr: 0x7ACD0, symBinAddr: 0xEB230, symSize: 0x380 }
  - { offset: 0x5A6390, size: 0x8, addend: 0x0, symName: __ZNSt3__112__hash_tableINS_17__hash_value_typeINS_12basic_stringIcNS_11char_traitsIcEENS_9allocatorIcEEEENS_13unordered_setIyNS_4hashIyEENS_8equal_toIyEENS5_IyEEEEEENS_22__unordered_map_hasherIS7_SF_NS9_IS7_EENSB_IS7_EELb1EEENS_21__unordered_map_equalIS7_SF_SI_SH_Lb1EEENS5_ISF_EEE25__emplace_unique_key_argsIS7_JRKNS_21piecewise_construct_tENS_5tupleIJOS7_EEENSS_IJEEEEEENS_4pairINS_15__hash_iteratorIPNS_11__hash_nodeISF_PvEEEEbEERKT_DpOT0_, symObjAddr: 0xB0640, symBinAddr: 0x101660, symSize: 0x550 }
  - { offset: 0x5A6EF0, size: 0x8, addend: 0x0, symName: __ZNSt3__112__hash_tableIyNS_4hashIyEENS_8equal_toIyEENS_9allocatorIyEEE25__emplace_unique_key_argsIyJRKyEEENS_4pairINS_15__hash_iteratorIPNS_11__hash_nodeIyPvEEEEbEERKT_DpOT0_, symObjAddr: 0xB0E50, symBinAddr: 0x101C30, symSize: 0x440 }
  - { offset: 0x5A7628, size: 0x8, addend: 0x0, symName: __ZN11spirv_cross12CompilerGLSL23emit_function_prototypeERNS_12SPIRFunctionERKNS_6BitsetE, symObjAddr: 0x7B050, symBinAddr: 0xEB5B0, symSize: 0x630 }
  - { offset: 0x5AA034, size: 0x8, addend: 0x0, symName: __ZN11spirv_cross12CompilerGLSL24emit_hoisted_temporariesERNS_11SmallVectorINSt3__14pairINS_7TypedIDILNS_5TypesE1EEENS4_ILS5_0EEEEELm8EEE, symObjAddr: 0x82AE0, symBinAddr: 0xF2AF0, symSize: 0x6C0 }
  - { offset: 0x5ABC49, size: 0x8, addend: 0x0, symName: __ZN11spirv_cross12CompilerGLSL24attempt_emit_loop_headerERNS_9SPIRBlockENS1_6MethodE, symObjAddr: 0x818D0, symBinAddr: 0xF18E0, symSize: 0xEA0 }
  - { offset: 0x5AED8D, size: 0x8, addend: 0x0, symName: __ZN11spirv_cross12CompilerGLSL28emit_while_loop_initializersERKNS_9SPIRBlockE, symObjAddr: 0x80E70, symBinAddr: 0xF1040, symSize: 0xC0 }
  - { offset: 0x5AF19E, size: 0x8, addend: 0x0, symName: __ZN11spirv_cross12CompilerGLSL9statementIJRA9_KcEEEvDpOT_, symObjAddr: 0x832A0, symBinAddr: 0xF32B0, symSize: 0x100 }
  - { offset: 0x5AF3B5, size: 0x8, addend: 0x0, symName: __ZN11spirv_cross12CompilerGLSL6branchENS_7TypedIDILNS_5TypesE6EEES3_, symObjAddr: 0x802D0, symBinAddr: 0xF04A0, symSize: 0x1D0 }
  - { offset: 0x5AF79F, size: 0x8, addend: 0x0, symName: __ZN11spirv_cross12CompilerGLSL9statementIJRA8_KcNSt3__112basic_stringIcNS5_11char_traitsIcEENS5_9allocatorIcEEEERA2_S2_EEEvDpOT_, symObjAddr: 0x83DC0, symBinAddr: 0xF3B90, symSize: 0x160 }
  - { offset: 0x5AFB5A, size: 0x8, addend: 0x0, symName: __ZN11spirv_cross12CompilerGLSL9statementIJRA8_KcEEEvDpOT_, symObjAddr: 0x83CC0, symBinAddr: 0xF3A90, symSize: 0x100 }
  - { offset: 0x5AFD71, size: 0x8, addend: 0x0, symName: __ZN11spirv_cross12CompilerGLSL6branchENS_7TypedIDILNS_5TypesE6EEEjS3_S3_, symObjAddr: 0x805E0, symBinAddr: 0xF07B0, symSize: 0x2C0 }
  - { offset: 0x5B0465, size: 0x8, addend: 0x0, symName: __ZN11spirv_cross11SmallVectorIPNS_9SPIRBlockELm8EE7reserveEm, symObjAddr: 0xB5B20, symBinAddr: 0x1032A0, symSize: 0x110 }
  - { offset: 0x5B051A, size: 0x8, addend: 0x0, symName: __ZN11spirv_cross12CompilerGLSL9statementIJRA7_KcRNS_7TypedIDILNS_5TypesE0EEERA23_S2_EEEvDpOT_, symObjAddr: 0x833A0, symBinAddr: 0xF33B0, symSize: 0x140 }
  - { offset: 0x5B0856, size: 0x8, addend: 0x0, symName: __ZNSt3__112__hash_tableINS_17__hash_value_typeIjN11spirv_cross11SmallVectorIyLm8EEEEENS_22__unordered_map_hasherIjS5_NS_4hashIjEENS_8equal_toIjEELb1EEENS_21__unordered_map_equalIjS5_SA_S8_Lb1EEENS_9allocatorIS5_EEE25__emplace_unique_key_argsIjJRKNS_21piecewise_construct_tENS_5tupleIJOjEEENSL_IJEEEEEENS_4pairINS_15__hash_iteratorIPNS_11__hash_nodeIS5_PvEEEEbEERKT_DpOT0_, symObjAddr: 0xB5DD0, symBinAddr: 0x1033B0, symSize: 0x460 }
  - { offset: 0x5B108A, size: 0x8, addend: 0x0, symName: __ZN11spirv_cross11SmallVectorIyLm8EE7reserveEm, symObjAddr: 0xB64C0, symBinAddr: 0x103810, symSize: 0x150 }
  - { offset: 0x5B130C, size: 0x8, addend: 0x0, symName: __ZNSt3__112__hash_tableINS_17__hash_value_typeIjN11spirv_cross11SmallVectorIyLm8EEEEENS_22__unordered_map_hasherIjS5_NS_4hashIjEENS_8equal_toIjEELb1EEENS_21__unordered_map_equalIjS5_SA_S8_Lb1EEENS_9allocatorIS5_EEE25__emplace_unique_key_argsIjJRKNS_21piecewise_construct_tENS_5tupleIJRKjEEENSL_IJEEEEEENS_4pairINS_15__hash_iteratorIPNS_11__hash_nodeIS5_PvEEEEbEERKT_DpOT0_, symObjAddr: 0xB6B60, symBinAddr: 0x103960, symSize: 0x460 }
  - { offset: 0x5B1B40, size: 0x8, addend: 0x0, symName: __ZN11spirv_cross12CompilerGLSL9statementIJRA5_KcNSt3__112basic_stringIcNS5_11char_traitsIcEENS5_9allocatorIcEEEERA2_S2_EEEvDpOT_, symObjAddr: 0x808A0, symBinAddr: 0xF0A70, symSize: 0x160 }
  - { offset: 0x5B1EFB, size: 0x8, addend: 0x0, symName: __ZN11spirv_cross12CompilerGLSL9flush_phiENS_7TypedIDILNS_5TypesE6EEES3_, symObjAddr: 0x7F810, symBinAddr: 0xEFBD0, symSize: 0x4C0 }
  - { offset: 0x5B3270, size: 0x8, addend: 0x0, symName: __ZN11spirv_cross12CompilerGLSL9statementIJRA18_KcRjRA15_S2_S5_S7_S5_RA4_S2_EEEvDpOT_, symObjAddr: 0x836A0, symBinAddr: 0xF34F0, symSize: 0x140 }
  - { offset: 0x5B34F0, size: 0x8, addend: 0x0, symName: __ZN11spirv_cross12CompilerGLSL9statementIJRA6_KcNSt3__112basic_stringIcNS5_11char_traitsIcEENS5_9allocatorIcEEEERPS2_RA2_S2_EEEvDpOT_, symObjAddr: 0x83970, symBinAddr: 0xF37C0, symSize: 0x190 }
  - { offset: 0x5B3969, size: 0x8, addend: 0x0, symName: __ZN11spirv_cross12CompilerGLSL9statementIJPKcRA5_S2_NSt3__112basic_stringIcNS6_11char_traitsIcEENS6_9allocatorIcEEEERA2_S2_EEEvDpOT_, symObjAddr: 0x837E0, symBinAddr: 0xF3630, symSize: 0x190 }
  - { offset: 0x5B3DE4, size: 0x8, addend: 0x0, symName: __ZN11spirv_cross12CompilerGLSL9statementIJRA6_KcRNS_7TypedIDILNS_5TypesE0EEERA15_S2_EEEvDpOT_, symObjAddr: 0x83B00, symBinAddr: 0xF3950, symSize: 0x140 }
  - { offset: 0x5B4120, size: 0x8, addend: 0x0, symName: __ZN11spirv_cross12CompilerGLSL18branch_to_continueENS_7TypedIDILNS_5TypesE6EEES3_, symObjAddr: 0x80090, symBinAddr: 0xF0260, symSize: 0x140 }
  - { offset: 0x5B4773, size: 0x8, addend: 0x0, symName: __ZN11spirv_cross12CompilerGLSL19emit_continue_blockEjbb, symObjAddr: 0x80B60, symBinAddr: 0xF0D30, symSize: 0x310 }
  - { offset: 0x5B4FF6, size: 0x8, addend: 0x0, symName: __ZN11spirv_cross12CompilerGLSL10emit_fixupEv, symObjAddr: 0x7F540, symBinAddr: 0xEF900, symSize: 0x80 }
  - { offset: 0x5B5073, size: 0x8, addend: 0x0, symName: __ZN11spirv_cross12CompilerGLSL9statementIJRA20_KcRPS2_RA34_S2_EEEvDpOT_, symObjAddr: 0x7F5C0, symBinAddr: 0xEF980, symSize: 0x150 }
  - { offset: 0x5B53EC, size: 0x8, addend: 0x0, symName: __ZN11spirv_cross12CompilerGLSL9statementIJRA32_KcEEEvDpOT_, symObjAddr: 0x7F710, symBinAddr: 0xEFAD0, symSize: 0x100 }
  - { offset: 0x5B5731, size: 0x8, addend: 0x0, symName: __ZN11spirv_cross12CompilerGLSL9statementIJRA2_KcRNS_7TypedIDILNS_5TypesE2EEERA6_S2_RA4_S2_NSt3__112basic_stringIcNSD_11char_traitsIcEENSD_9allocatorIcEEEES4_EEEvDpOT_, symObjAddr: 0x7FCD0, symBinAddr: 0xF0090, symSize: 0x1D0 }
  - { offset: 0x5B62FE, size: 0x8, addend: 0x0, symName: __ZN11spirv_cross12CompilerGLSL9statementIJRA10_KcEEEvDpOT_, symObjAddr: 0x801D0, symBinAddr: 0xF03A0, symSize: 0x100 }
  - { offset: 0x5B65BF, size: 0x8, addend: 0x0, symName: __ZN11spirv_cross12CompilerGLSL9statementIJRA2_KcRNS_7TypedIDILNS_5TypesE0EEERA22_S2_EEEvDpOT_, symObjAddr: 0x804A0, symBinAddr: 0xF0670, symSize: 0x140 }
  - { offset: 0x5B6995, size: 0x8, addend: 0x0, symName: __ZN11spirv_cross12CompilerGLSL9statementIJRA6_KcNSt3__112basic_stringIcNS5_11char_traitsIcEENS5_9allocatorIcEEEERA2_S2_EEEvDpOT_, symObjAddr: 0x80A00, symBinAddr: 0xF0BD0, symSize: 0x160 }
  - { offset: 0x5B6E3E, size: 0x8, addend: 0x0, symName: __ZN11spirv_cross12CompilerGLSL26emit_for_loop_initializersERKNS_9SPIRBlockE, symObjAddr: 0x80F30, symBinAddr: 0xF1100, symSize: 0x4C0 }
  - { offset: 0x5B86C9, size: 0x8, addend: 0x0, symName: __ZN11spirv_cross12CompilerGLSL35for_loop_initializers_are_same_typeERKNS_9SPIRBlockE, symObjAddr: 0x813F0, symBinAddr: 0xF15C0, symSize: 0x2F0 }
  - { offset: 0x5B939F, size: 0x8, addend: 0x0, symName: __ZN11spirv_cross12CompilerGLSL41emit_block_instructions_with_masked_debugERNS_9SPIRBlockE, symObjAddr: 0x818A0, symBinAddr: 0xF18B0, symSize: 0x30 }
  - { offset: 0x5B9428, size: 0x8, addend: 0x0, symName: __ZN11spirv_cross12CompilerGLSL9statementIJRA6_KcRNSt3__112basic_stringIcNS5_11char_traitsIcEENS5_9allocatorIcEEEERA3_S2_SC_RA4_S2_EEEvDpOT_, symObjAddr: 0x82910, symBinAddr: 0xF2920, symSize: 0x1D0 }
  - { offset: 0x5B99B3, size: 0x8, addend: 0x0, symName: __ZN11spirv_cross12CompilerGLSL9statementIJRA6_KcRNSt3__112basic_stringIcNS5_11char_traitsIcEENS5_9allocatorIcEEEERA3_S2_SC_SE_SC_RA2_S2_EEEvDpOT_, symObjAddr: 0x827C0, symBinAddr: 0xF27D0, symSize: 0x150 }
  - { offset: 0x5B9CDC, size: 0x8, addend: 0x0, symName: __ZN11spirv_cross12CompilerGLSL26flush_undeclared_variablesERNS_9SPIRBlockE, symObjAddr: 0x82770, symBinAddr: 0xF2780, symSize: 0x50 }
  - { offset: 0x5BA74B, size: 0x8, addend: 0x0, symName: __ZN11spirv_cross12CompilerGLSL15statement_innerIRA18_KcJRjRA15_S2_S5_S7_S5_RA4_S2_EEEvOT_DpOT0_, symObjAddr: 0xB7130, symBinAddr: 0x103F30, symSize: 0xF0 }
  - { offset: 0x5BAE41, size: 0x8, addend: 0x0, symName: __ZN11spirv_cross12CompilerGLSL9end_scopeERKNSt3__112basic_stringIcNS1_11char_traitsIcEENS1_9allocatorIcEEEE, symObjAddr: 0x841E0, symBinAddr: 0xF3DF0, symSize: 0x80 }
  - { offset: 0x5BAE98, size: 0x8, addend: 0x0, symName: __ZN11spirv_cross12CompilerGLSL9statementIJRA2_KcRKNSt3__112basic_stringIcNS5_11char_traitsIcEENS5_9allocatorIcEEEEEEEvDpOT_, symObjAddr: 0x84260, symBinAddr: 0xF3E70, symSize: 0x140 }
  - { offset: 0x5BB23B, size: 0x8, addend: 0x0, symName: __ZN11spirv_cross12CompilerGLSL15emit_array_copyEPKcjjN3spv12StorageClassES4_, symObjAddr: 0x84500, symBinAddr: 0xF4110, symSize: 0x110 }
  - { offset: 0x5BBCDD, size: 0x8, addend: 0x0, symName: __ZN11spirv_cross12CompilerGLSL23cast_from_variable_loadEjRNSt3__112basic_stringIcNS1_11char_traitsIcEENS1_9allocatorIcEEEERKNS_8SPIRTypeE, symObjAddr: 0x84F90, symBinAddr: 0xF4860, symSize: 0x200 }
  - { offset: 0x5BC377, size: 0x8, addend: 0x0, symName: __ZN11spirv_cross12CompilerGLSL20get_builtin_basetypeEN3spv7BuiltInENS_8SPIRType8BaseTypeE, symObjAddr: 0x85190, symBinAddr: 0xF4A60, symSize: 0x40 }
  - { offset: 0x5BC3BB, size: 0x8, addend: 0x0, symName: __ZN11spirv_cross12CompilerGLSL22cast_to_variable_storeEjRNSt3__112basic_stringIcNS1_11char_traitsIcEENS1_9allocatorIcEEEERKNS_8SPIRTypeE, symObjAddr: 0x851D0, symBinAddr: 0xF4AA0, symSize: 0x210 }
  - { offset: 0x5BCC97, size: 0x8, addend: 0x0, symName: __ZN11spirv_cross12CompilerGLSL16emit_block_hintsERKNS_9SPIRBlockE, symObjAddr: 0x85590, symBinAddr: 0xF4E60, symSize: 0x210 }
  - { offset: 0x5BDF6F, size: 0x8, addend: 0x0, symName: __ZNK11spirv_cross12CompilerGLSL28variable_is_depth_or_compareENS_7TypedIDILNS_5TypesE2EEE, symObjAddr: 0x85DA0, symBinAddr: 0xF54D0, symSize: 0x50 }
  - { offset: 0x5BE0A9, size: 0x8, addend: 0x0, symName: __ZN11spirv_cross12CompilerGLSL27ShaderSubgroupSupportHelper24get_feature_dependenciesENS1_7FeatureE, symObjAddr: 0x85DF0, symBinAddr: 0xF5520, symSize: 0x180 }
  - { offset: 0x5BE5C9, size: 0x8, addend: 0x0, symName: __ZN11spirv_cross12CompilerGLSL27ShaderSubgroupSupportHelper10build_maskERKNS_11SmallVectorINS1_7FeatureELm8EEE, symObjAddr: 0x86140, symBinAddr: 0xF5870, symSize: 0x40 }
  - { offset: 0x5BE653, size: 0x8, addend: 0x0, symName: __ZN11spirv_cross12CompilerGLSL27ShaderSubgroupSupportHelper6ResultC1Ev, symObjAddr: 0x86180, symBinAddr: 0xF58B0, symSize: 0x20 }
  - { offset: 0x5BE6D7, size: 0x8, addend: 0x0, symName: __ZN11spirv_cross12CompilerGLSL27ShaderSubgroupSupportHelper6ResultC2Ev, symObjAddr: 0x863A0, symBinAddr: 0xF5AD0, symSize: 0x20 }
  - { offset: 0x5BE751, size: 0x8, addend: 0x0, symName: __ZN11spirv_cross12CompilerGLSL35request_workaround_wrapper_overloadENS_7TypedIDILNS_5TypesE1EEE, symObjAddr: 0x863C0, symBinAddr: 0xF5AF0, symSize: 0xB0 }
  - { offset: 0x5BE8EE, size: 0x8, addend: 0x0, symName: __ZN11spirv_cross12CompilerGLSL29mask_stage_output_by_locationEjj, symObjAddr: 0x865D0, symBinAddr: 0xF5BA0, symSize: 0x30 }
  - { offset: 0x5BE9AF, size: 0x8, addend: 0x0, symName: __ZNSt3__112__hash_tableIN11spirv_cross21LocationComponentPairENS1_14InternalHasherENS_8equal_toIS2_EENS_9allocatorIS2_EEE25__emplace_unique_key_argsIS2_JS2_EEENS_4pairINS_15__hash_iteratorIPNS_11__hash_nodeIS2_PvEEEEbEERKT_DpOT0_, symObjAddr: 0xBB750, symBinAddr: 0x107100, symSize: 0x410 }
  - { offset: 0x5BF147, size: 0x8, addend: 0x0, symName: __ZN11spirv_cross12CompilerGLSL28mask_stage_output_by_builtinEN3spv7BuiltInE, symObjAddr: 0x86600, symBinAddr: 0xF5BD0, symSize: 0x30 }
  - { offset: 0x5BF3DC, size: 0x8, addend: 0x0, symName: __ZNK11spirv_cross12CompilerGLSL31is_stage_output_variable_maskedERKNS_12SPIRVariableE, symObjAddr: 0x86630, symBinAddr: 0xF5C00, symSize: 0x300 }
  - { offset: 0x5BF87F, size: 0x8, addend: 0x0, symName: __ZNK11spirv_cross12CompilerGLSL30is_stage_output_builtin_maskedEN3spv7BuiltInE, symObjAddr: 0x86930, symBinAddr: 0xF5F00, symSize: 0x130 }
  - { offset: 0x5BFA6E, size: 0x8, addend: 0x0, symName: __ZNK11spirv_cross12CompilerGLSL31is_stage_output_location_maskedEjj, symObjAddr: 0x86A60, symBinAddr: 0xF6030, symSize: 0x140 }
  - { offset: 0x5BFCCF, size: 0x8, addend: 0x0, symName: __ZNK11spirv_cross12CompilerGLSL35is_stage_output_block_member_maskedERKNS_12SPIRVariableEjb, symObjAddr: 0x86BA0, symBinAddr: 0xF6170, symSize: 0x360 }
  - { offset: 0x5C038E, size: 0x8, addend: 0x0, symName: __ZNK11spirv_cross12CompilerGLSL31get_accumulated_member_locationERKNS_12SPIRVariableEjb, symObjAddr: 0x86F90, symBinAddr: 0xF6560, symSize: 0xE0 }
  - { offset: 0x5C0642, size: 0x8, addend: 0x0, symName: __ZNK11spirv_cross12CompilerGLSL28get_declared_member_locationERKNS_12SPIRVariableEjb, symObjAddr: 0x86F00, symBinAddr: 0xF64D0, symSize: 0x90 }
  - { offset: 0x5C0808, size: 0x8, addend: 0x0, symName: __ZNK11spirv_cross12CompilerGLSL22type_to_location_countERKNS_8SPIRTypeE, symObjAddr: 0x87070, symBinAddr: 0xF6640, symSize: 0xD0 }
  - { offset: 0x5C0AAB, size: 0x8, addend: 0x0, symName: __ZN11spirv_cross12CompilerGLSLD1Ev, symObjAddr: 0x873E0, symBinAddr: 0xF69B0, symSize: 0x10 }
  - { offset: 0x5C0AE3, size: 0x8, addend: 0x0, symName: __ZN11spirv_cross12CompilerGLSLD2Ev, symObjAddr: 0x8B950, symBinAddr: 0xF6E70, symSize: 0x9C0 }
  - { offset: 0x5C6BFD, size: 0x8, addend: 0x0, symName: __ZN11spirv_cross12CompilerGLSLD0Ev, symObjAddr: 0x873F0, symBinAddr: 0xF69C0, symSize: 0x20 }
  - { offset: 0x5CB98F, size: 0x8, addend: 0x0, symName: __ZN11spirv_cross12StringStreamILm4096ELm4096EElsIyLi0EEERS1_RKT_, symObjAddr: 0x8B8E0, symBinAddr: 0xF6E00, symSize: 0x70 }
  - { offset: 0x5D4A27, size: 0x8, addend: 0x0, symName: __ZNSt3__110unique_ptrINS_11__hash_nodeINS_17__hash_value_typeIjNS_12basic_stringIcNS_11char_traitsIcEENS_9allocatorIcEEEEEEPvEENS_22__hash_node_destructorINS6_ISB_EEEEED1B8ne180100Ev, symObjAddr: 0x953C0, symBinAddr: 0xF8BE0, symSize: 0x40 }
  - { offset: 0x5D4F73, size: 0x8, addend: 0x0, symName: __ZN11spirv_cross12StringStreamILm4096ELm4096EElsImLi0EEERS1_RKT_, symObjAddr: 0x95C90, symBinAddr: 0xF9270, symSize: 0x70 }
  - { offset: 0x5D6D62, size: 0x8, addend: 0x0, symName: '__ZNSt3__110__function6__funcIZN11spirv_cross12CompilerGLSL32emit_output_variable_initializerERKNS2_12SPIRVariableEE3$_0NS_9allocatorIS7_EEFvvEED1Ev', symObjAddr: 0x9A880, symBinAddr: 0xFA730, symSize: 0x20 }
  - { offset: 0x5D6F6C, size: 0x8, addend: 0x0, symName: '__ZNSt3__110__function6__funcIZN11spirv_cross12CompilerGLSL32emit_output_variable_initializerERKNS2_12SPIRVariableEE3$_0NS_9allocatorIS7_EEFvvEED0Ev', symObjAddr: 0x9A8A0, symBinAddr: 0xFA750, symSize: 0x30 }
  - { offset: 0x5D74FA, size: 0x8, addend: 0x0, symName: '__ZNKSt3__110__function6__funcIZN11spirv_cross12CompilerGLSL32emit_output_variable_initializerERKNS2_12SPIRVariableEE3$_0NS_9allocatorIS7_EEFvvEE7__cloneEv', symObjAddr: 0x9A8D0, symBinAddr: 0xFA780, symSize: 0x80 }
  - { offset: 0x5D7A28, size: 0x8, addend: 0x0, symName: '__ZNKSt3__110__function6__funcIZN11spirv_cross12CompilerGLSL32emit_output_variable_initializerERKNS2_12SPIRVariableEE3$_0NS_9allocatorIS7_EEFvvEE7__cloneEPNS0_6__baseISA_EE', symObjAddr: 0x9A950, symBinAddr: 0xFA800, symSize: 0x50 }
  - { offset: 0x5D7C6A, size: 0x8, addend: 0x0, symName: '__ZNSt3__110__function6__funcIZN11spirv_cross12CompilerGLSL32emit_output_variable_initializerERKNS2_12SPIRVariableEE3$_0NS_9allocatorIS7_EEFvvEE7destroyEv', symObjAddr: 0x9A9A0, symBinAddr: 0xFA850, symSize: 0x20 }
  - { offset: 0x5D7E2F, size: 0x8, addend: 0x0, symName: '__ZNSt3__110__function6__funcIZN11spirv_cross12CompilerGLSL32emit_output_variable_initializerERKNS2_12SPIRVariableEE3$_0NS_9allocatorIS7_EEFvvEE18destroy_deallocateEv', symObjAddr: 0x9A9C0, symBinAddr: 0xFA870, symSize: 0x30 }
  - { offset: 0x5D838B, size: 0x8, addend: 0x0, symName: '__ZNSt3__110__function6__funcIZN11spirv_cross12CompilerGLSL32emit_output_variable_initializerERKNS2_12SPIRVariableEE3$_0NS_9allocatorIS7_EEFvvEEclEv', symObjAddr: 0x9A9F0, symBinAddr: 0xFA8A0, symSize: 0x4B0 }
  - { offset: 0x5D94CA, size: 0x8, addend: 0x0, symName: __ZN11spirv_cross12CompilerGLSL9statementIJRNSt3__112basic_stringIcNS2_11char_traitsIcEENS2_9allocatorIcEEEERA4_KcRKS8_RA2_SA_RKjRA3_SA_EEEvDpOT_, symObjAddr: 0x9AED0, symBinAddr: 0xFAD80, symSize: 0x130 }
  - { offset: 0x5D9735, size: 0x8, addend: 0x0, symName: __ZN11spirv_cross12CompilerGLSL9statementIJRNSt3__112basic_stringIcNS2_11char_traitsIcEENS2_9allocatorIcEEEERA4_KcRKS8_RA2_SA_S8_RA3_SA_EEEvDpOT_, symObjAddr: 0x9B000, symBinAddr: 0xFAEB0, symSize: 0x130 }
  - { offset: 0x5D99E8, size: 0x8, addend: 0x0, symName: '__ZNKSt3__110__function6__funcIZN11spirv_cross12CompilerGLSL32emit_output_variable_initializerERKNS2_12SPIRVariableEE3$_0NS_9allocatorIS7_EEFvvEE6targetERKSt9type_info', symObjAddr: 0x9AEA0, symBinAddr: 0xFAD50, symSize: 0x20 }
  - { offset: 0x5D9A5E, size: 0x8, addend: 0x0, symName: '__ZNKSt3__110__function6__funcIZN11spirv_cross12CompilerGLSL32emit_output_variable_initializerERKNS2_12SPIRVariableEE3$_0NS_9allocatorIS7_EEFvvEE11target_typeEv', symObjAddr: 0x9AEC0, symBinAddr: 0xFAD70, symSize: 0x10 }
  - { offset: 0x5D9A83, size: 0x8, addend: 0x0, symName: __ZN11spirv_cross12CompilerGLSL15statement_innerIRNSt3__112basic_stringIcNS2_11char_traitsIcEENS2_9allocatorIcEEEEJRA4_KcRKS8_RA2_SA_RKjRA3_SA_EEEvOT_DpOT0_, symObjAddr: 0x9B6D0, symBinAddr: 0xFB150, symSize: 0xF0 }
  - { offset: 0x5DA542, size: 0x8, addend: 0x0, symName: '__ZNSt3__110__function6__funcIZN11spirv_cross12CompilerGLSL32emit_output_variable_initializerERKNS2_12SPIRVariableEE3$_1NS_9allocatorIS7_EEFvvEED1Ev', symObjAddr: 0x9BFE0, symBinAddr: 0xFB6E0, symSize: 0x20 }
  - { offset: 0x5DA74C, size: 0x8, addend: 0x0, symName: '__ZNSt3__110__function6__funcIZN11spirv_cross12CompilerGLSL32emit_output_variable_initializerERKNS2_12SPIRVariableEE3$_1NS_9allocatorIS7_EEFvvEED0Ev', symObjAddr: 0x9C000, symBinAddr: 0xFB700, symSize: 0x30 }
  - { offset: 0x5DACDA, size: 0x8, addend: 0x0, symName: '__ZNKSt3__110__function6__funcIZN11spirv_cross12CompilerGLSL32emit_output_variable_initializerERKNS2_12SPIRVariableEE3$_1NS_9allocatorIS7_EEFvvEE7__cloneEv', symObjAddr: 0x9C030, symBinAddr: 0xFB730, symSize: 0x80 }
  - { offset: 0x5DB1C0, size: 0x8, addend: 0x0, symName: '__ZNKSt3__110__function6__funcIZN11spirv_cross12CompilerGLSL32emit_output_variable_initializerERKNS2_12SPIRVariableEE3$_1NS_9allocatorIS7_EEFvvEE7__cloneEPNS0_6__baseISA_EE', symObjAddr: 0x9C0B0, symBinAddr: 0xFB7B0, symSize: 0x60 }
  - { offset: 0x5DB3FA, size: 0x8, addend: 0x0, symName: '__ZNSt3__110__function6__funcIZN11spirv_cross12CompilerGLSL32emit_output_variable_initializerERKNS2_12SPIRVariableEE3$_1NS_9allocatorIS7_EEFvvEE7destroyEv', symObjAddr: 0x9C110, symBinAddr: 0xFB810, symSize: 0x20 }
  - { offset: 0x5DB5BF, size: 0x8, addend: 0x0, symName: '__ZNSt3__110__function6__funcIZN11spirv_cross12CompilerGLSL32emit_output_variable_initializerERKNS2_12SPIRVariableEE3$_1NS_9allocatorIS7_EEFvvEE18destroy_deallocateEv', symObjAddr: 0x9C130, symBinAddr: 0xFB830, symSize: 0x30 }
  - { offset: 0x5DB8E2, size: 0x8, addend: 0x0, symName: '__ZNSt3__110__function6__funcIZN11spirv_cross12CompilerGLSL32emit_output_variable_initializerERKNS2_12SPIRVariableEE3$_1NS_9allocatorIS7_EEFvvEEclEv', symObjAddr: 0x9C160, symBinAddr: 0xFB860, symSize: 0x80 }
  - { offset: 0x5DBC48, size: 0x8, addend: 0x0, symName: __ZN11spirv_cross12CompilerGLSL9statementIJNSt3__112basic_stringIcNS2_11char_traitsIcEENS2_9allocatorIcEEEERA21_KcRKS8_RA19_S9_EEEvDpOT_, symObjAddr: 0x9C210, symBinAddr: 0xFB910, symSize: 0x1A0 }
  - { offset: 0x5DC114, size: 0x8, addend: 0x0, symName: '__ZNKSt3__110__function6__funcIZN11spirv_cross12CompilerGLSL32emit_output_variable_initializerERKNS2_12SPIRVariableEE3$_1NS_9allocatorIS7_EEFvvEE6targetERKSt9type_info', symObjAddr: 0x9C1E0, symBinAddr: 0xFB8E0, symSize: 0x20 }
  - { offset: 0x5DC18A, size: 0x8, addend: 0x0, symName: '__ZNKSt3__110__function6__funcIZN11spirv_cross12CompilerGLSL32emit_output_variable_initializerERKNS2_12SPIRVariableEE3$_1NS_9allocatorIS7_EEFvvEE11target_typeEv', symObjAddr: 0x9C200, symBinAddr: 0xFB900, symSize: 0x10 }
  - { offset: 0x5DC2B1, size: 0x8, addend: 0x0, symName: '__ZNSt3__110__function6__funcIZN11spirv_cross12CompilerGLSL32emit_output_variable_initializerERKNS2_12SPIRVariableEE3$_2NS_9allocatorIS7_EEFvvEED1Ev', symObjAddr: 0x9C590, symBinAddr: 0xFBAB0, symSize: 0x10 }
  - { offset: 0x5DC2DA, size: 0x8, addend: 0x0, symName: '__ZNSt3__110__function6__funcIZN11spirv_cross12CompilerGLSL32emit_output_variable_initializerERKNS2_12SPIRVariableEE3$_2NS_9allocatorIS7_EEFvvEED0Ev', symObjAddr: 0x9C5A0, symBinAddr: 0xFBAC0, symSize: 0x10 }
  - { offset: 0x5DC4ED, size: 0x8, addend: 0x0, symName: '__ZNKSt3__110__function6__funcIZN11spirv_cross12CompilerGLSL32emit_output_variable_initializerERKNS2_12SPIRVariableEE3$_2NS_9allocatorIS7_EEFvvEE7__cloneEv', symObjAddr: 0x9C5B0, symBinAddr: 0xFBAD0, symSize: 0x30 }
  - { offset: 0x5DC839, size: 0x8, addend: 0x0, symName: '__ZNKSt3__110__function6__funcIZN11spirv_cross12CompilerGLSL32emit_output_variable_initializerERKNS2_12SPIRVariableEE3$_2NS_9allocatorIS7_EEFvvEE7__cloneEPNS0_6__baseISA_EE', symObjAddr: 0x9C5E0, symBinAddr: 0xFBB00, symSize: 0x20 }
  - { offset: 0x5DC9D0, size: 0x8, addend: 0x0, symName: '__ZNSt3__110__function6__funcIZN11spirv_cross12CompilerGLSL32emit_output_variable_initializerERKNS2_12SPIRVariableEE3$_2NS_9allocatorIS7_EEFvvEE7destroyEv', symObjAddr: 0x9C600, symBinAddr: 0xFBB20, symSize: 0x10 }
  - { offset: 0x5DCA23, size: 0x8, addend: 0x0, symName: '__ZNSt3__110__function6__funcIZN11spirv_cross12CompilerGLSL32emit_output_variable_initializerERKNS2_12SPIRVariableEE3$_2NS_9allocatorIS7_EEFvvEE18destroy_deallocateEv', symObjAddr: 0x9C610, symBinAddr: 0xFBB30, symSize: 0x10 }
  - { offset: 0x5DCB92, size: 0x8, addend: 0x0, symName: '__ZNSt3__110__function6__funcIZN11spirv_cross12CompilerGLSL32emit_output_variable_initializerERKNS2_12SPIRVariableEE3$_2NS_9allocatorIS7_EEFvvEEclEv', symObjAddr: 0x9C620, symBinAddr: 0xFBB40, symSize: 0x180 }
  - { offset: 0x5DD518, size: 0x8, addend: 0x0, symName: __ZN11spirv_cross12CompilerGLSL9statementIJNSt3__112basic_stringIcNS2_11char_traitsIcEENS2_9allocatorIcEEEERA2_KcRjRA5_S9_S8_SB_EEEvDpOT_, symObjAddr: 0x9C7D0, symBinAddr: 0xFBCF0, symSize: 0x130 }
  - { offset: 0x5DD783, size: 0x8, addend: 0x0, symName: '__ZNKSt3__110__function6__funcIZN11spirv_cross12CompilerGLSL32emit_output_variable_initializerERKNS2_12SPIRVariableEE3$_2NS_9allocatorIS7_EEFvvEE6targetERKSt9type_info', symObjAddr: 0x9C7A0, symBinAddr: 0xFBCC0, symSize: 0x20 }
  - { offset: 0x5DD7F9, size: 0x8, addend: 0x0, symName: '__ZNKSt3__110__function6__funcIZN11spirv_cross12CompilerGLSL32emit_output_variable_initializerERKNS2_12SPIRVariableEE3$_2NS_9allocatorIS7_EEFvvEE11target_typeEv', symObjAddr: 0x9C7C0, symBinAddr: 0xFBCE0, symSize: 0x10 }
  - { offset: 0x5DD81E, size: 0x8, addend: 0x0, symName: __ZN11spirv_cross12CompilerGLSL15statement_innerINSt3__112basic_stringIcNS2_11char_traitsIcEENS2_9allocatorIcEEEEJRA2_KcRjRA5_S9_S8_SB_EEEvOT_DpOT0_, symObjAddr: 0x9CA70, symBinAddr: 0xFBF90, symSize: 0xF0 }
  - { offset: 0x5DDDB4, size: 0x8, addend: 0x0, symName: '__ZNSt3__110__function6__funcIZN11spirv_cross12CompilerGLSL32emit_output_variable_initializerERKNS2_12SPIRVariableEE3$_3NS_9allocatorIS7_EEFvvEED1Ev', symObjAddr: 0x9CC30, symBinAddr: 0xFC150, symSize: 0x20 }
  - { offset: 0x5DDFBE, size: 0x8, addend: 0x0, symName: '__ZNSt3__110__function6__funcIZN11spirv_cross12CompilerGLSL32emit_output_variable_initializerERKNS2_12SPIRVariableEE3$_3NS_9allocatorIS7_EEFvvEED0Ev', symObjAddr: 0x9CC50, symBinAddr: 0xFC170, symSize: 0x30 }
  - { offset: 0x5DE54C, size: 0x8, addend: 0x0, symName: '__ZNKSt3__110__function6__funcIZN11spirv_cross12CompilerGLSL32emit_output_variable_initializerERKNS2_12SPIRVariableEE3$_3NS_9allocatorIS7_EEFvvEE7__cloneEv', symObjAddr: 0x9CC80, symBinAddr: 0xFC1A0, symSize: 0x80 }
  - { offset: 0x5DEA32, size: 0x8, addend: 0x0, symName: '__ZNKSt3__110__function6__funcIZN11spirv_cross12CompilerGLSL32emit_output_variable_initializerERKNS2_12SPIRVariableEE3$_3NS_9allocatorIS7_EEFvvEE7__cloneEPNS0_6__baseISA_EE', symObjAddr: 0x9CD00, symBinAddr: 0xFC220, symSize: 0x60 }
  - { offset: 0x5DEC6C, size: 0x8, addend: 0x0, symName: '__ZNSt3__110__function6__funcIZN11spirv_cross12CompilerGLSL32emit_output_variable_initializerERKNS2_12SPIRVariableEE3$_3NS_9allocatorIS7_EEFvvEE7destroyEv', symObjAddr: 0x9CD60, symBinAddr: 0xFC280, symSize: 0x20 }
  - { offset: 0x5DEE31, size: 0x8, addend: 0x0, symName: '__ZNSt3__110__function6__funcIZN11spirv_cross12CompilerGLSL32emit_output_variable_initializerERKNS2_12SPIRVariableEE3$_3NS_9allocatorIS7_EEFvvEE18destroy_deallocateEv', symObjAddr: 0x9CD80, symBinAddr: 0xFC2A0, symSize: 0x30 }
  - { offset: 0x5DF154, size: 0x8, addend: 0x0, symName: '__ZNSt3__110__function6__funcIZN11spirv_cross12CompilerGLSL32emit_output_variable_initializerERKNS2_12SPIRVariableEE3$_3NS_9allocatorIS7_EEFvvEEclEv', symObjAddr: 0x9CDB0, symBinAddr: 0xFC2D0, symSize: 0x120 }
  - { offset: 0x5DF542, size: 0x8, addend: 0x0, symName: __ZN11spirv_cross12CompilerGLSL9statementIJNSt3__112basic_stringIcNS2_11char_traitsIcEENS2_9allocatorIcEEEERA4_KcRKS8_RA2_S9_EEEvDpOT_, symObjAddr: 0x9CF00, symBinAddr: 0xFC420, symSize: 0x1A0 }
  - { offset: 0x5DFA0E, size: 0x8, addend: 0x0, symName: '__ZNKSt3__110__function6__funcIZN11spirv_cross12CompilerGLSL32emit_output_variable_initializerERKNS2_12SPIRVariableEE3$_3NS_9allocatorIS7_EEFvvEE6targetERKSt9type_info', symObjAddr: 0x9CED0, symBinAddr: 0xFC3F0, symSize: 0x20 }
  - { offset: 0x5DFA84, size: 0x8, addend: 0x0, symName: '__ZNKSt3__110__function6__funcIZN11spirv_cross12CompilerGLSL32emit_output_variable_initializerERKNS2_12SPIRVariableEE3$_3NS_9allocatorIS7_EEFvvEE11target_typeEv', symObjAddr: 0x9CEF0, symBinAddr: 0xFC410, symSize: 0x10 }
  - { offset: 0x5E310A, size: 0x8, addend: 0x0, symName: __ZN11spirv_cross15SPIRAccessChainC2ERKS0_, symObjAddr: 0xAA340, symBinAddr: 0xFEBA0, symSize: 0x1B0 }
  - { offset: 0x5E37C8, size: 0x8, addend: 0x0, symName: __ZN11spirv_cross15SPIRAccessChainD1Ev, symObjAddr: 0xAA4F0, symBinAddr: 0xFED50, symSize: 0x60 }
  - { offset: 0x5E3AC5, size: 0x8, addend: 0x0, symName: __ZN11spirv_cross15SPIRAccessChainD0Ev, symObjAddr: 0xAA550, symBinAddr: 0xFEDB0, symSize: 0x60 }
  - { offset: 0x5E3DF1, size: 0x8, addend: 0x0, symName: __ZN11spirv_cross15SPIRAccessChain5cloneEPNS_14ObjectPoolBaseE, symObjAddr: 0xAA5B0, symBinAddr: 0xFEE10, symSize: 0x20 }
  - { offset: 0x5E4441, size: 0x8, addend: 0x0, symName: __ZN11spirv_cross24SPIRCombinedImageSampler5cloneEPNS_14ObjectPoolBaseE, symObjAddr: 0xAA960, symBinAddr: 0xFEF60, symSize: 0x20 }
  - { offset: 0x5E588A, size: 0x8, addend: 0x0, symName: __ZN11spirv_cross12CompilerGLSL15statement_innerINSt3__112basic_stringIcNS2_11char_traitsIcEENS2_9allocatorIcEEEEJRA3_KcS8_SB_S8_SB_S8_SB_S8_SB_jSB_EEEvOT_DpOT0_, symObjAddr: 0xAE700, symBinAddr: 0x100780, symSize: 0x130 }
  - { offset: 0x5E73B4, size: 0x8, addend: 0x0, symName: __ZNSt3__110unique_ptrINS_11__hash_nodeINS_17__hash_value_typeINS_12basic_stringIcNS_11char_traitsIcEENS_9allocatorIcEEEENS_13unordered_setIyNS_4hashIyEENS_8equal_toIyEENS6_IyEEEEEEPvEENS_22__hash_node_destructorINS6_ISI_EEEEED1B8ne180100Ev, symObjAddr: 0xB0B90, symBinAddr: 0x101BB0, symSize: 0x80 }
  - { offset: 0x5E9ECD, size: 0x8, addend: 0x0, symName: '__ZNSt3__110__function6__funcIZN11spirv_cross12CompilerGLSL50emit_inout_fragment_outputs_copy_to_subpass_inputsEvE3$_0NS_9allocatorIS4_EEFvvEED1Ev', symObjAddr: 0xB9260, symBinAddr: 0x104CD0, symSize: 0x10 }
  - { offset: 0x5E9EF6, size: 0x8, addend: 0x0, symName: '__ZNSt3__110__function6__funcIZN11spirv_cross12CompilerGLSL50emit_inout_fragment_outputs_copy_to_subpass_inputsEvE3$_0NS_9allocatorIS4_EEFvvEED0Ev', symObjAddr: 0xB9270, symBinAddr: 0x104CE0, symSize: 0x10 }
  - { offset: 0x5EA109, size: 0x8, addend: 0x0, symName: '__ZNKSt3__110__function6__funcIZN11spirv_cross12CompilerGLSL50emit_inout_fragment_outputs_copy_to_subpass_inputsEvE3$_0NS_9allocatorIS4_EEFvvEE7__cloneEv', symObjAddr: 0xB9280, symBinAddr: 0x104CF0, symSize: 0x40 }
  - { offset: 0x5EA455, size: 0x8, addend: 0x0, symName: '__ZNKSt3__110__function6__funcIZN11spirv_cross12CompilerGLSL50emit_inout_fragment_outputs_copy_to_subpass_inputsEvE3$_0NS_9allocatorIS4_EEFvvEE7__cloneEPNS0_6__baseIS7_EE', symObjAddr: 0xB92C0, symBinAddr: 0x104D30, symSize: 0x20 }
  - { offset: 0x5EA5EC, size: 0x8, addend: 0x0, symName: '__ZNSt3__110__function6__funcIZN11spirv_cross12CompilerGLSL50emit_inout_fragment_outputs_copy_to_subpass_inputsEvE3$_0NS_9allocatorIS4_EEFvvEE7destroyEv', symObjAddr: 0xB92E0, symBinAddr: 0x104D50, symSize: 0x10 }
  - { offset: 0x5EA63F, size: 0x8, addend: 0x0, symName: '__ZNSt3__110__function6__funcIZN11spirv_cross12CompilerGLSL50emit_inout_fragment_outputs_copy_to_subpass_inputsEvE3$_0NS_9allocatorIS4_EEFvvEE18destroy_deallocateEv', symObjAddr: 0xB92F0, symBinAddr: 0x104D60, symSize: 0x10 }
  - { offset: 0x5EA77E, size: 0x8, addend: 0x0, symName: '__ZNSt3__110__function6__funcIZN11spirv_cross12CompilerGLSL50emit_inout_fragment_outputs_copy_to_subpass_inputsEvE3$_0NS_9allocatorIS4_EEFvvEEclEv', symObjAddr: 0xB9300, symBinAddr: 0x104D70, symSize: 0x180 }
  - { offset: 0x5EACDF, size: 0x8, addend: 0x0, symName: __ZN11spirv_cross12CompilerGLSL9statementIJNSt3__112basic_stringIcNS2_11char_traitsIcEENS2_9allocatorIcEEEERA4_KcRA17_S9_jRA3_S9_EEEvDpOT_, symObjAddr: 0xB94B0, symBinAddr: 0x104F20, symSize: 0x1B0 }
  - { offset: 0x5EB1CD, size: 0x8, addend: 0x0, symName: __ZN11spirv_cross12CompilerGLSL9statementIJNSt3__112basic_stringIcNS2_11char_traitsIcEENS2_9allocatorIcEEEEPKcRA4_S9_S8_RA2_S9_EEEvDpOT_, symObjAddr: 0xB9660, symBinAddr: 0x1050D0, symSize: 0x1D0 }
  - { offset: 0x5EB753, size: 0x8, addend: 0x0, symName: '__ZNKSt3__110__function6__funcIZN11spirv_cross12CompilerGLSL50emit_inout_fragment_outputs_copy_to_subpass_inputsEvE3$_0NS_9allocatorIS4_EEFvvEE6targetERKSt9type_info', symObjAddr: 0xB9480, symBinAddr: 0x104EF0, symSize: 0x20 }
  - { offset: 0x5EB7C9, size: 0x8, addend: 0x0, symName: '__ZNKSt3__110__function6__funcIZN11spirv_cross12CompilerGLSL50emit_inout_fragment_outputs_copy_to_subpass_inputsEvE3$_0NS_9allocatorIS4_EEFvvEE11target_typeEv', symObjAddr: 0xB94A0, symBinAddr: 0x104F10, symSize: 0x10 }
  - { offset: 0x5EBB63, size: 0x8, addend: 0x0, symName: __ZNSt3__112__hash_tableIjNS_4hashIjEENS_8equal_toIjEENS_9allocatorIjEEE28__node_insert_unique_prepareB8ne180100EmRj, symObjAddr: 0xB9F10, symBinAddr: 0x105980, symSize: 0x340 }
  - { offset: 0x5FF562, size: 0x8, addend: 0x0, symName: __ZN11spirv_cross4joinIJRA8_KcNSt3__112basic_stringIcNS4_11char_traitsIcEENS4_9allocatorIcEEEERjRA2_S1_EEESA_DpOT_, symObjAddr: 0x6E0, symBinAddr: 0x107BB0, symSize: 0x1E0 }
  - { offset: 0x5FFA2B, size: 0x8, addend: 0x0, symName: __ZN11spirv_cross4joinIJNSt3__112basic_stringIcNS1_11char_traitsIcEENS1_9allocatorIcEEEERjEEES7_DpOT_, symObjAddr: 0x1250, symBinAddr: 0x108370, symSize: 0x190 }
  - { offset: 0x6000C4, size: 0x8, addend: 0x0, symName: __ZN11spirv_cross4joinIJRPKcRA8_S1_S3_S3_S3_RA2_S1_NSt3__112basic_stringIcNS8_11char_traitsIcEENS8_9allocatorIcEEEES7_EEESE_DpOT_, symObjAddr: 0x13E0, symBinAddr: 0x108500, symSize: 0x1F0 }
  - { offset: 0x600D76, size: 0x8, addend: 0x0, symName: __ZN11spirv_cross5inner11join_helperIRPKcJS4_RA2_S2_NSt3__112basic_stringIcNS7_11char_traitsIcEENS7_9allocatorIcEEEES6_EEEvRNS_12StringStreamILm4096ELm4096EEEOT_DpOT0_, symObjAddr: 0x370C0, symBinAddr: 0x12DFE0, symSize: 0xC0 }
  - { offset: 0x6029AD, size: 0x8, addend: 0x0, symName: __ZN11spirv_cross5inner11join_helperIRA2_KcJRA16_S2_RjRA9_S2_NSt3__112basic_stringIcNSA_11char_traitsIcEENSA_9allocatorIcEEEERA69_S2_EEEvRNS_12StringStreamILm4096ELm4096EEEOT_DpOT0_, symObjAddr: 0x487E0, symBinAddr: 0x133BB0, symSize: 0xD0 }
  - { offset: 0x60394A, size: 0x8, addend: 0x0, symName: __ZN11spirv_cross5inner11join_helperIRPKcJRNSt3__112basic_stringIcNS5_11char_traitsIcEENS5_9allocatorIcEEEERA2_S2_RKSB_RKiSE_EEEvRNS_12StringStreamILm4096ELm4096EEEOT_DpOT0_, symObjAddr: 0x51C00, symBinAddr: 0x136BB0, symSize: 0xE0 }
  - { offset: 0x603DF8, size: 0x8, addend: 0x0, symName: __ZN11spirv_cross5inner11join_helperIRA6_KcJRNSt3__112basic_stringIcNS5_11char_traitsIcEENS5_9allocatorIcEEEERA2_S2_RKSB_jSE_EEEvRNS_12StringStreamILm4096ELm4096EEEOT_DpOT0_, symObjAddr: 0x51D50, symBinAddr: 0x136D00, symSize: 0xE0 }
  - { offset: 0x604354, size: 0x8, addend: 0x0, symName: __ZN11spirv_cross5inner11join_helperIRPKcJRNSt3__112basic_stringIcNS5_11char_traitsIcEENS5_9allocatorIcEEEERA2_S2_RKSB_jSE_EEEvRNS_12StringStreamILm4096ELm4096EEEOT_DpOT0_, symObjAddr: 0x51E30, symBinAddr: 0x136DE0, symSize: 0xE0 }
  - { offset: 0x606911, size: 0x8, addend: 0x0, symName: __ZN11spirv_cross5inner11join_helperIRA2_KcJNSt3__112basic_stringIcNS5_11char_traitsIcEENS5_9allocatorIcEEEERjRA19_S2_SC_S4_EEEvRNS_12StringStreamILm4096ELm4096EEEOT_DpOT0_, symObjAddr: 0x38CB0, symBinAddr: 0x12EC60, symSize: 0xC0 }
  - { offset: 0x607FB8, size: 0x8, addend: 0x0, symName: __ZN11spirv_cross5inner11join_helperIRPKcJRA2_S2_NSt3__112basic_stringIcNS7_11char_traitsIcEENS7_9allocatorIcEEEERSD_S6_EEEvRNS_12StringStreamILm4096ELm4096EEEOT_DpOT0_, symObjAddr: 0x3C240, symBinAddr: 0x130FC0, symSize: 0xC0 }
  - { offset: 0x60ADBE, size: 0x8, addend: 0x0, symName: __ZN11spirv_cross5inner11join_helperIRA6_KcJPS2_RS5_RA2_S2_S6_S6_S6_RA8_S2_S5_RA16_S2_EEEvRNS_12StringStreamILm4096ELm4096EEEOT_DpOT0_, symObjAddr: 0x456F0, symBinAddr: 0x1330D0, symSize: 0x100 }
  - { offset: 0x60B4BE, size: 0x8, addend: 0x0, symName: __ZN11spirv_cross5inner11join_helperIRPKcJS4_RA8_S2_S3_RA16_S2_EEEvRNS_12StringStreamILm4096ELm4096EEEOT_DpOT0_, symObjAddr: 0x457F0, symBinAddr: 0x1331D0, symSize: 0xB0 }
  - { offset: 0x60C3B2, size: 0x8, addend: 0x0, symName: __ZN11spirv_cross5inner11join_helperIRA2_KcJNSt3__112basic_stringIcNS5_11char_traitsIcEENS5_9allocatorIcEEEESB_SB_S4_EEEvRNS_12StringStreamILm4096ELm4096EEEOT_DpOT0_, symObjAddr: 0x46ED0, symBinAddr: 0x1337E0, symSize: 0xD0 }
  - { offset: 0x60DFEF, size: 0x8, addend: 0x0, symName: __ZN11spirv_cross5inner11join_helperIRA17_KcJRjRA32_S2_jRA2_S2_RS2_S9_EEEvRNS_12StringStreamILm4096ELm4096EEEOT_DpOT0_, symObjAddr: 0x4D800, symBinAddr: 0x135560, symSize: 0xD0 }
  - { offset: 0x60EAB1, size: 0x8, addend: 0x0, symName: __ZN11spirv_cross5inner11join_helperIRjJRA17_KcRNSt3__112basic_stringIcNS6_11char_traitsIcEENS6_9allocatorIcEEEERA2_S3_S2_SF_EEEvRNS_12StringStreamILm4096ELm4096EEEOT_DpOT0_, symObjAddr: 0x4E290, symBinAddr: 0x135AB0, symSize: 0xB0 }
  - { offset: 0x60F004, size: 0x8, addend: 0x0, symName: __ZN11spirv_cross5inner11join_helperIRA29_KcJjRA2_S2_RS2_RA20_S2_RjRA3_S2_EEEvRNS_12StringStreamILm4096ELm4096EEEOT_DpOT0_, symObjAddr: 0x4EDF0, symBinAddr: 0x136430, symSize: 0xD0 }
  - { offset: 0x611699, size: 0x8, addend: 0x0, symName: __ZN11spirv_cross5inner11join_helperIRA2_KcJRKNSt3__112basic_stringIcNS5_11char_traitsIcEENS5_9allocatorIcEEEERKiRA3_S2_RSB_SH_EEEvRNS_12StringStreamILm4096ELm4096EEEOT_DpOT0_, symObjAddr: 0x52580, symBinAddr: 0x1370E0, symSize: 0xE0 }
  - { offset: 0x611DB0, size: 0x8, addend: 0x0, symName: __ZN11spirv_cross5inner11join_helperIRA2_KcJRKNSt3__112basic_stringIcNS5_11char_traitsIcEENS5_9allocatorIcEEEEjRA3_S2_RSB_SF_EEEvRNS_12StringStreamILm4096ELm4096EEEOT_DpOT0_, symObjAddr: 0x52990, symBinAddr: 0x1374F0, symSize: 0xE0 }
  - { offset: 0x6127D6, size: 0x8, addend: 0x0, symName: __ZN11spirv_cross5inner11join_helperIRA2_KcJRPS2_S4_RNSt3__112basic_stringIcNS7_11char_traitsIcEENS7_9allocatorIcEEEERiRA3_S2_SD_SH_SD_SH_EEEvRNS_12StringStreamILm4096ELm4096EEEOT_DpOT0_, symObjAddr: 0x53C60, symBinAddr: 0x137D00, symSize: 0xF0 }
  - { offset: 0x616789, size: 0x8, addend: 0x0, symName: __ZN11spirv_cross4joinIJPKcRKjRA2_S1_S4_EEENSt3__112basic_stringIcNS7_11char_traitsIcEENS7_9allocatorIcEEEEDpOT_, symObjAddr: 0x2DA0, symBinAddr: 0x1092C0, symSize: 0x1C0 }
  - { offset: 0x6174CD, size: 0x8, addend: 0x0, symName: __ZN11spirv_cross4joinIJPKcRKjEEENSt3__112basic_stringIcNS5_11char_traitsIcEENS5_9allocatorIcEEEEDpOT_, symObjAddr: 0x2570, symBinAddr: 0x109130, symSize: 0x190 }
  - { offset: 0x6186EF, size: 0x8, addend: 0x0, symName: __ZN11spirv_cross4joinIJNSt3__112basic_stringIcNS1_11char_traitsIcEENS1_9allocatorIcEEEES7_RA2_KcRS7_S7_RA4_S8_SB_SA_EEES7_DpOT_, symObjAddr: 0x39930, symBinAddr: 0x12F5F0, symSize: 0x1F0 }
  - { offset: 0x618E93, size: 0x8, addend: 0x0, symName: __ZN11spirv_cross4joinIJRNSt3__112basic_stringIcNS1_11char_traitsIcEENS1_9allocatorIcEEEERA2_KcRjEEES7_DpOT_, symObjAddr: 0x6660, symBinAddr: 0x10BD20, symSize: 0x1B0 }
  - { offset: 0x6192B1, size: 0x8, addend: 0x0, symName: __ZN11spirv_cross4joinIJNSt3__112basic_stringIcNS1_11char_traitsIcEENS1_9allocatorIcEEEES7_RA4_KcRS7_RA2_S8_EEES7_DpOT_, symObjAddr: 0x3A1B0, symBinAddr: 0x12F7E0, symSize: 0x160 }
  - { offset: 0x61BEB9, size: 0x8, addend: 0x0, symName: __ZN11spirv_cross4joinIJPKcEEENSt3__112basic_stringIcNS3_11char_traitsIcEENS3_9allocatorIcEEEEDpOT_, symObjAddr: 0x3F340, symBinAddr: 0x1329C0, symSize: 0x180 }
  - { offset: 0x61C19D, size: 0x8, addend: 0x0, symName: __ZN11spirv_cross4joinIJRPKcRA2_S1_NSt3__112basic_stringIcNS6_11char_traitsIcEENS6_9allocatorIcEEEERSC_S5_EEESC_DpOT_, symObjAddr: 0x3F4C0, symBinAddr: 0x132B40, symSize: 0x160 }
  - { offset: 0x6222AF, size: 0x8, addend: 0x0, symName: __ZN11spirv_cross4joinIJRA29_KcRNSt3__112basic_stringIcNS4_11char_traitsIcEENS4_9allocatorIcEEEERA11_S1_SB_RA14_S1_SB_RA10_S1_SB_RA3_S1_SB_SD_SB_RA2_S1_EEESA_DpOT_, symObjAddr: 0x44A30, symBinAddr: 0x132CA0, symSize: 0x220 }
  - { offset: 0x622E1E, size: 0x8, addend: 0x0, symName: __ZN11spirv_cross4joinIJRPKcRA5_S1_S2_RA6_S1_S2_S3_RA2_S1_S3_S3_S3_RA8_S1_S2_RA16_S1_EEENSt3__112basic_stringIcNSE_11char_traitsIcEENSE_9allocatorIcEEEEDpOT_, symObjAddr: 0x454E0, symBinAddr: 0x132EC0, symSize: 0x210 }
  - { offset: 0x6237B5, size: 0x8, addend: 0x0, symName: __ZN11spirv_cross4joinIJRA16_KcjRPS1_RA2_S1_EEENSt3__112basic_stringIcNS8_11char_traitsIcEENS8_9allocatorIcEEEEDpOT_, symObjAddr: 0x12D30, symBinAddr: 0x114910, symSize: 0x1D0 }
  - { offset: 0x623C33, size: 0x8, addend: 0x0, symName: __ZN11spirv_cross4joinIJNSt3__112basic_stringIcNS1_11char_traitsIcEENS1_9allocatorIcEEEERKS7_S7_RS7_RA2_KcEEES7_DpOT_, symObjAddr: 0x466D0, symBinAddr: 0x1334A0, symSize: 0x160 }
  - { offset: 0x625127, size: 0x8, addend: 0x0, symName: __ZN11spirv_cross4joinIJRA12_KcRKNS_7TypedIDILNS_5TypesE0EEERA9_S1_RNSt3__112basic_stringIcNSB_11char_traitsIcEENSB_9allocatorIcEEEERA17_S1_RjSA_SH_RA69_S1_EEESH_DpOT_, symObjAddr: 0x152D0, symBinAddr: 0x116960, symSize: 0x1E0 }
  - { offset: 0x625641, size: 0x8, addend: 0x0, symName: __ZN11spirv_cross4joinIJPKcRNSt3__112basic_stringIcNS3_11char_traitsIcEENS3_9allocatorIcEEEERA2_S1_S9_S9_S9_SC_EEES9_DpOT_, symObjAddr: 0x46CF0, symBinAddr: 0x133600, symSize: 0x1E0 }
  - { offset: 0x625AE6, size: 0x8, addend: 0x0, symName: __ZN11spirv_cross4joinIJRA13_KcRcRjRA8_S1_S5_RA2_S1_EEENSt3__112basic_stringIcNSA_11char_traitsIcEENSA_9allocatorIcEEEEDpOT_, symObjAddr: 0x1D9A0, symBinAddr: 0x11DEB0, symSize: 0x210 }
  - { offset: 0x62609C, size: 0x8, addend: 0x0, symName: __ZN11spirv_cross4joinIJRA13_KcRcRjRA2_S1_EEENSt3__112basic_stringIcNS8_11char_traitsIcEENS8_9allocatorIcEEEEDpOT_, symObjAddr: 0x1DBB0, symBinAddr: 0x11E0C0, symSize: 0x1E0 }
  - { offset: 0x6267D2, size: 0x8, addend: 0x0, symName: __ZN11spirv_cross4joinIJRA16_KcNSt3__112basic_stringIcNS4_11char_traitsIcEENS4_9allocatorIcEEEERA3_S1_SA_SA_SA_RA2_S1_EEESA_DpOT_, symObjAddr: 0x48410, symBinAddr: 0x1339D0, symSize: 0x1E0 }
  - { offset: 0x626C6D, size: 0x8, addend: 0x0, symName: __ZN11spirv_cross4joinIJRA26_KcRKNS_7TypedIDILNS_5TypesE0EEERA9_S1_NSt3__112basic_stringIcNSB_11char_traitsIcEENSB_9allocatorIcEEEERA2_S1_RA16_S1_RjSA_SH_RA69_S1_EEESH_DpOT_, symObjAddr: 0x163D0, symBinAddr: 0x1176C0, symSize: 0x210 }
  - { offset: 0x6286D3, size: 0x8, addend: 0x0, symName: __ZN11spirv_cross4joinIJPKcRS2_RA2_S1_NSt3__112basic_stringIcNS6_11char_traitsIcEENS6_9allocatorIcEEEES5_EEESC_DpOT_, symObjAddr: 0x4A240, symBinAddr: 0x133DE0, symSize: 0x160 }
  - { offset: 0x62A05C, size: 0x8, addend: 0x0, symName: __ZN11spirv_cross4joinIJRA24_KcNSt3__112basic_stringIcNS4_11char_traitsIcEENS4_9allocatorIcEEEESA_SA_RA2_S1_EEESA_DpOT_, symObjAddr: 0x50ED0, symBinAddr: 0x136A50, symSize: 0x160 }
  - { offset: 0x62AC47, size: 0x8, addend: 0x0, symName: __ZN11spirv_cross4joinIJRNSt3__112basic_stringIcNS1_11char_traitsIcEENS1_9allocatorIcEEEERA4_KcRKjSB_RKS7_EEES7_DpOT_, symObjAddr: 0x1FD30, symBinAddr: 0x11FE90, symSize: 0x200 }
  - { offset: 0x62BDC8, size: 0x8, addend: 0x0, symName: __ZN11spirv_cross4joinIJRNSt3__112basic_stringIcNS1_11char_traitsIcEENS1_9allocatorIcEEEERA6_KcS8_RA2_S9_RKS7_jSD_EEES7_DpOT_, symObjAddr: 0x21C70, symBinAddr: 0x121810, symSize: 0x1B0 }
  - { offset: 0x62C1B4, size: 0x8, addend: 0x0, symName: __ZN11spirv_cross4joinIJRNSt3__112basic_stringIcNS1_11char_traitsIcEENS1_9allocatorIcEEEERA2_KcRPS9_S8_SB_RKS7_RKiSB_EEES7_DpOT_, symObjAddr: 0x21AA0, symBinAddr: 0x121640, symSize: 0x1D0 }
  - { offset: 0x62C673, size: 0x8, addend: 0x0, symName: __ZN11spirv_cross4joinIJRNSt3__112basic_stringIcNS1_11char_traitsIcEENS1_9allocatorIcEEEERA2_KcRPS9_S8_SB_RKS7_jSB_EEES7_DpOT_, symObjAddr: 0x21E20, symBinAddr: 0x1219C0, symSize: 0x1D0 }
  - { offset: 0x62D50D, size: 0x8, addend: 0x0, symName: __ZN11spirv_cross4joinIJNSt3__112basic_stringIcNS1_11char_traitsIcEENS1_9allocatorIcEEEERA2_KcRjRA3_S8_PS8_EEES7_DpOT_, symObjAddr: 0x251C0, symBinAddr: 0x124920, symSize: 0x1F0 }
  - { offset: 0x62DD83, size: 0x8, addend: 0x0, symName: __ZN11spirv_cross4joinIJRNSt3__112basic_stringIcNS1_11char_traitsIcEENS1_9allocatorIcEEEERA2_KcRPS9_S8_SB_RKS7_RKiRA3_S9_S8_SJ_EEES7_DpOT_, symObjAddr: 0x52360, symBinAddr: 0x136EC0, symSize: 0x220 }
  - { offset: 0x62E45F, size: 0x8, addend: 0x0, symName: __ZN11spirv_cross4joinIJRNSt3__112basic_stringIcNS1_11char_traitsIcEENS1_9allocatorIcEEEERA7_KcS8_RA2_S9_RKS7_jRA3_S9_S8_SH_EEES7_DpOT_, symObjAddr: 0x52790, symBinAddr: 0x1372F0, symSize: 0x200 }
  - { offset: 0x62EA4A, size: 0x8, addend: 0x0, symName: __ZN11spirv_cross4joinIJRNSt3__112basic_stringIcNS1_11char_traitsIcEENS1_9allocatorIcEEEERA2_KcRPS9_S8_SB_RKS7_jRA3_S9_S8_SH_EEES7_DpOT_, symObjAddr: 0x52B70, symBinAddr: 0x1376D0, symSize: 0x220 }
  - { offset: 0x62FB5C, size: 0x8, addend: 0x0, symName: __ZN11spirv_cross4joinIJRNSt3__112basic_stringIcNS1_11char_traitsIcEENS1_9allocatorIcEEEERA2_KcRPS9_SB_S8_RiRA3_S9_S7_SG_S7_SG_EEES7_DpOT_, symObjAddr: 0x53A80, symBinAddr: 0x137B20, symSize: 0x1E0 }
  - { offset: 0x630CA4, size: 0x8, addend: 0x0, symName: __ZN11spirv_cross4joinIJRA14_KcRA2_S1_NSt3__112basic_stringIcNS6_11char_traitsIcEENS6_9allocatorIcEEEES5_EEESC_DpOT_, symObjAddr: 0x289A0, symBinAddr: 0x127910, symSize: 0x1F0 }
  - { offset: 0x63496F, size: 0x8, addend: 0x0, symName: __ZN11spirv_cross4joinIJNSt3__112basic_stringIcNS1_11char_traitsIcEENS1_9allocatorIcEEEERA5_KcS7_RA4_S8_RjSA_SD_RA2_S8_EEES7_DpOT_, symObjAddr: 0x55900, symBinAddr: 0x137F30, symSize: 0x1D0 }
  - { offset: 0x634E2E, size: 0x8, addend: 0x0, symName: __ZN11spirv_cross4joinIJRA9_KcRNSt3__112basic_stringIcNS4_11char_traitsIcEENS4_9allocatorIcEEEERA5_S1_SA_RA3_S1_SA_SF_SA_SF_SA_SF_EEESA_DpOT_, symObjAddr: 0x55C90, symBinAddr: 0x138100, symSize: 0x1E0 }
  - { offset: 0x635FC3, size: 0x8, addend: 0x0, symName: __ZN11spirv_cross4joinIJRPKcRA2_S1_NSt3__112basic_stringIcNS6_11char_traitsIcEENS6_9allocatorIcEEEERjRA19_S1_SD_S5_EEESC_DpOT_, symObjAddr: 0x389E0, symBinAddr: 0x12E990, symSize: 0x1C0 }
  - { offset: 0x636792, size: 0x8, addend: 0x0, symName: __ZN11spirv_cross4joinIJRA8_KcRPS1_RA2_S1_NSt3__112basic_stringIcNS8_11char_traitsIcEENS8_9allocatorIcEEEES7_RjS7_RSE_S7_EEESE_DpOT_, symObjAddr: 0x3BBD0, symBinAddr: 0x130B10, symSize: 0x1F0 }
  - { offset: 0x636CED, size: 0x8, addend: 0x0, symName: __ZN11spirv_cross4joinIJRA8_KcRPS1_RA2_S1_NSt3__112basic_stringIcNS8_11char_traitsIcEENS8_9allocatorIcEEEERSE_S7_EEESE_DpOT_, symObjAddr: 0x3BF80, symBinAddr: 0x130D00, symSize: 0x1B0 }
  - { offset: 0x639235, size: 0x8, addend: 0x0, symName: __ZN11spirv_cross4joinIJRA17_KcRjRA32_S1_jRA2_S1_RS1_S8_EEENSt3__112basic_stringIcNSA_11char_traitsIcEENSA_9allocatorIcEEEEDpOT_, symObjAddr: 0x4D590, symBinAddr: 0x1352F0, symSize: 0x170 }
  - { offset: 0x639776, size: 0x8, addend: 0x0, symName: __ZN11spirv_cross4joinIJRNSt3__112basic_stringIcNS1_11char_traitsIcEENS1_9allocatorIcEEEERA2_KcRjRA17_S9_S8_SB_SC_SB_EEES7_DpOT_, symObjAddr: 0x4E0C0, symBinAddr: 0x1358E0, symSize: 0x1D0 }
  - { offset: 0x639C35, size: 0x8, addend: 0x0, symName: __ZN11spirv_cross4joinIJRA29_KcjRA2_S1_RS1_RA20_S1_RjRA3_S1_EEENSt3__112basic_stringIcNSC_11char_traitsIcEENSC_9allocatorIcEEEEDpOT_, symObjAddr: 0x4EB80, symBinAddr: 0x1361C0, symSize: 0x170 }
  - { offset: 0x63A3B2, size: 0x8, addend: 0x0, symName: __ZN11spirv_cross4joinIJRA14_KcRNSt3__112basic_stringIcNS4_11char_traitsIcEENS4_9allocatorIcEEEERA11_S1_SB_SB_RA3_S1_EEESA_DpOT_, symObjAddr: 0x4F710, symBinAddr: 0x136780, symSize: 0x1B0 }
  - { offset: 0x65EA60, size: 0x8, addend: 0x0, symName: __ZNSt3__1L19piecewise_constructE, symObjAddr: 0x60E99, symBinAddr: 0x1ECA29, symSize: 0x0 }
  - { offset: 0x663190, size: 0x8, addend: 0x0, symName: '__ZNSt3__111__introsortINS_17_ClassicAlgPolicyERZN11spirv_cross12CompilerHLSL14emit_resourcesEvE3$_5PZNS3_14emit_resourcesEvE10IOVariableLb0EEEvT1_S8_T0_NS_15iterator_traitsIS8_E15difference_typeEb', symObjAddr: 0x3DF40, symBinAddr: 0x1315C0, symSize: 0xBA0 }
  - { offset: 0x663FF4, size: 0x8, addend: 0x0, symName: '__ZNSt3__127__insertion_sort_incompleteB8ne180100INS_17_ClassicAlgPolicyERZN11spirv_cross12CompilerHLSL14emit_resourcesEvE3$_5PZNS3_14emit_resourcesEvE10IOVariableEEbT1_S8_T0_', symObjAddr: 0x3F080, symBinAddr: 0x132700, symSize: 0x2C0 }
  - { offset: 0x66890E, size: 0x8, addend: 0x0, symName: '__ZNSt3__17__sort3B8ne180100INS_17_ClassicAlgPolicyERZN11spirv_cross12CompilerHLSL14emit_resourcesEvE3$_5PZNS3_14emit_resourcesEvE10IOVariableEEjT1_S8_S8_T0_', symObjAddr: 0x3EF10, symBinAddr: 0x132590, symSize: 0x170 }
  - { offset: 0x668C82, size: 0x8, addend: 0x0, symName: '__ZNSt3__124__sort5_maybe_branchlessB8ne180100INS_17_ClassicAlgPolicyERZN11spirv_cross12CompilerHLSL14emit_resourcesEvE3$_5PZNS3_14emit_resourcesEvE10IOVariableLi0EEEvT1_S8_S8_S8_S8_T0_', symObjAddr: 0x3ECE0, symBinAddr: 0x132360, symSize: 0x230 }
  - { offset: 0x66FDC4, size: 0x8, addend: 0x0, symName: __ZN11spirv_cross12CompilerHLSL21replace_illegal_namesEv, symObjAddr: 0x9970, symBinAddr: 0x10E240, symSize: 0xBE0 }
  - { offset: 0x66FDEC, size: 0x8, addend: 0x0, symName: __ZZN11spirv_cross12CompilerHLSL21replace_illegal_namesEvE8keywords, symObjAddr: 0x56CFF0, symBinAddr: 0x21B668, symSize: 0x0 }
  - { offset: 0x670ACD, size: 0x8, addend: 0x0, symName: __ZN11spirv_cross12CompilerHLSL14emit_resourcesEv, symObjAddr: 0xA660, symBinAddr: 0x10EE40, symSize: 0x2920 }
  - { offset: 0x670AF5, size: 0x8, addend: 0x0, symName: __ZZN11spirv_cross12CompilerHLSL14emit_resourcesEvE5types, symObjAddr: 0x61480, symBinAddr: 0x21A6C0, symSize: 0x0 }
  - { offset: 0x670B26, size: 0x8, addend: 0x0, symName: __ZZN11spirv_cross12CompilerHLSL14emit_resourcesEvE5types_0, symObjAddr: 0x614A0, symBinAddr: 0x21A6E0, symSize: 0x0 }
  - { offset: 0x670B3D, size: 0x8, addend: 0x0, symName: __ZZN11spirv_cross12CompilerHLSL14emit_resourcesEvE14unsigned_types, symObjAddr: 0x614C0, symBinAddr: 0x21A700, symSize: 0x0 }
  - { offset: 0x670B54, size: 0x8, addend: 0x0, symName: __ZZN11spirv_cross12CompilerHLSL14emit_resourcesEvE12signed_types, symObjAddr: 0x614E0, symBinAddr: 0x21A720, symSize: 0x0 }
  - { offset: 0x675AA7, size: 0x8, addend: 0x0, symName: __ZN11spirv_cross12CompilerHLSL26emit_texture_size_variantsEyPKcbS2_, symObjAddr: 0xD580, symBinAddr: 0x111B60, symSize: 0x280 }
  - { offset: 0x675ACF, size: 0x8, addend: 0x0, symName: __ZZN11spirv_cross12CompilerHLSL26emit_texture_size_variantsEyPKcbS2_E5types, symObjAddr: 0x61500, symBinAddr: 0x21A740, symSize: 0x0 }
  - { offset: 0x675AE6, size: 0x8, addend: 0x0, symName: __ZZN11spirv_cross12CompilerHLSL26emit_texture_size_variantsEyPKcbS2_E4dims, symObjAddr: 0x61520, symBinAddr: 0x21A760, symSize: 0x0 }
  - { offset: 0x675B0A, size: 0x8, addend: 0x0, symName: __ZZN11spirv_cross12CompilerHLSL26emit_texture_size_variantsEyPKcbS2_E9ret_types, symObjAddr: 0x61570, symBinAddr: 0x21A7B0, symSize: 0x0 }
  - { offset: 0x675B21, size: 0x8, addend: 0x0, symName: __ZZN11spirv_cross12CompilerHLSL26emit_texture_size_variantsEyPKcbS2_E16return_arguments, symObjAddr: 0x60E00, symBinAddr: 0x1EC9C0, symSize: 0x0 }
  - { offset: 0x675D43, size: 0x8, addend: 0x0, symName: __ZN11spirv_cross12CompilerHLSL18emit_struct_memberERKNS_8SPIRTypeEjjRKNSt3__112basic_stringIcNS4_11char_traitsIcEENS4_9allocatorIcEEEEj, symObjAddr: 0x12940, symBinAddr: 0x114520, symSize: 0x3F0 }
  - { offset: 0x675D6B, size: 0x8, addend: 0x0, symName: __ZZN11spirv_cross12CompilerHLSL18emit_struct_memberERKNS_8SPIRTypeEjjRKNSt3__112basic_stringIcNS4_11char_traitsIcEENS4_9allocatorIcEEEEjE15packing_swizzle, symObjAddr: 0x615C0, symBinAddr: 0x21A800, symSize: 0x0 }
  - { offset: 0x67716B, size: 0x8, addend: 0x0, symName: __ZN11spirv_cross12CompilerHLSL30emit_builtin_outputs_in_structEv, symObjAddr: 0x3980, symBinAddr: 0x109760, symSize: 0x360 }
  - { offset: 0x677707, size: 0x8, addend: 0x0, symName: '__ZZN11spirv_cross12CompilerHLSL30emit_builtin_outputs_in_structEvENK3$_0clEj', symObjAddr: 0x37F60, symBinAddr: 0x12E0A0, symSize: 0x550 }
  - { offset: 0x677730, size: 0x8, addend: 0x0, symName: '__ZZZN11spirv_cross12CompilerHLSL30emit_builtin_outputs_in_structEvENK3$_0clEjE5types', symObjAddr: 0x615E0, symBinAddr: 0x21A820, symSize: 0x0 }
  - { offset: 0x677747, size: 0x8, addend: 0x0, symName: '__ZZZN11spirv_cross12CompilerHLSL30emit_builtin_outputs_in_structEvENK3$_0clEjE5types_0', symObjAddr: 0x61600, symBinAddr: 0x21A840, symSize: 0x0 }
  - { offset: 0x677E98, size: 0x8, addend: 0x0, symName: __ZN11spirv_cross12CompilerHLSL29emit_builtin_inputs_in_structEv, symObjAddr: 0x4010, symBinAddr: 0x109DF0, symSize: 0x350 }
  - { offset: 0x678411, size: 0x8, addend: 0x0, symName: '__ZZN11spirv_cross12CompilerHLSL29emit_builtin_inputs_in_structEvENK3$_0clEj', symObjAddr: 0x39260, symBinAddr: 0x12EFA0, symSize: 0x650 }
  - { offset: 0x67843A, size: 0x8, addend: 0x0, symName: '__ZZZN11spirv_cross12CompilerHLSL29emit_builtin_inputs_in_structEvENK3$_0clEjE5types', symObjAddr: 0x61620, symBinAddr: 0x21A860, symSize: 0x0 }
  - { offset: 0x678451, size: 0x8, addend: 0x0, symName: '__ZZZN11spirv_cross12CompilerHLSL29emit_builtin_inputs_in_structEvENK3$_0clEjE5types_0', symObjAddr: 0x61640, symBinAddr: 0x21A880, symSize: 0x0 }
  - { offset: 0x679915, size: 0x8, addend: 0x0, symName: __ZN11spirv_cross12CompilerHLSL22image_type_hlsl_modernERKNS_8SPIRTypeEj, symObjAddr: 0x0, symBinAddr: 0x107510, symSize: 0x6A0 }
  - { offset: 0x67A552, size: 0x8, addend: 0x0, symName: __ZL20image_format_to_typeN3spv11ImageFormatEN11spirv_cross8SPIRType8BaseTypeE, symObjAddr: 0xA80, symBinAddr: 0x107D90, symSize: 0x5E0 }
  - { offset: 0x67CC13, size: 0x8, addend: 0x0, symName: __ZN11spirv_cross12CompilerHLSL22image_type_hlsl_legacyERKNS_8SPIRTypeEj, symObjAddr: 0x15D0, symBinAddr: 0x1086F0, symSize: 0x330 }
  - { offset: 0x67DA45, size: 0x8, addend: 0x0, symName: __ZN11spirv_cross12CompilerHLSL15image_type_hlslERKNS_8SPIRTypeEj, symObjAddr: 0x1900, symBinAddr: 0x108A20, symSize: 0x30 }
  - { offset: 0x67DB21, size: 0x8, addend: 0x0, symName: __ZN11spirv_cross12CompilerHLSL12type_to_glslERKNS_8SPIRTypeEj, symObjAddr: 0x1930, symBinAddr: 0x108A50, symSize: 0x6E0 }
  - { offset: 0x67E732, size: 0x8, addend: 0x0, symName: __ZN11spirv_cross12CompilerHLSL11emit_headerEv, symObjAddr: 0x32E0, symBinAddr: 0x109480, symSize: 0x80 }
  - { offset: 0x67F0DD, size: 0x8, addend: 0x0, symName: __ZN11spirv_cross12CompilerHLSL29emit_interface_block_globallyERKNS_12SPIRVariableE, symObjAddr: 0x3570, symBinAddr: 0x109500, symSize: 0x230 }
  - { offset: 0x680F06, size: 0x8, addend: 0x0, symName: __ZN11spirv_cross12CompilerHLSL26to_storage_qualifiers_glslERKNS_12SPIRVariableE, symObjAddr: 0x3950, symBinAddr: 0x109730, symSize: 0x30 }
  - { offset: 0x68116D, size: 0x8, addend: 0x0, symName: __ZN11spirv_cross12CompilerHLSL40emit_builtin_primitive_outputs_in_structEv, symObjAddr: 0x3CE0, symBinAddr: 0x109AC0, symSize: 0x330 }
  - { offset: 0x681778, size: 0x8, addend: 0x0, symName: '__ZZN11spirv_cross12CompilerHLSL40emit_builtin_primitive_outputs_in_structEvENK3$_0clEj', symObjAddr: 0x390E0, symBinAddr: 0x12EE20, symSize: 0x180 }
  - { offset: 0x681C62, size: 0x8, addend: 0x0, symName: __ZNK11spirv_cross12CompilerHLSL26type_to_consumed_locationsERKNS_8SPIRTypeE, symObjAddr: 0x4360, symBinAddr: 0x10A140, symSize: 0xD0 }
  - { offset: 0x681EBE, size: 0x8, addend: 0x0, symName: __ZN11spirv_cross12CompilerHLSL27to_interpolation_qualifiersERKNS_6BitsetE, symObjAddr: 0x4430, symBinAddr: 0x10A210, symSize: 0xF0 }
  - { offset: 0x682440, size: 0x8, addend: 0x0, symName: __ZN11spirv_cross12CompilerHLSL11to_semanticEjN3spv14ExecutionModelENS1_12StorageClassE, symObjAddr: 0x4660, symBinAddr: 0x10A300, symSize: 0x90 }
  - { offset: 0x682863, size: 0x8, addend: 0x0, symName: __ZN11spirv_cross12CompilerHLSL25to_initializer_expressionERKNS_12SPIRVariableE, symObjAddr: 0x4880, symBinAddr: 0x10A390, symSize: 0xA0 }
  - { offset: 0x682F04, size: 0x8, addend: 0x0, symName: __ZN11spirv_cross12CompilerHLSL37emit_interface_block_member_in_structERKNS_12SPIRVariableEjjRNSt3__113unordered_setIjNS4_4hashIjEENS4_8equal_toIjEENS4_9allocatorIjEEEE, symObjAddr: 0x4920, symBinAddr: 0x10A430, symSize: 0x560 }
  - { offset: 0x684DCC, size: 0x8, addend: 0x0, symName: __ZN11spirv_cross12CompilerGLSL9statementIJNSt3__112basic_stringIcNS2_11char_traitsIcEENS2_9allocatorIcEEEES8_RA2_KcRS8_S8_RA4_S9_SC_SB_EEEvDpOT_, symObjAddr: 0x5040, symBinAddr: 0x10A990, symSize: 0x1A0 }
  - { offset: 0x685E9C, size: 0x8, addend: 0x0, symName: __ZN11spirv_cross12CompilerHLSL30emit_interface_block_in_structERKNS_12SPIRVariableERNSt3__113unordered_setIjNS4_4hashIjEENS4_8equal_toIjEENS4_9allocatorIjEEEE, symObjAddr: 0x51F0, symBinAddr: 0x10AB30, symSize: 0x11F0 }
  - { offset: 0x68AADE, size: 0x8, addend: 0x0, symName: __ZN11spirv_cross12CompilerGLSL9statementIJNSt3__112basic_stringIcNS2_11char_traitsIcEENS2_9allocatorIcEEEES8_RA4_KcRS8_RA2_S9_EEEvDpOT_, symObjAddr: 0x6810, symBinAddr: 0x10BED0, symSize: 0x1D0 }
  - { offset: 0x68B5CF, size: 0x8, addend: 0x0, symName: __ZN11spirv_cross12CompilerHLSL15builtin_to_glslEN3spv7BuiltInENS1_12StorageClassE, symObjAddr: 0x6B80, symBinAddr: 0x10C0A0, symSize: 0x290 }
  - { offset: 0x68CB3F, size: 0x8, addend: 0x0, symName: __ZN11spirv_cross12CompilerHLSL22emit_builtin_variablesEv, symObjAddr: 0x6FD0, symBinAddr: 0x10C330, symSize: 0x860 }
  - { offset: 0x68F1FF, size: 0x8, addend: 0x0, symName: __ZNSt3__112__hash_tableINS_17__hash_value_typeIjN11spirv_cross7TypedIDILNS2_5TypesE0EEEEENS_22__unordered_map_hasherIjS6_NS_4hashIjEENS_8equal_toIjEELb1EEENS_21__unordered_map_equalIjS6_SB_S9_Lb1EEENS_9allocatorIS6_EEE25__emplace_unique_key_argsIjJRKNS_21piecewise_construct_tENS_5tupleIJOjEEENSM_IJEEEEEENS_4pairINS_15__hash_iteratorIPNS_11__hash_nodeIS6_PvEEEEbEERKT_DpOT0_, symObjAddr: 0x3A630, symBinAddr: 0x12F940, symSize: 0x430 }
  - { offset: 0x68FA65, size: 0x8, addend: 0x0, symName: '__ZZN11spirv_cross12CompilerHLSL22emit_builtin_variablesEvENK3$_1clEj', symObjAddr: 0x3ACA0, symBinAddr: 0x12FD70, symSize: 0xAD0 }
  - { offset: 0x690E98, size: 0x8, addend: 0x0, symName: __ZN11spirv_cross12CompilerGLSL9statementIJRA31_KcRNSt3__112basic_stringIcNS5_11char_traitsIcEENS5_9allocatorIcEEEEEEEvDpOT_, symObjAddr: 0x7B80, symBinAddr: 0x10CB90, symSize: 0x140 }
  - { offset: 0x691752, size: 0x8, addend: 0x0, symName: __ZN11spirv_cross12CompilerHLSL27set_hlsl_aux_buffer_bindingENS_14HLSLAuxBindingEjj, symObjAddr: 0x7F10, symBinAddr: 0x10CCD0, symSize: 0x20 }
  - { offset: 0x6917A7, size: 0x8, addend: 0x0, symName: __ZN11spirv_cross12CompilerHLSL29unset_hlsl_aux_buffer_bindingENS_14HLSLAuxBindingE, symObjAddr: 0x7F30, symBinAddr: 0x10CCF0, symSize: 0x20 }
  - { offset: 0x6917DE, size: 0x8, addend: 0x0, symName: __ZNK11spirv_cross12CompilerHLSL31is_hlsl_aux_buffer_binding_usedENS_14HLSLAuxBindingE, symObjAddr: 0x7F50, symBinAddr: 0x10CD10, symSize: 0x20 }
  - { offset: 0x691815, size: 0x8, addend: 0x0, symName: __ZN11spirv_cross12CompilerHLSL24emit_composite_constantsEv, symObjAddr: 0x7F70, symBinAddr: 0x10CD30, symSize: 0x230 }
  - { offset: 0x692317, size: 0x8, addend: 0x0, symName: __ZN11spirv_cross12CompilerGLSL9statementIJRA14_KcNSt3__112basic_stringIcNS5_11char_traitsIcEENS5_9allocatorIcEEEERA4_S2_SB_RA2_S2_EEEvDpOT_, symObjAddr: 0x92A0, symBinAddr: 0x10DEE0, symSize: 0x1D0 }
  - { offset: 0x692B30, size: 0x8, addend: 0x0, symName: __ZN11spirv_cross12CompilerHLSL41emit_specialization_constants_and_structsEv, symObjAddr: 0x81A0, symBinAddr: 0x10CF60, symSize: 0x980 }
  - { offset: 0x694DC2, size: 0x8, addend: 0x0, symName: __ZNSt3__112__hash_tableIN11spirv_cross7TypedIDILNS1_5TypesE1EEENS_4hashIS4_EENS_8equal_toIS4_EENS_9allocatorIS4_EEE25__emplace_unique_key_argsIS4_JS4_EEENS_4pairINS_15__hash_iteratorIPNS_11__hash_nodeIS4_PvEEEEbEERKT_DpOT0_, symObjAddr: 0x3C9C0, symBinAddr: 0x131080, symSize: 0x420 }
  - { offset: 0x69555B, size: 0x8, addend: 0x0, symName: __ZN11spirv_cross12CompilerGLSL9statementIJRA39_KcNSt3__112basic_stringIcNS5_11char_traitsIcEENS5_9allocatorIcEEEERA2_S2_EEEvDpOT_, symObjAddr: 0x8BA0, symBinAddr: 0x10D8E0, symSize: 0x160 }
  - { offset: 0x695996, size: 0x8, addend: 0x0, symName: __ZN11spirv_cross12CompilerGLSL9statementIJRA8_KcNSt3__112basic_stringIcNS5_11char_traitsIcEENS5_9allocatorIcEEEERSB_RA2_S2_EEEvDpOT_, symObjAddr: 0x9790, symBinAddr: 0x10E0B0, symSize: 0x190 }
  - { offset: 0x695E58, size: 0x8, addend: 0x0, symName: __ZN11spirv_cross12CompilerGLSL9statementIJRA9_KcRNSt3__112basic_stringIcNS5_11char_traitsIcEENS5_9allocatorIcEEEEEEEvDpOT_, symObjAddr: 0x8D00, symBinAddr: 0x10DA40, symSize: 0x140 }
  - { offset: 0x696161, size: 0x8, addend: 0x0, symName: __ZN11spirv_cross12CompilerGLSL9statementIJRA9_KcRNSt3__112basic_stringIcNS5_11char_traitsIcEENS5_9allocatorIcEEEERA2_S2_SB_EEEvDpOT_, symObjAddr: 0x8E40, symBinAddr: 0x10DB80, symSize: 0x190 }
  - { offset: 0x69678B, size: 0x8, addend: 0x0, symName: __ZN11spirv_cross12CompilerGLSL9statementIJRA14_KcNSt3__112basic_stringIcNS5_11char_traitsIcEENS5_9allocatorIcEEEERA4_S2_RSB_RA2_S2_EEEvDpOT_, symObjAddr: 0x90D0, symBinAddr: 0x10DD10, symSize: 0x1D0 }
  - { offset: 0x697FEA, size: 0x8, addend: 0x0, symName: __ZN11spirv_cross12CompilerHLSL20get_builtin_basetypeEN3spv7BuiltInENS_8SPIRType8BaseTypeE, symObjAddr: 0xA640, symBinAddr: 0x10EE20, symSize: 0x20 }
  - { offset: 0x6989D6, size: 0x8, addend: 0x0, symName: __ZN11spirv_cross11SmallVectorIZNS_12CompilerHLSL14emit_resourcesEvE10IOVariableLm8EE9push_backEOS2_, symObjAddr: 0x3DCA0, symBinAddr: 0x1314A0, symSize: 0x120 }
  - { offset: 0x698DF7, size: 0x8, addend: 0x0, symName: __ZN11spirv_cross12CompilerGLSL9statementIJPKcEEEvDpOT_, symObjAddr: 0xD180, symBinAddr: 0x111760, symSize: 0x100 }
  - { offset: 0x699010, size: 0x8, addend: 0x0, symName: __ZN11spirv_cross12CompilerGLSL9statementIJRPKcRA2_S2_NSt3__112basic_stringIcNS7_11char_traitsIcEENS7_9allocatorIcEEEERSD_S6_EEEvDpOT_, symObjAddr: 0xD280, symBinAddr: 0x111860, symSize: 0x1D0 }
  - { offset: 0x69959B, size: 0x8, addend: 0x0, symName: __ZN11spirv_cross12CompilerGLSL9statementIJRPKcRA6_S2_S4_RA5_S2_S4_RA4_S2_EEEvDpOT_, symObjAddr: 0xD450, symBinAddr: 0x111A30, symSize: 0x130 }
  - { offset: 0x69AE69, size: 0x8, addend: 0x0, symName: __ZN11spirv_cross12CompilerGLSL9statementIJRA92_KcEEEvDpOT_, symObjAddr: 0xE700, symBinAddr: 0x111DE0, symSize: 0x100 }
  - { offset: 0x69B37E, size: 0x8, addend: 0x0, symName: __ZN11spirv_cross12CompilerGLSL9statementIJRA79_KcEEEvDpOT_, symObjAddr: 0xEA00, symBinAddr: 0x111EE0, symSize: 0x100 }
  - { offset: 0x69B5AE, size: 0x8, addend: 0x0, symName: __ZN11spirv_cross12CompilerGLSL9statementIJRA95_KcEEEvDpOT_, symObjAddr: 0xEB00, symBinAddr: 0x111FE0, symSize: 0x100 }
  - { offset: 0x69C270, size: 0x8, addend: 0x0, symName: __ZN11spirv_cross12CompilerGLSL9statementIJRPKcRA20_S2_S4_RA8_S2_S4_RA34_S2_EEEvDpOT_, symObjAddr: 0xF300, symBinAddr: 0x1120E0, symSize: 0x130 }
  - { offset: 0x69C4F4, size: 0x8, addend: 0x0, symName: __ZN11spirv_cross12CompilerGLSL9statementIJRPKcRA22_S2_S4_RA32_S2_EEEvDpOT_, symObjAddr: 0xF430, symBinAddr: 0x112210, symSize: 0x180 }
  - { offset: 0x69CAAC, size: 0x8, addend: 0x0, symName: __ZN11spirv_cross12CompilerGLSL9statementIJRPKcRA22_S2_S4_RA30_S2_EEEvDpOT_, symObjAddr: 0xF6B0, symBinAddr: 0x112390, symSize: 0x180 }
  - { offset: 0x69D064, size: 0x8, addend: 0x0, symName: __ZN11spirv_cross12CompilerGLSL9statementIJRPKcRA35_S2_EEEvDpOT_, symObjAddr: 0xF930, symBinAddr: 0x112510, symSize: 0x130 }
  - { offset: 0x69D344, size: 0x8, addend: 0x0, symName: __ZN11spirv_cross12CompilerGLSL9statementIJRA47_KcEEEvDpOT_, symObjAddr: 0xFA60, symBinAddr: 0x112640, symSize: 0x100 }
  - { offset: 0x69D574, size: 0x8, addend: 0x0, symName: __ZN11spirv_cross12CompilerGLSL9statementIJRA88_KcEEEvDpOT_, symObjAddr: 0xFB60, symBinAddr: 0x112740, symSize: 0x100 }
  - { offset: 0x69D7A4, size: 0x8, addend: 0x0, symName: __ZN11spirv_cross12CompilerGLSL9statementIJRA84_KcEEEvDpOT_, symObjAddr: 0xFC60, symBinAddr: 0x112840, symSize: 0x100 }
  - { offset: 0x69DE38, size: 0x8, addend: 0x0, symName: __ZN11spirv_cross12CompilerGLSL9statementIJRA81_KcEEEvDpOT_, symObjAddr: 0x10060, symBinAddr: 0x112940, symSize: 0x100 }
  - { offset: 0x69E4E5, size: 0x8, addend: 0x0, symName: __ZN11spirv_cross12CompilerGLSL9statementIJRA83_KcEEEvDpOT_, symObjAddr: 0x10460, symBinAddr: 0x112A40, symSize: 0x100 }
  - { offset: 0x69E715, size: 0x8, addend: 0x0, symName: __ZN11spirv_cross12CompilerGLSL9statementIJRA106_KcEEEvDpOT_, symObjAddr: 0x10560, symBinAddr: 0x112B40, symSize: 0x100 }
  - { offset: 0x69E945, size: 0x8, addend: 0x0, symName: __ZN11spirv_cross12CompilerGLSL9statementIJRA105_KcEEEvDpOT_, symObjAddr: 0x10660, symBinAddr: 0x112C40, symSize: 0x100 }
  - { offset: 0x69EB75, size: 0x8, addend: 0x0, symName: __ZN11spirv_cross12CompilerGLSL9statementIJRA107_KcEEEvDpOT_, symObjAddr: 0x10760, symBinAddr: 0x112D40, symSize: 0x100 }
  - { offset: 0x69F222, size: 0x8, addend: 0x0, symName: __ZN11spirv_cross12CompilerGLSL9statementIJRA13_KcEEEvDpOT_, symObjAddr: 0x10B60, symBinAddr: 0x112E40, symSize: 0x100 }
  - { offset: 0x69F769, size: 0x8, addend: 0x0, symName: __ZN11spirv_cross12CompilerGLSL9statementIJRA29_KcRNSt3__112basic_stringIcNS5_11char_traitsIcEENS5_9allocatorIcEEEERA11_S2_SC_RA14_S2_SC_RA10_S2_SC_RA3_S2_SC_SE_SC_RA2_S2_EEEvDpOT_, symObjAddr: 0x10E60, symBinAddr: 0x112F40, symSize: 0x180 }
  - { offset: 0x6A0532, size: 0x8, addend: 0x0, symName: __ZN11spirv_cross12CompilerGLSL9statementIJRPKcRA5_S2_S3_RA6_S2_S3_S4_RA2_S2_S4_S4_S4_RA8_S2_S3_RA16_S2_EEEvDpOT_, symObjAddr: 0x11330, symBinAddr: 0x1130C0, symSize: 0x180 }
  - { offset: 0x6A08DD, size: 0x8, addend: 0x0, symName: __ZN11spirv_cross12CompilerGLSL9statementIJRPKcRA6_S2_EEEvDpOT_, symObjAddr: 0x114B0, symBinAddr: 0x113240, symSize: 0x130 }
  - { offset: 0x6A1F2F, size: 0x8, addend: 0x0, symName: __ZN11spirv_cross12CompilerGLSL15statement_innerIRA5_KcJPS2_RA6_S2_S5_RS5_RA2_S2_S8_S8_S8_RA8_S2_S5_RA16_S2_EEEvOT_DpOT0_, symObjAddr: 0x458A0, symBinAddr: 0x133280, symSize: 0x120 }
  - { offset: 0x6A2560, size: 0x8, addend: 0x0, symName: __ZN11spirv_cross12CompilerHLSL22analyze_meshlet_writesEv, symObjAddr: 0x115E0, symBinAddr: 0x113370, symSize: 0x750 }
  - { offset: 0x6A432A, size: 0x8, addend: 0x0, symName: '__ZZN11spirv_cross12CompilerHLSL22analyze_meshlet_writesEvENK3$_1clEPKcS3_b', symObjAddr: 0x11D30, symBinAddr: 0x113AC0, symSize: 0x4C0 }
  - { offset: 0x6A5CFD, size: 0x8, addend: 0x0, symName: __ZN11spirv_cross12CompilerHLSL22analyze_meshlet_writesEjjjRNSt3__113unordered_setIjNS1_4hashIjEENS1_8equal_toIjEENS1_9allocatorIjEEEE, symObjAddr: 0x121F0, symBinAddr: 0x113F80, symSize: 0x520 }
  - { offset: 0x6A75E2, size: 0x8, addend: 0x0, symName: __ZN11spirv_cross12CompilerHLSL17layout_for_memberERKNS_8SPIRTypeEj, symObjAddr: 0x128C0, symBinAddr: 0x1144A0, symSize: 0x80 }
  - { offset: 0x6A7BD1, size: 0x8, addend: 0x0, symName: __ZN11spirv_cross12CompilerGLSL9statementIJNSt3__112basic_stringIcNS2_11char_traitsIcEENS2_9allocatorIcEEEERKS8_S8_RS8_RA2_KcEEEvDpOT_, symObjAddr: 0x12F00, symBinAddr: 0x114AE0, symSize: 0x1E0 }
  - { offset: 0x6A82BB, size: 0x8, addend: 0x0, symName: __ZN11spirv_cross12CompilerHLSL22emit_rayquery_functionEPKcS2_PKj, symObjAddr: 0x130E0, symBinAddr: 0x114CC0, symSize: 0x100 }
  - { offset: 0x6A8815, size: 0x8, addend: 0x0, symName: __ZN11spirv_cross12CompilerHLSL15emit_mesh_tasksERNS_9SPIRBlockE, symObjAddr: 0x13380, symBinAddr: 0x114DC0, symSize: 0x1E0 }
  - { offset: 0x6A9233, size: 0x8, addend: 0x0, symName: __ZN11spirv_cross12CompilerGLSL9statementIJRA14_KcNSt3__112basic_stringIcNS5_11char_traitsIcEENS5_9allocatorIcEEEERA3_S2_SB_SD_SB_SD_SB_SD_EEEvDpOT_, symObjAddr: 0x13560, symBinAddr: 0x114FA0, symSize: 0x1C0 }
  - { offset: 0x6A9C14, size: 0x8, addend: 0x0, symName: __ZN11spirv_cross12CompilerHLSL17emit_buffer_blockERKNS_12SPIRVariableE, symObjAddr: 0x13720, symBinAddr: 0x115160, symSize: 0x1220 }
  - { offset: 0x6AE32F, size: 0x8, addend: 0x0, symName: __ZN11spirv_cross12CompilerHLSL19to_resource_bindingERKNS_12SPIRVariableE, symObjAddr: 0x14E00, symBinAddr: 0x116650, symSize: 0x310 }
  - { offset: 0x6AE625, size: 0x8, addend: 0x0, symName: __ZN11spirv_cross12CompilerGLSL9statementIJRA16_KcNSt3__112basic_stringIcNS5_11char_traitsIcEENS5_9allocatorIcEEEERA3_S2_SB_SB_SB_RA2_S2_EEEvDpOT_, symObjAddr: 0x159B0, symBinAddr: 0x116CA0, symSize: 0x150 }
  - { offset: 0x6AE94E, size: 0x8, addend: 0x0, symName: __ZNK11spirv_cross12CompilerHLSL35is_hlsl_force_storage_buffer_as_uavENS_7TypedIDILNS_5TypesE0EEE, symObjAddr: 0x14940, symBinAddr: 0x116380, symSize: 0x170 }
  - { offset: 0x6AF03F, size: 0x8, addend: 0x0, symName: __ZN11spirv_cross12CompilerGLSL9statementIJPKcRNSt3__112basic_stringIcNS4_11char_traitsIcEENS4_9allocatorIcEEEERA2_S2_SA_SA_SA_SD_EEEvDpOT_, symObjAddr: 0x14CA0, symBinAddr: 0x1164F0, symSize: 0x160 }
  - { offset: 0x6AFA83, size: 0x8, addend: 0x0, symName: __ZN11spirv_cross12CompilerGLSL9statementIJRA9_KcRNSt3__112basic_stringIcNS5_11char_traitsIcEENS5_9allocatorIcEEEESB_EEEvDpOT_, symObjAddr: 0x154B0, symBinAddr: 0x116B40, symSize: 0x160 }
  - { offset: 0x6B00A4, size: 0x8, addend: 0x0, symName: __ZN11spirv_cross12CompilerGLSL15statement_innerIRNSt3__112basic_stringIcNS2_11char_traitsIcEENS2_9allocatorIcEEEEJRA2_KcS8_S8_S8_SC_EEEvOT_DpOT0_, symObjAddr: 0x46FA0, symBinAddr: 0x1338B0, symSize: 0x120 }
  - { offset: 0x6B0584, size: 0x8, addend: 0x0, symName: __ZN11spirv_cross12CompilerHLSL27remap_hlsl_resource_bindingENS_19HLSLBindingFlagBitsERjS2_, symObjAddr: 0x1D790, symBinAddr: 0x11DCA0, symSize: 0x210 }
  - { offset: 0x6B0E63, size: 0x8, addend: 0x0, symName: __ZN11spirv_cross12CompilerHLSL24emit_push_constant_blockERKNS_12SPIRVariableE, symObjAddr: 0x15B00, symBinAddr: 0x116DF0, symSize: 0x8D0 }
  - { offset: 0x6B2B7C, size: 0x8, addend: 0x0, symName: __ZN11spirv_cross12CompilerGLSL9statementIJRA34_KcNSt3__112basic_stringIcNS5_11char_traitsIcEENS5_9allocatorIcEEEESB_EEEvDpOT_, symObjAddr: 0x165E0, symBinAddr: 0x1178D0, symSize: 0x160 }
  - { offset: 0x6B301C, size: 0x8, addend: 0x0, symName: __ZN11spirv_cross12CompilerHLSL20to_resource_registerENS_19HLSLBindingFlagBitsEcjj, symObjAddr: 0x16740, symBinAddr: 0x117A30, symSize: 0xC0 }
  - { offset: 0x6B3165, size: 0x8, addend: 0x0, symName: __ZN11spirv_cross12CompilerHLSL21to_sampler_expressionEj, symObjAddr: 0x16800, symBinAddr: 0x117AF0, symSize: 0x1B0 }
  - { offset: 0x6B3D8B, size: 0x8, addend: 0x0, symName: __ZN11spirv_cross12CompilerHLSL21emit_sampled_image_opEjjjj, symObjAddr: 0x16B50, symBinAddr: 0x117CA0, symSize: 0xF0 }
  - { offset: 0x6B4216, size: 0x8, addend: 0x0, symName: __ZN11spirv_cross10ObjectPoolINS_24SPIRCombinedImageSamplerEE8allocateIJRjS4_S4_EEEPS1_DpOT_, symObjAddr: 0x48A80, symBinAddr: 0x133C80, symSize: 0x160 }
  - { offset: 0x6B456E, size: 0x8, addend: 0x0, symName: __ZN11spirv_cross12CompilerHLSL16to_func_call_argERKNS_12SPIRFunction9ParameterEj, symObjAddr: 0x16C40, symBinAddr: 0x117D90, symSize: 0x140 }
  - { offset: 0x6B4D18, size: 0x8, addend: 0x0, symName: __ZNK11spirv_cross12CompilerHLSL26get_inner_entry_point_nameEv, symObjAddr: 0x16D80, symBinAddr: 0x117ED0, symSize: 0x130 }
  - { offset: 0x6B53C0, size: 0x8, addend: 0x0, symName: __ZN11spirv_cross12CompilerHLSL23emit_function_prototypeERNS_12SPIRFunctionERKNS_6BitsetE, symObjAddr: 0x17050, symBinAddr: 0x118000, symSize: 0x950 }
  - { offset: 0x6B7D9E, size: 0x8, addend: 0x0, symName: __ZN11spirv_cross12CompilerHLSL21emit_hlsl_entry_pointEv, symObjAddr: 0x17DF0, symBinAddr: 0x118950, symSize: 0x2070 }
  - { offset: 0x6BD262, size: 0x8, addend: 0x0, symName: __ZN11spirv_cross12CompilerGLSL9statementIJRA13_KcRNSt3__112basic_stringIcNS5_11char_traitsIcEENS5_9allocatorIcEEEERA3_S2_SC_SE_SC_SE_EEEvDpOT_, symObjAddr: 0x19E60, symBinAddr: 0x11A9C0, symSize: 0x150 }
  - { offset: 0x6BD58B, size: 0x8, addend: 0x0, symName: __ZN11spirv_cross12CompilerGLSL9statementIJPKcRS3_RA2_S2_NSt3__112basic_stringIcNS7_11char_traitsIcEENS7_9allocatorIcEEEES6_EEEvDpOT_, symObjAddr: 0x1A0B0, symBinAddr: 0x11AB10, symSize: 0x1C0 }
  - { offset: 0x6BDACD, size: 0x8, addend: 0x0, symName: '__ZZN11spirv_cross12CompilerHLSL21emit_hlsl_entry_pointEvENK3$_0clEj', symObjAddr: 0x4A5E0, symBinAddr: 0x133F40, symSize: 0x630 }
  - { offset: 0x6BE2FF, size: 0x8, addend: 0x0, symName: __ZN11spirv_cross12CompilerGLSL9statementIJRNSt3__112basic_stringIcNS2_11char_traitsIcEENS2_9allocatorIcEEEERA2_KcS9_RA16_SA_S9_SC_EEEvDpOT_, symObjAddr: 0x4DA90, symBinAddr: 0x135630, symSize: 0x130 }
  - { offset: 0x6BE56A, size: 0x8, addend: 0x0, symName: __ZN11spirv_cross12CompilerGLSL9statementIJRNSt3__112basic_stringIcNS2_11char_traitsIcEENS2_9allocatorIcEEEERA2_KcRjRA17_SA_S9_SC_SD_SC_EEEvDpOT_, symObjAddr: 0x4DBC0, symBinAddr: 0x135760, symSize: 0x180 }
  - { offset: 0x6BEC05, size: 0x8, addend: 0x0, symName: __ZN11spirv_cross12CompilerGLSL9statementIJNSt3__112basic_stringIcNS2_11char_traitsIcEENS2_9allocatorIcEEEERA2_KcS8_RA3_S9_EEEvDpOT_, symObjAddr: 0x1A270, symBinAddr: 0x11ACD0, symSize: 0x1A0 }
  - { offset: 0x6BF0D1, size: 0x8, addend: 0x0, symName: '__ZZN11spirv_cross12CompilerHLSL21emit_hlsl_entry_pointEvENK3$_2clEj', symObjAddr: 0x4E630, symBinAddr: 0x135C70, symSize: 0x240 }
  - { offset: 0x6BF4AC, size: 0x8, addend: 0x0, symName: __ZN11spirv_cross12CompilerGLSL9statementIJRA14_KcRNSt3__112basic_stringIcNS5_11char_traitsIcEENS5_9allocatorIcEEEERA4_S2_SC_RA2_S2_SC_SG_EEEvDpOT_, symObjAddr: 0x4F0E0, symBinAddr: 0x136500, symSize: 0x150 }
  - { offset: 0x6BF7D5, size: 0x8, addend: 0x0, symName: __ZN11spirv_cross12CompilerGLSL9statementIJRA14_KcRNSt3__112basic_stringIcNS5_11char_traitsIcEENS5_9allocatorIcEEEERA11_S2_SC_SC_RA3_S2_EEEvDpOT_, symObjAddr: 0x4F230, symBinAddr: 0x136650, symSize: 0x130 }
  - { offset: 0x6BFA40, size: 0x8, addend: 0x0, symName: __ZN11spirv_cross12CompilerGLSL9statementIJRA14_KcRNSt3__112basic_stringIcNS5_11char_traitsIcEENS5_9allocatorIcEEEERA4_S2_SC_RA2_S2_EEEvDpOT_, symObjAddr: 0x4E9B0, symBinAddr: 0x135FF0, symSize: 0x1D0 }
  - { offset: 0x6C0775, size: 0x8, addend: 0x0, symName: __ZN11spirv_cross12CompilerHLSL10emit_fixupEv, symObjAddr: 0x1A510, symBinAddr: 0x11AE70, symSize: 0x80 }
  - { offset: 0x6C0823, size: 0x8, addend: 0x0, symName: __ZN11spirv_cross12CompilerGLSL9statementIJRA64_KcEEEvDpOT_, symObjAddr: 0x1A590, symBinAddr: 0x11AEF0, symSize: 0x100 }
  - { offset: 0x6C0D0E, size: 0x8, addend: 0x0, symName: __ZN11spirv_cross12CompilerHLSL15emit_texture_opERKNS_11InstructionEb, symObjAddr: 0x1A790, symBinAddr: 0x11AFF0, symSize: 0x2880 }
  - { offset: 0x6C6C8A, size: 0x8, addend: 0x0, symName: __ZN11spirv_cross12CompilerGLSL9statementIJRA8_KcRjS4_RNSt3__112basic_stringIcNS6_11char_traitsIcEENS6_9allocatorIcEEEERA2_S2_EEEvDpOT_, symObjAddr: 0x1D1D0, symBinAddr: 0x11D870, symSize: 0x1B0 }
  - { offset: 0x6C7188, size: 0x8, addend: 0x0, symName: __ZN11spirv_cross12CompilerGLSL9statementIJRA9_KcRjRA5_S2_S5_S4_EEEvDpOT_, symObjAddr: 0x1D380, symBinAddr: 0x11DA20, symSize: 0x190 }
  - { offset: 0x6C7BA1, size: 0x8, addend: 0x0, symName: __ZN11spirv_cross12CompilerHLSL27to_resource_binding_samplerERKNS_12SPIRVariableE, symObjAddr: 0x1D6A0, symBinAddr: 0x11DBB0, symSize: 0xF0 }
  - { offset: 0x6C7E33, size: 0x8, addend: 0x0, symName: __ZN11spirv_cross12CompilerHLSL19emit_modern_uniformERKNS_12SPIRVariableE, symObjAddr: 0x1DD90, symBinAddr: 0x11E2A0, symSize: 0x550 }
  - { offset: 0x6C8B1D, size: 0x8, addend: 0x0, symName: __ZN11spirv_cross12CompilerGLSL9statementIJPKcNSt3__112basic_stringIcNS4_11char_traitsIcEENS4_9allocatorIcEEEERA2_S2_SA_SA_SA_SC_EEEvDpOT_, symObjAddr: 0x1E2E0, symBinAddr: 0x11E7F0, symSize: 0x160 }
  - { offset: 0x6C90E4, size: 0x8, addend: 0x0, symName: __ZN11spirv_cross12CompilerGLSL9statementIJRA24_KcNSt3__112basic_stringIcNS5_11char_traitsIcEENS5_9allocatorIcEEEESB_SB_RA2_S2_EEEvDpOT_, symObjAddr: 0x1E440, symBinAddr: 0x11E950, symSize: 0x1D0 }
  - { offset: 0x6C96AD, size: 0x8, addend: 0x0, symName: __ZN11spirv_cross12CompilerGLSL9statementIJRA14_KcNSt3__112basic_stringIcNS5_11char_traitsIcEENS5_9allocatorIcEEEESB_SB_RA2_S2_EEEvDpOT_, symObjAddr: 0x1E610, symBinAddr: 0x11EB20, symSize: 0x1D0 }
  - { offset: 0x6CA1B4, size: 0x8, addend: 0x0, symName: __ZN11spirv_cross12CompilerHLSL19emit_legacy_uniformERKNS_12SPIRVariableE, symObjAddr: 0x1E950, symBinAddr: 0x11ECF0, symSize: 0xE0 }
  - { offset: 0x6CA74A, size: 0x8, addend: 0x0, symName: __ZN11spirv_cross12CompilerHLSL12emit_uniformERKNS_12SPIRVariableE, symObjAddr: 0x1EB70, symBinAddr: 0x11EDD0, symSize: 0x40 }
  - { offset: 0x6CA7C2, size: 0x8, addend: 0x0, symName: __ZN11spirv_cross12CompilerHLSL20emit_complex_bitcastEjjj, symObjAddr: 0x1EBB0, symBinAddr: 0x11EE10, symSize: 0x10 }
  - { offset: 0x6CA803, size: 0x8, addend: 0x0, symName: __ZN11spirv_cross12CompilerHLSL15bitcast_glsl_opERKNS_8SPIRTypeES3_, symObjAddr: 0x1EBC0, symBinAddr: 0x11EE20, symSize: 0x350 }
  - { offset: 0x6CAD00, size: 0x8, addend: 0x0, symName: __ZN11spirv_cross12CompilerHLSL12emit_glsl_opEjjjPKjj, symObjAddr: 0x1EF10, symBinAddr: 0x11F170, symSize: 0x7E0 }
  - { offset: 0x6CB169, size: 0x8, addend: 0x0, symName: __ZN11spirv_cross12CompilerHLSL23read_access_chain_arrayERKNSt3__112basic_stringIcNS1_11char_traitsIcEENS1_9allocatorIcEEEERKNS_15SPIRAccessChainE, symObjAddr: 0x1F6F0, symBinAddr: 0x11F950, symSize: 0x340 }
  - { offset: 0x6CC14F, size: 0x8, addend: 0x0, symName: __ZN11spirv_cross12CompilerGLSL9statementIJRA10_KcRNSt3__112basic_stringIcNS5_11char_traitsIcEENS5_9allocatorIcEEEERA7_S2_SC_RA4_S2_SB_RA3_S2_SC_SG_EEEvDpOT_, symObjAddr: 0x1FB70, symBinAddr: 0x11FCD0, symSize: 0x1C0 }
  - { offset: 0x6CC7E6, size: 0x8, addend: 0x0, symName: __ZN11spirv_cross12CompilerHLSL17read_access_chainEPNSt3__112basic_stringIcNS1_11char_traitsIcEENS1_9allocatorIcEEEERKS7_RKNS_15SPIRAccessChainE, symObjAddr: 0x1FF30, symBinAddr: 0x120090, symSize: 0x1330 }
  - { offset: 0x6D0F47, size: 0x8, addend: 0x0, symName: __ZN11spirv_cross12CompilerHLSL21get_unique_identifierEv, symObjAddr: 0x1FA30, symBinAddr: 0x11FC90, symSize: 0x40 }
  - { offset: 0x6D1585, size: 0x8, addend: 0x0, symName: __ZN11spirv_cross12CompilerHLSL24read_access_chain_structERKNSt3__112basic_stringIcNS1_11char_traitsIcEENS1_9allocatorIcEEEERKNS_15SPIRAccessChainE, symObjAddr: 0x214A0, symBinAddr: 0x1213C0, symSize: 0x280 }
  - { offset: 0x6D20A8, size: 0x8, addend: 0x0, symName: __ZN11spirv_cross12CompilerGLSL9statementIJRKNSt3__112basic_stringIcNS2_11char_traitsIcEENS2_9allocatorIcEEEERA4_KcRS8_RA2_SB_EEEvDpOT_, symObjAddr: 0x221D0, symBinAddr: 0x121B90, symSize: 0x1A0 }
  - { offset: 0x6D2634, size: 0x8, addend: 0x0, symName: __ZN11spirv_cross12CompilerHLSL9emit_loadERKNS_11InstructionE, symObjAddr: 0x22370, symBinAddr: 0x121D30, symSize: 0x3B0 }
  - { offset: 0x6D33F0, size: 0x8, addend: 0x0, symName: __ZN11spirv_cross12CompilerHLSL24write_access_chain_arrayERKNS_15SPIRAccessChainEjRKNS_11SmallVectorIjLm8EEE, symObjAddr: 0x22720, symBinAddr: 0x1220E0, symSize: 0x9B0 }
  - { offset: 0x6D5138, size: 0x8, addend: 0x0, symName: __ZN11spirv_cross12CompilerHLSL18write_access_chainERKNS_15SPIRAccessChainEjRKNS_11SmallVectorIjLm8EEE, symObjAddr: 0x23160, symBinAddr: 0x122A90, symSize: 0x12D0 }
  - { offset: 0x6D942F, size: 0x8, addend: 0x0, symName: __ZN11spirv_cross12CompilerHLSL25write_access_chain_structERKNS_15SPIRAccessChainEjRKNS_11SmallVectorIjLm8EEE, symObjAddr: 0x24430, symBinAddr: 0x123D60, symSize: 0x570 }
  - { offset: 0x6D9D0D, size: 0x8, addend: 0x0, symName: __ZN11spirv_cross12CompilerHLSL24write_access_chain_valueEjRKNS_11SmallVectorIjLm8EEEb, symObjAddr: 0x249A0, symBinAddr: 0x1242D0, symSize: 0xE0 }
  - { offset: 0x6DA10F, size: 0x8, addend: 0x0, symName: __ZN11spirv_cross12CompilerGLSL9statementIJRNSt3__112basic_stringIcNS2_11char_traitsIcEENS2_9allocatorIcEEEERA7_KcS9_RA2_SA_RKS8_jRA3_SA_S9_SI_EEEvDpOT_, symObjAddr: 0x24C40, symBinAddr: 0x124570, symSize: 0x1C0 }
  - { offset: 0x6DA5FC, size: 0x8, addend: 0x0, symName: __ZN11spirv_cross12CompilerGLSL9statementIJRNSt3__112basic_stringIcNS2_11char_traitsIcEENS2_9allocatorIcEEEERA2_KcRPSA_S9_SC_RKS8_RKiRA3_SA_S9_SK_EEEvDpOT_, symObjAddr: 0x24A80, symBinAddr: 0x1243B0, symSize: 0x1C0 }
  - { offset: 0x6DAAF5, size: 0x8, addend: 0x0, symName: __ZN11spirv_cross12CompilerGLSL9statementIJRNSt3__112basic_stringIcNS2_11char_traitsIcEENS2_9allocatorIcEEEERA2_KcRPSA_S9_SC_RKS8_jRA3_SA_S9_SI_EEEvDpOT_, symObjAddr: 0x24FD0, symBinAddr: 0x124730, symSize: 0x1F0 }
  - { offset: 0x6DB2DC, size: 0x8, addend: 0x0, symName: __ZN11spirv_cross12CompilerGLSL15statement_innerIRNSt3__112basic_stringIcNS2_11char_traitsIcEENS2_9allocatorIcEEEEJRA2_KcRKS8_RKiRA3_SA_S9_SI_EEEvOT_DpOT0_, symObjAddr: 0x52660, symBinAddr: 0x1371C0, symSize: 0x130 }
